ARM GAS  /tmp/ccRuXkve.s 			page 1


   1              		.cpu cortex-m3
   2              		.eabi_attribute 20, 1
   3              		.eabi_attribute 21, 1
   4              		.eabi_attribute 23, 3
   5              		.eabi_attribute 24, 1
   6              		.eabi_attribute 25, 1
   7              		.eabi_attribute 26, 1
   8              		.eabi_attribute 30, 2
   9              		.eabi_attribute 34, 1
  10              		.eabi_attribute 18, 4
  11              		.file	"adc_buffer.cpp"
  12              		.text
  13              	.Ltext0:
  14              		.cfi_sections	.debug_frame
  15              		.section	.text._ZN9AdcBufferC2Et,"ax",%progbits
  16              		.align	1
  17              		.p2align 2,,3
  18              		.global	_ZN9AdcBufferC2Et
  19              		.syntax unified
  20              		.thumb
  21              		.thumb_func
  22              		.fpu softvfp
  24              	_ZN9AdcBufferC2Et:
  25              	.LFB2:
  26              		.file 1 "src/Impl/adc_buffer.cpp"
   1:src/Impl/adc_buffer.cpp **** #include "adc_buffer.h"
   2:src/Impl/adc_buffer.cpp **** #include <stdio.h>
   3:src/Impl/adc_buffer.cpp **** 
   4:src/Impl/adc_buffer.cpp **** AdcBuffer::AdcBuffer(const uint16_t size) :
  27              		.loc 1 4 0
  28              		.cfi_startproc
  29              		@ args = 0, pretend = 0, frame = 0
  30              		@ frame_needed = 0, uses_anonymous_args = 0
  31              		@ link register save eliminated.
  32              	.LVL0:
  33              	.LBB9:
   5:src/Impl/adc_buffer.cpp ****     size(size), count(0),
   6:src/Impl/adc_buffer.cpp ****     firstPtr(nullptr), lastPtr(nullptr)
  34              		.loc 1 6 0
  35 0000 0022     		movs	r2, #0
  36 0002 0180     		strh	r1, [r0]	@ movhi
  37 0004 4280     		strh	r2, [r0, #2]	@ movhi
  38 0006 4260     		str	r2, [r0, #4]
  39 0008 8260     		str	r2, [r0, #8]
  40              	.LBE9:
   7:src/Impl/adc_buffer.cpp **** {
   8:src/Impl/adc_buffer.cpp **** 
   9:src/Impl/adc_buffer.cpp **** }
  41              		.loc 1 9 0
  42 000a 7047     		bx	lr
  43              		.cfi_endproc
  44              	.LFE2:
  46              		.global	_ZN9AdcBufferC1Et
  47              		.thumb_set _ZN9AdcBufferC1Et,_ZN9AdcBufferC2Et
  48              		.section	.text._ZN9AdcBuffer7setSizeEt,"ax",%progbits
  49              		.align	1
  50              		.p2align 2,,3
ARM GAS  /tmp/ccRuXkve.s 			page 2


  51              		.global	_ZN9AdcBuffer7setSizeEt
  52              		.syntax unified
  53              		.thumb
  54              		.thumb_func
  55              		.fpu softvfp
  57              	_ZN9AdcBuffer7setSizeEt:
  58              	.LFB7:
  10:src/Impl/adc_buffer.cpp **** 
  11:src/Impl/adc_buffer.cpp **** AdcBuffer::~AdcBuffer()
  12:src/Impl/adc_buffer.cpp **** {
  13:src/Impl/adc_buffer.cpp ****     reset();
  14:src/Impl/adc_buffer.cpp **** }
  15:src/Impl/adc_buffer.cpp **** 
  16:src/Impl/adc_buffer.cpp **** void AdcBuffer::setSize(const uint16_t size)
  17:src/Impl/adc_buffer.cpp **** {
  59              		.loc 1 17 0
  60              		.cfi_startproc
  61              		@ args = 0, pretend = 0, frame = 0
  62              		@ frame_needed = 0, uses_anonymous_args = 0
  63              		@ link register save eliminated.
  64              	.LVL1:
  18:src/Impl/adc_buffer.cpp ****     if (size != this->size)
  65              		.loc 1 18 0
  66 0000 0388     		ldrh	r3, [r0]
  67 0002 8B42     		cmp	r3, r1
  19:src/Impl/adc_buffer.cpp ****     {
  20:src/Impl/adc_buffer.cpp ****         this->size = size;
  68              		.loc 1 20 0
  69 0004 18BF     		it	ne
  70 0006 0180     		strhne	r1, [r0]	@ movhi
  71 0008 7047     		bx	lr
  72              		.cfi_endproc
  73              	.LFE7:
  75 000a 00BF     		.section	.text._ZNK9AdcBuffer7getSizeEv,"ax",%progbits
  76              		.align	1
  77              		.p2align 2,,3
  78              		.global	_ZNK9AdcBuffer7getSizeEv
  79              		.syntax unified
  80              		.thumb
  81              		.thumb_func
  82              		.fpu softvfp
  84              	_ZNK9AdcBuffer7getSizeEv:
  85              	.LFB8:
  21:src/Impl/adc_buffer.cpp ****     }
  22:src/Impl/adc_buffer.cpp **** }
  23:src/Impl/adc_buffer.cpp **** 
  24:src/Impl/adc_buffer.cpp **** uint16_t AdcBuffer::getSize() const
  25:src/Impl/adc_buffer.cpp **** {
  86              		.loc 1 25 0
  87              		.cfi_startproc
  88              		@ args = 0, pretend = 0, frame = 0
  89              		@ frame_needed = 0, uses_anonymous_args = 0
  90              		@ link register save eliminated.
  91              	.LVL2:
  26:src/Impl/adc_buffer.cpp ****     return size;
  27:src/Impl/adc_buffer.cpp **** }
  92              		.loc 1 27 0
ARM GAS  /tmp/ccRuXkve.s 			page 3


  93 0000 0088     		ldrh	r0, [r0]
  94              	.LVL3:
  95 0002 7047     		bx	lr
  96              		.cfi_endproc
  97              	.LFE8:
  99              		.section	.text._ZNK9AdcBuffer8getCountEv,"ax",%progbits
 100              		.align	1
 101              		.p2align 2,,3
 102              		.global	_ZNK9AdcBuffer8getCountEv
 103              		.syntax unified
 104              		.thumb
 105              		.thumb_func
 106              		.fpu softvfp
 108              	_ZNK9AdcBuffer8getCountEv:
 109              	.LFB9:
  28:src/Impl/adc_buffer.cpp **** 
  29:src/Impl/adc_buffer.cpp **** uint16_t AdcBuffer::getCount() const
  30:src/Impl/adc_buffer.cpp **** {
 110              		.loc 1 30 0
 111              		.cfi_startproc
 112              		@ args = 0, pretend = 0, frame = 0
 113              		@ frame_needed = 0, uses_anonymous_args = 0
 114              		@ link register save eliminated.
 115              	.LVL4:
  31:src/Impl/adc_buffer.cpp ****     return count;
  32:src/Impl/adc_buffer.cpp **** }
 116              		.loc 1 32 0
 117 0000 4088     		ldrh	r0, [r0, #2]
 118              	.LVL5:
 119 0002 7047     		bx	lr
 120              		.cfi_endproc
 121              	.LFE9:
 123              		.section	.text._ZNK9AdcBuffer6isFullEv,"ax",%progbits
 124              		.align	1
 125              		.p2align 2,,3
 126              		.global	_ZNK9AdcBuffer6isFullEv
 127              		.syntax unified
 128              		.thumb
 129              		.thumb_func
 130              		.fpu softvfp
 132              	_ZNK9AdcBuffer6isFullEv:
 133              	.LFB10:
  33:src/Impl/adc_buffer.cpp **** 
  34:src/Impl/adc_buffer.cpp **** bool AdcBuffer::isFull() const
  35:src/Impl/adc_buffer.cpp **** {
 134              		.loc 1 35 0
 135              		.cfi_startproc
 136              		@ args = 0, pretend = 0, frame = 0
 137              		@ frame_needed = 0, uses_anonymous_args = 0
 138              		@ link register save eliminated.
 139              	.LVL6:
  36:src/Impl/adc_buffer.cpp ****     return count == size;
 140              		.loc 1 36 0
 141 0000 4288     		ldrh	r2, [r0, #2]
 142 0002 0088     		ldrh	r0, [r0]
 143              	.LVL7:
  37:src/Impl/adc_buffer.cpp **** }
ARM GAS  /tmp/ccRuXkve.s 			page 4


 144              		.loc 1 37 0
 145 0004 101A     		subs	r0, r2, r0
 146 0006 B0FA80F0 		clz	r0, r0
 147 000a 4009     		lsrs	r0, r0, #5
 148 000c 7047     		bx	lr
 149              		.cfi_endproc
 150              	.LFE10:
 152 000e 00BF     		.section	.text._ZN9AdcBuffer8getBytesEPh,"ax",%progbits
 153              		.align	1
 154              		.p2align 2,,3
 155              		.global	_ZN9AdcBuffer8getBytesEPh
 156              		.syntax unified
 157              		.thumb
 158              		.thumb_func
 159              		.fpu softvfp
 161              	_ZN9AdcBuffer8getBytesEPh:
 162              	.LFB13:
  38:src/Impl/adc_buffer.cpp **** 
  39:src/Impl/adc_buffer.cpp **** void AdcBuffer::push(const uint16_t value)
  40:src/Impl/adc_buffer.cpp **** {
  41:src/Impl/adc_buffer.cpp ****     AdcData* dataPtr = new AdcData(value);
  42:src/Impl/adc_buffer.cpp ****     if (count == 0)
  43:src/Impl/adc_buffer.cpp ****     {
  44:src/Impl/adc_buffer.cpp ****         firstPtr = lastPtr = dataPtr;
  45:src/Impl/adc_buffer.cpp ****         count++;
  46:src/Impl/adc_buffer.cpp ****     }
  47:src/Impl/adc_buffer.cpp ****     else
  48:src/Impl/adc_buffer.cpp ****     {
  49:src/Impl/adc_buffer.cpp ****         lastPtr->nextPtr = dataPtr;
  50:src/Impl/adc_buffer.cpp ****         lastPtr = dataPtr;
  51:src/Impl/adc_buffer.cpp ****         if (count == size)
  52:src/Impl/adc_buffer.cpp ****         {
  53:src/Impl/adc_buffer.cpp ****             AdcData* toDeletePtr = firstPtr;
  54:src/Impl/adc_buffer.cpp ****             firstPtr = firstPtr->nextPtr;
  55:src/Impl/adc_buffer.cpp ****             toDeletePtr->nextPtr = nullptr;
  56:src/Impl/adc_buffer.cpp ****             delete toDeletePtr;
  57:src/Impl/adc_buffer.cpp ****         }
  58:src/Impl/adc_buffer.cpp ****         else
  59:src/Impl/adc_buffer.cpp ****         {
  60:src/Impl/adc_buffer.cpp ****             count++;
  61:src/Impl/adc_buffer.cpp ****         }
  62:src/Impl/adc_buffer.cpp ****     }
  63:src/Impl/adc_buffer.cpp **** 
  64:src/Impl/adc_buffer.cpp ****     //printf("Buffer count: %u\n", count);
  65:src/Impl/adc_buffer.cpp **** /*    for (AdcData* it = firstPtr; it != nullptr; it = it->nextPtr)
  66:src/Impl/adc_buffer.cpp ****         printf("%u ", it->value);
  67:src/Impl/adc_buffer.cpp **** 
  68:src/Impl/adc_buffer.cpp ****     printf("\n");
  69:src/Impl/adc_buffer.cpp **** */
  70:src/Impl/adc_buffer.cpp **** }
  71:src/Impl/adc_buffer.cpp **** 
  72:src/Impl/adc_buffer.cpp **** void AdcBuffer::reset()
  73:src/Impl/adc_buffer.cpp **** {
  74:src/Impl/adc_buffer.cpp ****     if (firstPtr != nullptr)
  75:src/Impl/adc_buffer.cpp ****         delete firstPtr;
  76:src/Impl/adc_buffer.cpp **** 
  77:src/Impl/adc_buffer.cpp ****     firstPtr = lastPtr = nullptr;
ARM GAS  /tmp/ccRuXkve.s 			page 5


  78:src/Impl/adc_buffer.cpp ****     count = 0;
  79:src/Impl/adc_buffer.cpp **** }
  80:src/Impl/adc_buffer.cpp **** 
  81:src/Impl/adc_buffer.cpp **** void AdcBuffer::getBytes(uint8_t *buffer)
  82:src/Impl/adc_buffer.cpp **** {
 163              		.loc 1 82 0
 164              		.cfi_startproc
 165              		@ args = 0, pretend = 0, frame = 0
 166              		@ frame_needed = 0, uses_anonymous_args = 0
 167              		@ link register save eliminated.
 168              	.LVL8:
 169              	.LBB10:
  83:src/Impl/adc_buffer.cpp ****     uint16_t i = 0;
  84:src/Impl/adc_buffer.cpp ****     for (AdcData* it = firstPtr; it != nullptr; it = it->nextPtr)
 170              		.loc 1 84 0
 171 0000 4268     		ldr	r2, [r0, #4]
 172              	.LVL9:
 173 0002 72B1     		cbz	r2, .L19
 174              		.loc 1 84 0 is_stmt 0 discriminator 2
 175 0004 0023     		movs	r3, #0
 176              	.LBE10:
  82:src/Impl/adc_buffer.cpp ****     uint16_t i = 0;
 177              		.loc 1 82 0 is_stmt 1 discriminator 2
 178 0006 10B4     		push	{r4}
 179              		.cfi_def_cfa_offset 4
 180              		.cfi_offset 4, -4
 181              	.LVL10:
 182              	.L11:
 183              	.LBB11:
  85:src/Impl/adc_buffer.cpp ****     {
  86:src/Impl/adc_buffer.cpp ****         buffer[i++] = ((it->value & 0xFF00) >> 8) & 0xFF;
 184              		.loc 1 86 0 discriminator 2
 185 0008 1488     		ldrh	r4, [r2]
 186 000a 581C     		adds	r0, r3, #1
 187 000c 240A     		lsrs	r4, r4, #8
 188 000e CC54     		strb	r4, [r1, r3]
  87:src/Impl/adc_buffer.cpp ****         buffer[i++] = it->value & 0xFF;
 189              		.loc 1 87 0 discriminator 2
 190 0010 1488     		ldrh	r4, [r2]
  86:src/Impl/adc_buffer.cpp ****         buffer[i++] = it->value & 0xFF;
 191              		.loc 1 86 0 discriminator 2
 192 0012 80B2     		uxth	r0, r0
 193              	.LVL11:
 194              		.loc 1 87 0 discriminator 2
 195 0014 0C54     		strb	r4, [r1, r0]
  84:src/Impl/adc_buffer.cpp ****     {
 196              		.loc 1 84 0 discriminator 2
 197 0016 5268     		ldr	r2, [r2, #4]
 198              	.LVL12:
 199              		.loc 1 87 0 discriminator 2
 200 0018 0233     		adds	r3, r3, #2
 201 001a 9BB2     		uxth	r3, r3
 202              	.LVL13:
  84:src/Impl/adc_buffer.cpp ****     {
 203              		.loc 1 84 0 discriminator 2
 204 001c 002A     		cmp	r2, #0
 205 001e F3D1     		bne	.L11
ARM GAS  /tmp/ccRuXkve.s 			page 6


 206              	.LBE11:
  88:src/Impl/adc_buffer.cpp ****     }
  89:src/Impl/adc_buffer.cpp **** }
 207              		.loc 1 89 0
 208 0020 10BC     		pop	{r4}
 209              		.cfi_restore 4
 210              		.cfi_def_cfa_offset 0
 211              	.LVL14:
 212              	.L19:
 213 0022 7047     		bx	lr
 214              		.cfi_endproc
 215              	.LFE13:
 217              		.section	.text._ZN9AdcBuffer7AdcDataC2EtPS0_,"ax",%progbits
 218              		.align	1
 219              		.p2align 2,,3
 220              		.global	_ZN9AdcBuffer7AdcDataC2EtPS0_
 221              		.syntax unified
 222              		.thumb
 223              		.thumb_func
 224              		.fpu softvfp
 226              	_ZN9AdcBuffer7AdcDataC2EtPS0_:
 227              	.LFB15:
  90:src/Impl/adc_buffer.cpp **** 
  91:src/Impl/adc_buffer.cpp **** AdcBuffer::AdcData::AdcData(uint16_t value, AdcBuffer::AdcData *nextPtr) :
 228              		.loc 1 91 0
 229              		.cfi_startproc
 230              		@ args = 0, pretend = 0, frame = 0
 231              		@ frame_needed = 0, uses_anonymous_args = 0
 232              		@ link register save eliminated.
 233              	.LVL15:
 234              	.LBB12:
  92:src/Impl/adc_buffer.cpp ****     value(value),
  93:src/Impl/adc_buffer.cpp ****     nextPtr(nextPtr)
 235              		.loc 1 93 0
 236 0000 0180     		strh	r1, [r0]	@ movhi
 237 0002 4260     		str	r2, [r0, #4]
 238              	.LBE12:
  94:src/Impl/adc_buffer.cpp **** {
  95:src/Impl/adc_buffer.cpp **** 
  96:src/Impl/adc_buffer.cpp **** }
 239              		.loc 1 96 0
 240 0004 7047     		bx	lr
 241              		.cfi_endproc
 242              	.LFE15:
 244              		.global	_ZN9AdcBuffer7AdcDataC1EtPS0_
 245              		.thumb_set _ZN9AdcBuffer7AdcDataC1EtPS0_,_ZN9AdcBuffer7AdcDataC2EtPS0_
 246 0006 00BF     		.section	.text._ZN9AdcBuffer7AdcDataD2Ev,"ax",%progbits
 247              		.align	1
 248              		.p2align 2,,3
 249              		.global	_ZN9AdcBuffer7AdcDataD2Ev
 250              		.syntax unified
 251              		.thumb
 252              		.thumb_func
 253              		.fpu softvfp
 255              	_ZN9AdcBuffer7AdcDataD2Ev:
 256              	.LFB18:
  97:src/Impl/adc_buffer.cpp **** 
ARM GAS  /tmp/ccRuXkve.s 			page 7


  98:src/Impl/adc_buffer.cpp **** AdcBuffer::AdcData::~AdcData()
 257              		.loc 1 98 0
 258              		.cfi_startproc
 259              		@ args = 0, pretend = 0, frame = 0
 260              		@ frame_needed = 0, uses_anonymous_args = 0
 261              	.LVL16:
 262 0000 38B5     		push	{r3, r4, r5, lr}
 263              		.cfi_def_cfa_offset 16
 264              		.cfi_offset 3, -16
 265              		.cfi_offset 4, -12
 266              		.cfi_offset 5, -8
 267              		.cfi_offset 14, -4
 268              	.LBB13:
  99:src/Impl/adc_buffer.cpp **** {
 100:src/Impl/adc_buffer.cpp ****     if (nextPtr != nullptr)
 269              		.loc 1 100 0
 270 0002 4468     		ldr	r4, [r0, #4]
 271              	.LBE13:
  98:src/Impl/adc_buffer.cpp **** {
 272              		.loc 1 98 0
 273 0004 0546     		mov	r5, r0
 274              	.LBB14:
 275              		.loc 1 100 0
 276 0006 2CB1     		cbz	r4, .L22
 101:src/Impl/adc_buffer.cpp ****     {
 102:src/Impl/adc_buffer.cpp ****         delete nextPtr;
 277              		.loc 1 102 0 discriminator 1
 278 0008 2046     		mov	r0, r4
 279              	.LVL17:
 280 000a FFF7FEFF 		bl	_ZN9AdcBuffer7AdcDataD1Ev
 281              	.LVL18:
 282 000e 2046     		mov	r0, r4
 283 0010 FFF7FEFF 		bl	_ZdlPv
 284              	.LVL19:
 285              	.L22:
 286              	.LBE14:
 103:src/Impl/adc_buffer.cpp ****     }
 104:src/Impl/adc_buffer.cpp **** }
 287              		.loc 1 104 0
 288 0014 2846     		mov	r0, r5
 289 0016 38BD     		pop	{r3, r4, r5, pc}
 290              		.cfi_endproc
 291              	.LFE18:
 293              		.global	_ZN9AdcBuffer7AdcDataD1Ev
 294              		.thumb_set _ZN9AdcBuffer7AdcDataD1Ev,_ZN9AdcBuffer7AdcDataD2Ev
 295              		.section	.text._ZN9AdcBuffer4pushEt,"ax",%progbits
 296              		.align	1
 297              		.p2align 2,,3
 298              		.global	_ZN9AdcBuffer4pushEt
 299              		.syntax unified
 300              		.thumb
 301              		.thumb_func
 302              		.fpu softvfp
 304              	_ZN9AdcBuffer4pushEt:
 305              	.LFB11:
  40:src/Impl/adc_buffer.cpp ****     AdcData* dataPtr = new AdcData(value);
 306              		.loc 1 40 0
ARM GAS  /tmp/ccRuXkve.s 			page 8


 307              		.cfi_startproc
 308              		@ args = 0, pretend = 0, frame = 0
 309              		@ frame_needed = 0, uses_anonymous_args = 0
 310              	.LVL20:
 311 0000 38B5     		push	{r3, r4, r5, lr}
 312              		.cfi_def_cfa_offset 16
 313              		.cfi_offset 3, -16
 314              		.cfi_offset 4, -12
 315              		.cfi_offset 5, -8
 316              		.cfi_offset 14, -4
  40:src/Impl/adc_buffer.cpp ****     AdcData* dataPtr = new AdcData(value);
 317              		.loc 1 40 0
 318 0002 0446     		mov	r4, r0
  41:src/Impl/adc_buffer.cpp ****     if (count == 0)
 319              		.loc 1 41 0
 320 0004 0820     		movs	r0, #8
 321              	.LVL21:
  40:src/Impl/adc_buffer.cpp ****     AdcData* dataPtr = new AdcData(value);
 322              		.loc 1 40 0
 323 0006 0D46     		mov	r5, r1
  41:src/Impl/adc_buffer.cpp ****     if (count == 0)
 324              		.loc 1 41 0
 325 0008 FFF7FEFF 		bl	_Znwj
 326              	.LVL22:
 327              	.LBB15:
 328              	.LBB16:
  93:src/Impl/adc_buffer.cpp **** {
 329              		.loc 1 93 0
 330 000c 0022     		movs	r2, #0
 331              	.LBE16:
 332              	.LBE15:
 333              	.LBB18:
  42:src/Impl/adc_buffer.cpp ****     {
 334              		.loc 1 42 0
 335 000e 6388     		ldrh	r3, [r4, #2]
 336              	.LBE18:
 337              	.LBB29:
 338              	.LBB17:
  93:src/Impl/adc_buffer.cpp **** {
 339              		.loc 1 93 0
 340 0010 0580     		strh	r5, [r0]	@ movhi
 341 0012 4260     		str	r2, [r0, #4]
 342              	.LVL23:
 343              	.LBE17:
 344              	.LBE29:
 345              	.LBB30:
  42:src/Impl/adc_buffer.cpp ****     {
 346              		.loc 1 42 0
 347 0014 43B1     		cbz	r3, .L32
 348              	.LBB19:
 349              	.LBB20:
  51:src/Impl/adc_buffer.cpp ****         {
 350              		.loc 1 51 0
 351 0016 2188     		ldrh	r1, [r4]
 352              	.LBE20:
  49:src/Impl/adc_buffer.cpp ****         lastPtr = dataPtr;
 353              		.loc 1 49 0
ARM GAS  /tmp/ccRuXkve.s 			page 9


 354 0018 A568     		ldr	r5, [r4, #8]
 355              	.LBB23:
  51:src/Impl/adc_buffer.cpp ****         {
 356              		.loc 1 51 0
 357 001a 9942     		cmp	r1, r3
 358              	.LBE23:
  49:src/Impl/adc_buffer.cpp ****         lastPtr = dataPtr;
 359              		.loc 1 49 0
 360 001c 6860     		str	r0, [r5, #4]
  50:src/Impl/adc_buffer.cpp ****         if (count == size)
 361              		.loc 1 50 0
 362 001e A060     		str	r0, [r4, #8]
 363              	.LBB24:
  51:src/Impl/adc_buffer.cpp ****         {
 364              		.loc 1 51 0
 365 0020 07D0     		beq	.L33
  60:src/Impl/adc_buffer.cpp ****         }
 366              		.loc 1 60 0
 367 0022 0133     		adds	r3, r3, #1
 368 0024 6380     		strh	r3, [r4, #2]	@ movhi
 369 0026 38BD     		pop	{r3, r4, r5, pc}
 370              	.LVL24:
 371              	.L32:
 372              	.LBE24:
 373              	.LBE19:
  45:src/Impl/adc_buffer.cpp ****     }
 374              		.loc 1 45 0
 375 0028 0123     		movs	r3, #1
  44:src/Impl/adc_buffer.cpp ****         count++;
 376              		.loc 1 44 0
 377 002a A060     		str	r0, [r4, #8]
 378 002c 6060     		str	r0, [r4, #4]
  45:src/Impl/adc_buffer.cpp ****     }
 379              		.loc 1 45 0
 380 002e 6380     		strh	r3, [r4, #2]	@ movhi
 381 0030 38BD     		pop	{r3, r4, r5, pc}
 382              	.LVL25:
 383              	.L33:
 384              	.LBB27:
 385              	.LBB25:
 386              	.LBB21:
  53:src/Impl/adc_buffer.cpp ****             firstPtr = firstPtr->nextPtr;
 387              		.loc 1 53 0
 388 0032 6568     		ldr	r5, [r4, #4]
 389              	.LVL26:
  54:src/Impl/adc_buffer.cpp ****             toDeletePtr->nextPtr = nullptr;
 390              		.loc 1 54 0
 391 0034 6B68     		ldr	r3, [r5, #4]
  56:src/Impl/adc_buffer.cpp ****         }
 392              		.loc 1 56 0
 393 0036 2846     		mov	r0, r5
 394              	.LVL27:
  54:src/Impl/adc_buffer.cpp ****             toDeletePtr->nextPtr = nullptr;
 395              		.loc 1 54 0
 396 0038 6360     		str	r3, [r4, #4]
  55:src/Impl/adc_buffer.cpp ****             delete toDeletePtr;
 397              		.loc 1 55 0
ARM GAS  /tmp/ccRuXkve.s 			page 10


 398 003a 6A60     		str	r2, [r5, #4]
  56:src/Impl/adc_buffer.cpp ****         }
 399              		.loc 1 56 0
 400 003c FFF7FEFF 		bl	_ZN9AdcBuffer7AdcDataD1Ev
 401              	.LVL28:
 402 0040 2846     		mov	r0, r5
 403              	.LBE21:
 404              	.LBE25:
 405              	.LBE27:
 406              	.LBE30:
  70:src/Impl/adc_buffer.cpp **** 
 407              		.loc 1 70 0
 408 0042 BDE83840 		pop	{r3, r4, r5, lr}
 409              		.cfi_restore 14
 410              		.cfi_restore 5
 411              		.cfi_restore 4
 412              		.cfi_restore 3
 413              		.cfi_def_cfa_offset 0
 414              	.LVL29:
 415              	.LBB31:
 416              	.LBB28:
 417              	.LBB26:
 418              	.LBB22:
  56:src/Impl/adc_buffer.cpp ****         }
 419              		.loc 1 56 0
 420 0046 FFF7FEBF 		b	_ZdlPv
 421              	.LVL30:
 422              	.LBE22:
 423              	.LBE26:
 424              	.LBE28:
 425              	.LBE31:
 426              		.cfi_endproc
 427              	.LFE11:
 429 004a 00BF     		.section	.text._ZN9AdcBuffer5resetEv,"ax",%progbits
 430              		.align	1
 431              		.p2align 2,,3
 432              		.global	_ZN9AdcBuffer5resetEv
 433              		.syntax unified
 434              		.thumb
 435              		.thumb_func
 436              		.fpu softvfp
 438              	_ZN9AdcBuffer5resetEv:
 439              	.LFB12:
  73:src/Impl/adc_buffer.cpp ****     if (firstPtr != nullptr)
 440              		.loc 1 73 0
 441              		.cfi_startproc
 442              		@ args = 0, pretend = 0, frame = 0
 443              		@ frame_needed = 0, uses_anonymous_args = 0
 444              	.LVL31:
 445 0000 38B5     		push	{r3, r4, r5, lr}
 446              		.cfi_def_cfa_offset 16
 447              		.cfi_offset 3, -16
 448              		.cfi_offset 4, -12
 449              		.cfi_offset 5, -8
 450              		.cfi_offset 14, -4
  74:src/Impl/adc_buffer.cpp ****         delete firstPtr;
 451              		.loc 1 74 0
ARM GAS  /tmp/ccRuXkve.s 			page 11


 452 0002 4568     		ldr	r5, [r0, #4]
  73:src/Impl/adc_buffer.cpp ****     if (firstPtr != nullptr)
 453              		.loc 1 73 0
 454 0004 0446     		mov	r4, r0
  74:src/Impl/adc_buffer.cpp ****         delete firstPtr;
 455              		.loc 1 74 0
 456 0006 2DB1     		cbz	r5, .L35
  75:src/Impl/adc_buffer.cpp **** 
 457              		.loc 1 75 0 discriminator 1
 458 0008 2846     		mov	r0, r5
 459              	.LVL32:
 460 000a FFF7FEFF 		bl	_ZN9AdcBuffer7AdcDataD1Ev
 461              	.LVL33:
 462 000e 2846     		mov	r0, r5
 463 0010 FFF7FEFF 		bl	_ZdlPv
 464              	.LVL34:
 465              	.L35:
  77:src/Impl/adc_buffer.cpp ****     count = 0;
 466              		.loc 1 77 0
 467 0014 0023     		movs	r3, #0
 468 0016 A360     		str	r3, [r4, #8]
 469 0018 6360     		str	r3, [r4, #4]
  78:src/Impl/adc_buffer.cpp **** }
 470              		.loc 1 78 0
 471 001a 6380     		strh	r3, [r4, #2]	@ movhi
 472 001c 38BD     		pop	{r3, r4, r5, pc}
 473              		.cfi_endproc
 474              	.LFE12:
 476 001e 00BF     		.section	.text._ZN9AdcBufferD2Ev,"ax",%progbits
 477              		.align	1
 478              		.p2align 2,,3
 479              		.global	_ZN9AdcBufferD2Ev
 480              		.syntax unified
 481              		.thumb
 482              		.thumb_func
 483              		.fpu softvfp
 485              	_ZN9AdcBufferD2Ev:
 486              	.LFB5:
  11:src/Impl/adc_buffer.cpp **** {
 487              		.loc 1 11 0
 488              		.cfi_startproc
 489              		@ args = 0, pretend = 0, frame = 0
 490              		@ frame_needed = 0, uses_anonymous_args = 0
 491              	.LVL35:
 492 0000 10B5     		push	{r4, lr}
 493              		.cfi_def_cfa_offset 8
 494              		.cfi_offset 4, -8
 495              		.cfi_offset 14, -4
  11:src/Impl/adc_buffer.cpp **** {
 496              		.loc 1 11 0
 497 0002 0446     		mov	r4, r0
 498              	.LBB32:
  13:src/Impl/adc_buffer.cpp **** }
 499              		.loc 1 13 0
 500 0004 FFF7FEFF 		bl	_ZN9AdcBuffer5resetEv
 501              	.LVL36:
 502              	.LBE32:
ARM GAS  /tmp/ccRuXkve.s 			page 12


  14:src/Impl/adc_buffer.cpp **** 
 503              		.loc 1 14 0
 504 0008 2046     		mov	r0, r4
 505 000a 10BD     		pop	{r4, pc}
 506              		.cfi_endproc
 507              	.LFE5:
 509              		.global	_ZN9AdcBufferD1Ev
 510              		.thumb_set _ZN9AdcBufferD1Ev,_ZN9AdcBufferD2Ev
 511              		.text
 512              	.Letext0:
 513              		.file 2 "/home/vdykyy/Install/STM-32/gcc-arm-none-eabi-6-2017-q2-update/arm-none-eabi/include/mach
 514              		.file 3 "/home/vdykyy/Install/STM-32/gcc-arm-none-eabi-6-2017-q2-update/arm-none-eabi/include/sys/
 515              		.file 4 "src/Impl/adc_buffer.h"
 516              		.file 5 "/home/vdykyy/Install/STM-32/gcc-arm-none-eabi-6-2017-q2-update/arm-none-eabi/include/sys/
 517              		.file 6 "/home/vdykyy/Install/STM-32/gcc-arm-none-eabi-6-2017-q2-update/arm-none-eabi/include/sys/
 518              		.file 7 "/home/vdykyy/Install/STM-32/gcc-arm-none-eabi-6-2017-q2-update/lib/gcc/arm-none-eabi/6.3.
 519              		.file 8 "/home/vdykyy/Install/STM-32/gcc-arm-none-eabi-6-2017-q2-update/arm-none-eabi/include/sys/
ARM GAS  /tmp/ccRuXkve.s 			page 13

