ARM GAS  /tmp/ccni6OXp.s 			page 1


   1              		.cpu cortex-m3
   2              		.eabi_attribute 20, 1
   3              		.eabi_attribute 21, 1
   4              		.eabi_attribute 23, 3
   5              		.eabi_attribute 24, 1
   6              		.eabi_attribute 25, 1
   7              		.eabi_attribute 26, 1
   8              		.eabi_attribute 30, 2
   9              		.eabi_attribute 34, 1
  10              		.eabi_attribute 18, 4
  11              		.file	"cardiograph.cpp"
  12              		.text
  13              	.Ltext0:
  14              		.cfi_sections	.debug_frame
  15              		.section	.text._ZN11CardiographC2Ev,"ax",%progbits
  16              		.align	1
  17              		.p2align 2,,3
  18              		.global	_ZN11CardiographC2Ev
  19              		.syntax unified
  20              		.thumb
  21              		.thumb_func
  22              		.fpu softvfp
  24              	_ZN11CardiographC2Ev:
  25              	.LFB652:
  26              		.file 1 "src/Impl/cardiograph.cpp"
   1:src/Impl/cardiograph.cpp **** #include "cardiograph.h"
   2:src/Impl/cardiograph.cpp **** #include "usart.h"
   3:src/Impl/cardiograph.cpp **** #include "tim.h"
   4:src/Impl/cardiograph.cpp **** #include "adc.h"
   5:src/Impl/cardiograph.cpp **** 
   6:src/Impl/cardiograph.cpp **** Cardiograph::Cardiograph() : isUartTxBusy(false),
  27              		.loc 1 6 0
  28              		.cfi_startproc
  29              		@ args = 0, pretend = 0, frame = 0
  30              		@ frame_needed = 0, uses_anonymous_args = 0
  31              	.LVL0:
  32 0000 F8B5     		push	{r3, r4, r5, r6, r7, lr}
  33              		.cfi_def_cfa_offset 24
  34              		.cfi_offset 3, -24
  35              		.cfi_offset 4, -20
  36              		.cfi_offset 5, -16
  37              		.cfi_offset 6, -12
  38              		.cfi_offset 7, -8
  39              		.cfi_offset 14, -4
  40              	.LBB323:
   7:src/Impl/cardiograph.cpp ****                              pendingBlocks(0),
   8:src/Impl/cardiograph.cpp ****                              uartBuffer(new uint8_t[UART_BUFFER_MAX_SIZE]{0}),
   9:src/Impl/cardiograph.cpp ****                              uartTxBuffer(nullptr),
  10:src/Impl/cardiograph.cpp ****                              adcConversionBuffer(new uint32_t[ADC_CONVERSIONS_MAX_COUNT]{0}),
  11:src/Impl/cardiograph.cpp ****                              adcBuffer(nullptr),
  12:src/Impl/cardiograph.cpp ****                              settings(new Settings()),
  13:src/Impl/cardiograph.cpp ****                              uartTxQueue(new std::list<UartTxData*>())
  41              		.loc 1 13 0
  42 0002 0025     		movs	r5, #0
  43              	.LBE323:
   6:src/Impl/cardiograph.cpp ****                              pendingBlocks(0),
  44              		.loc 1 6 0
ARM GAS  /tmp/ccni6OXp.s 			page 2


  45 0004 0646     		mov	r6, r0
  46              	.LBB342:
   8:src/Impl/cardiograph.cpp ****                              uartTxBuffer(nullptr),
  47              		.loc 1 8 0
  48 0006 0520     		movs	r0, #5
  49              	.LVL1:
  50              		.loc 1 13 0
  51 0008 3570     		strb	r5, [r6]
  52 000a 7570     		strb	r5, [r6, #1]
   8:src/Impl/cardiograph.cpp ****                              uartTxBuffer(nullptr),
  53              		.loc 1 8 0
  54 000c FFF7FEFF 		bl	_Znaj
  55              	.LVL2:
  56 0010 0346     		mov	r3, r0
  57              		.loc 1 13 0
  58 0012 7060     		str	r0, [r6, #4]
   8:src/Impl/cardiograph.cpp ****                              uartTxBuffer(nullptr),
  59              		.loc 1 8 0
  60 0014 1D70     		strb	r5, [r3]
  61 0016 5D70     		strb	r5, [r3, #1]
  62 0018 9D70     		strb	r5, [r3, #2]
  63 001a DD70     		strb	r5, [r3, #3]
  64 001c 1D71     		strb	r5, [r3, #4]
  65              		.loc 1 13 0
  66 001e B560     		str	r5, [r6, #8]
  10:src/Impl/cardiograph.cpp ****                              adcBuffer(nullptr),
  67              		.loc 1 10 0
  68 0020 2820     		movs	r0, #40
  69 0022 FFF7FEFF 		bl	_Znaj
  70              	.LVL3:
  71 0026 0346     		mov	r3, r0
  72 0028 2C46     		mov	r4, r5
  73 002a 43F8045B 		str	r5, [r3], #4
  74 002e 00F12802 		add	r2, r0, #40
  75              	.L2:
  10:src/Impl/cardiograph.cpp ****                              adcBuffer(nullptr),
  76              		.loc 1 10 0 is_stmt 0 discriminator 2
  77 0032 43F8044B 		str	r4, [r3], #4
  78 0036 9342     		cmp	r3, r2
  79 0038 FBD1     		bne	.L2
  80              		.loc 1 13 0 is_stmt 1
  81 003a F060     		str	r0, [r6, #12]
  82 003c 3461     		str	r4, [r6, #16]
  12:src/Impl/cardiograph.cpp ****                              uartTxQueue(new std::list<UartTxData*>())
  83              		.loc 1 12 0
  84 003e 0A20     		movs	r0, #10
  85 0040 FFF7FEFF 		bl	_Znwj
  86              	.LVL4:
  87              	.LBB324:
  88              	.LBB325:
  89              		.file 2 "src/Impl/cardiograph.h"
   1:src/Impl/cardiograph.h **** #ifndef _CARDIOGRAPH_H_VDYKYY_
   2:src/Impl/cardiograph.h **** #define _CARDIOGRAPH_H_VDYKYY_
   3:src/Impl/cardiograph.h **** #include <sys/_stdint.h>
   4:src/Impl/cardiograph.h **** #include "adc_buffer.h"
   5:src/Impl/cardiograph.h **** #include <list>
   6:src/Impl/cardiograph.h **** #include <stdio.h>
ARM GAS  /tmp/ccni6OXp.s 			page 3


   7:src/Impl/cardiograph.h **** 
   8:src/Impl/cardiograph.h **** class Cardiograph
   9:src/Impl/cardiograph.h **** {
  10:src/Impl/cardiograph.h **** 
  11:src/Impl/cardiograph.h **** public:
  12:src/Impl/cardiograph.h ****     Cardiograph();
  13:src/Impl/cardiograph.h ****     ~Cardiograph();
  14:src/Impl/cardiograph.h ****     void init();
  15:src/Impl/cardiograph.h ****     void uartRxHandler();
  16:src/Impl/cardiograph.h ****     void uartTxHandler();
  17:src/Impl/cardiograph.h ****     void adcConversionHandler();
  18:src/Impl/cardiograph.h ****     void timerPeriodElapsedHandler();
  19:src/Impl/cardiograph.h **** 
  20:src/Impl/cardiograph.h **** private:
  21:src/Impl/cardiograph.h ****     static const constexpr uint8_t UART_RX_CMD_LEN = 4;
  22:src/Impl/cardiograph.h ****     static const constexpr uint16_t UART_BUFFER_MAX_SIZE = 5;
  23:src/Impl/cardiograph.h ****     static const constexpr uint8_t ADC_CONVERSIONS_MAX_COUNT = 10;
  24:src/Impl/cardiograph.h **** 
  25:src/Impl/cardiograph.h ****     enum UartCommandRequest
  26:src/Impl/cardiograph.h ****     {
  27:src/Impl/cardiograph.h ****         SET_TIME            = 0xC0,
  28:src/Impl/cardiograph.h ****         GET_TIME            = 0xC1,
  29:src/Impl/cardiograph.h ****         SET_SAMPLES         = 0xC2,
  30:src/Impl/cardiograph.h ****         GET_SAMPLES         = 0xC3,
  31:src/Impl/cardiograph.h ****         REQUEST_DATA        = 0xC4
  32:src/Impl/cardiograph.h ****     };
  33:src/Impl/cardiograph.h **** 
  34:src/Impl/cardiograph.h ****     enum UartCommandResponse
  35:src/Impl/cardiograph.h ****     {
  36:src/Impl/cardiograph.h ****         CMD_OK      = 0xF0D0,
  37:src/Impl/cardiograph.h ****         CMD_BUSY    = 0xF0FE,
  38:src/Impl/cardiograph.h ****         CMD_ERROR   = 0xF0FF
  39:src/Impl/cardiograph.h ****     };
  40:src/Impl/cardiograph.h **** 
  41:src/Impl/cardiograph.h ****     struct Settings
  42:src/Impl/cardiograph.h ****     {
  43:src/Impl/cardiograph.h ****         Settings()
  44:src/Impl/cardiograph.h ****         {
  90              		.loc 2 44 0
  91 0044 8027     		movs	r7, #128
  92              	.LBE325:
  93              	.LBE324:
  12:src/Impl/cardiograph.cpp ****                              uartTxQueue(new std::list<UartTxData*>())
  94              		.loc 1 12 0
  95 0046 0546     		mov	r5, r0
  96              	.LVL5:
  97              	.LBB335:
  98              	.LBB334:
  99              	.LBB326:
 100              	.LBB327:
  45:src/Impl/cardiograph.h ****             updatePeriod();
  46:src/Impl/cardiograph.h ****         }
  47:src/Impl/cardiograph.h **** 
  48:src/Impl/cardiograph.h ****         void updatePeriod()
  49:src/Impl/cardiograph.h ****         {
  50:src/Impl/cardiograph.h ****             period = time * 1000 / samples - 1;
 101              		.loc 2 50 0
ARM GAS  /tmp/ccni6OXp.s 			page 4


 102 0048 40F28513 		movw	r3, #389
 103              	.LBE327:
 104              	.LBE326:
  44:src/Impl/cardiograph.h ****             updatePeriod();
 105              		.loc 2 44 0
 106 004c 0122     		movs	r2, #1
 107 004e 3221     		movs	r1, #50
 108 0050 4820     		movs	r0, #72
 109              	.LVL6:
 110              	.LBB331:
 111              	.LBB328:
 112              		.loc 2 50 0
 113 0052 2B81     		strh	r3, [r5, #8]	@ movhi
 114              	.LBE328:
 115              	.LBE331:
  44:src/Impl/cardiograph.h ****             updatePeriod();
 116              		.loc 2 44 0
 117 0054 2980     		strh	r1, [r5]	@ movhi
 118 0056 6880     		strh	r0, [r5, #2]	@ movhi
 119              	.LBB332:
 120              	.LBB329:
  51:src/Impl/cardiograph.h ****             printf("updatePeriod: %u\n", period);
 121              		.loc 2 51 0
 122 0058 1946     		mov	r1, r3
 123              	.LBE329:
 124              	.LBE332:
  44:src/Impl/cardiograph.h ****             updatePeriod();
 125              		.loc 2 44 0
 126 005a AA71     		strb	r2, [r5, #6]
 127              	.LVL7:
 128 005c AF80     		strh	r7, [r5, #4]	@ movhi
 129              	.LBB333:
 130              	.LBB330:
 131              		.loc 2 51 0
 132 005e 0748     		ldr	r0, .L6
 133 0060 FFF7FEFF 		bl	printf
 134              	.LVL8:
 135              	.LBE330:
 136              	.LBE333:
 137              	.LBE334:
 138              	.LBE335:
 139              		.loc 1 13 0
 140 0064 7561     		str	r5, [r6, #20]
 141 0066 0C20     		movs	r0, #12
 142 0068 FFF7FEFF 		bl	_Znwj
 143              	.LVL9:
 144 006c 0346     		mov	r3, r0
 145              	.LVL10:
 146              	.LBE342:
  14:src/Impl/cardiograph.cpp **** {
  15:src/Impl/cardiograph.cpp **** 
  16:src/Impl/cardiograph.cpp **** }
 147              		.loc 1 16 0
 148 006e 3046     		mov	r0, r6
 149              	.LVL11:
 150              	.LBB343:
 151              	.LBB336:
ARM GAS  /tmp/ccni6OXp.s 			page 5


 152              	.LBB337:
 153              	.LBB338:
 154              	.LBB339:
 155              		.file 3 "/home/vdykyy/Install/STM-32/gcc-arm-none-eabi-6-2017-q2-update/arm-none-eabi/include/c++/
   1:/home/vdykyy/Install/STM-32/gcc-arm-none-eabi-6-2017-q2-update/arm-none-eabi/include/c++/6.3.1/bits/stl_list.h **** // List implementation -*- C++ -*-
   2:/home/vdykyy/Install/STM-32/gcc-arm-none-eabi-6-2017-q2-update/arm-none-eabi/include/c++/6.3.1/bits/stl_list.h **** 
   3:/home/vdykyy/Install/STM-32/gcc-arm-none-eabi-6-2017-q2-update/arm-none-eabi/include/c++/6.3.1/bits/stl_list.h **** // Copyright (C) 2001-2016 Free Software Foundation, Inc.
   4:/home/vdykyy/Install/STM-32/gcc-arm-none-eabi-6-2017-q2-update/arm-none-eabi/include/c++/6.3.1/bits/stl_list.h **** //
   5:/home/vdykyy/Install/STM-32/gcc-arm-none-eabi-6-2017-q2-update/arm-none-eabi/include/c++/6.3.1/bits/stl_list.h **** // This file is part of the GNU ISO C++ Library.  This library is free
   6:/home/vdykyy/Install/STM-32/gcc-arm-none-eabi-6-2017-q2-update/arm-none-eabi/include/c++/6.3.1/bits/stl_list.h **** // software; you can redistribute it and/or modify it under the
   7:/home/vdykyy/Install/STM-32/gcc-arm-none-eabi-6-2017-q2-update/arm-none-eabi/include/c++/6.3.1/bits/stl_list.h **** // terms of the GNU General Public License as published by the
   8:/home/vdykyy/Install/STM-32/gcc-arm-none-eabi-6-2017-q2-update/arm-none-eabi/include/c++/6.3.1/bits/stl_list.h **** // Free Software Foundation; either version 3, or (at your option)
   9:/home/vdykyy/Install/STM-32/gcc-arm-none-eabi-6-2017-q2-update/arm-none-eabi/include/c++/6.3.1/bits/stl_list.h **** // any later version.
  10:/home/vdykyy/Install/STM-32/gcc-arm-none-eabi-6-2017-q2-update/arm-none-eabi/include/c++/6.3.1/bits/stl_list.h **** 
  11:/home/vdykyy/Install/STM-32/gcc-arm-none-eabi-6-2017-q2-update/arm-none-eabi/include/c++/6.3.1/bits/stl_list.h **** // This library is distributed in the hope that it will be useful,
  12:/home/vdykyy/Install/STM-32/gcc-arm-none-eabi-6-2017-q2-update/arm-none-eabi/include/c++/6.3.1/bits/stl_list.h **** // but WITHOUT ANY WARRANTY; without even the implied warranty of
  13:/home/vdykyy/Install/STM-32/gcc-arm-none-eabi-6-2017-q2-update/arm-none-eabi/include/c++/6.3.1/bits/stl_list.h **** // MERCHANTABILITY or FITNESS FOR A PARTICULAR PURPOSE.  See the
  14:/home/vdykyy/Install/STM-32/gcc-arm-none-eabi-6-2017-q2-update/arm-none-eabi/include/c++/6.3.1/bits/stl_list.h **** // GNU General Public License for more details.
  15:/home/vdykyy/Install/STM-32/gcc-arm-none-eabi-6-2017-q2-update/arm-none-eabi/include/c++/6.3.1/bits/stl_list.h **** 
  16:/home/vdykyy/Install/STM-32/gcc-arm-none-eabi-6-2017-q2-update/arm-none-eabi/include/c++/6.3.1/bits/stl_list.h **** // Under Section 7 of GPL version 3, you are granted additional
  17:/home/vdykyy/Install/STM-32/gcc-arm-none-eabi-6-2017-q2-update/arm-none-eabi/include/c++/6.3.1/bits/stl_list.h **** // permissions described in the GCC Runtime Library Exception, version
  18:/home/vdykyy/Install/STM-32/gcc-arm-none-eabi-6-2017-q2-update/arm-none-eabi/include/c++/6.3.1/bits/stl_list.h **** // 3.1, as published by the Free Software Foundation.
  19:/home/vdykyy/Install/STM-32/gcc-arm-none-eabi-6-2017-q2-update/arm-none-eabi/include/c++/6.3.1/bits/stl_list.h **** 
  20:/home/vdykyy/Install/STM-32/gcc-arm-none-eabi-6-2017-q2-update/arm-none-eabi/include/c++/6.3.1/bits/stl_list.h **** // You should have received a copy of the GNU General Public License and
  21:/home/vdykyy/Install/STM-32/gcc-arm-none-eabi-6-2017-q2-update/arm-none-eabi/include/c++/6.3.1/bits/stl_list.h **** // a copy of the GCC Runtime Library Exception along with this program;
  22:/home/vdykyy/Install/STM-32/gcc-arm-none-eabi-6-2017-q2-update/arm-none-eabi/include/c++/6.3.1/bits/stl_list.h **** // see the files COPYING3 and COPYING.RUNTIME respectively.  If not, see
  23:/home/vdykyy/Install/STM-32/gcc-arm-none-eabi-6-2017-q2-update/arm-none-eabi/include/c++/6.3.1/bits/stl_list.h **** // <http://www.gnu.org/licenses/>.
  24:/home/vdykyy/Install/STM-32/gcc-arm-none-eabi-6-2017-q2-update/arm-none-eabi/include/c++/6.3.1/bits/stl_list.h **** 
  25:/home/vdykyy/Install/STM-32/gcc-arm-none-eabi-6-2017-q2-update/arm-none-eabi/include/c++/6.3.1/bits/stl_list.h **** /*
  26:/home/vdykyy/Install/STM-32/gcc-arm-none-eabi-6-2017-q2-update/arm-none-eabi/include/c++/6.3.1/bits/stl_list.h ****  *
  27:/home/vdykyy/Install/STM-32/gcc-arm-none-eabi-6-2017-q2-update/arm-none-eabi/include/c++/6.3.1/bits/stl_list.h ****  * Copyright (c) 1994
  28:/home/vdykyy/Install/STM-32/gcc-arm-none-eabi-6-2017-q2-update/arm-none-eabi/include/c++/6.3.1/bits/stl_list.h ****  * Hewlett-Packard Company
  29:/home/vdykyy/Install/STM-32/gcc-arm-none-eabi-6-2017-q2-update/arm-none-eabi/include/c++/6.3.1/bits/stl_list.h ****  *
  30:/home/vdykyy/Install/STM-32/gcc-arm-none-eabi-6-2017-q2-update/arm-none-eabi/include/c++/6.3.1/bits/stl_list.h ****  * Permission to use, copy, modify, distribute and sell this software
  31:/home/vdykyy/Install/STM-32/gcc-arm-none-eabi-6-2017-q2-update/arm-none-eabi/include/c++/6.3.1/bits/stl_list.h ****  * and its documentation for any purpose is hereby granted without fee,
  32:/home/vdykyy/Install/STM-32/gcc-arm-none-eabi-6-2017-q2-update/arm-none-eabi/include/c++/6.3.1/bits/stl_list.h ****  * provided that the above copyright notice appear in all copies and
  33:/home/vdykyy/Install/STM-32/gcc-arm-none-eabi-6-2017-q2-update/arm-none-eabi/include/c++/6.3.1/bits/stl_list.h ****  * that both that copyright notice and this permission notice appear
  34:/home/vdykyy/Install/STM-32/gcc-arm-none-eabi-6-2017-q2-update/arm-none-eabi/include/c++/6.3.1/bits/stl_list.h ****  * in supporting documentation.  Hewlett-Packard Company makes no
  35:/home/vdykyy/Install/STM-32/gcc-arm-none-eabi-6-2017-q2-update/arm-none-eabi/include/c++/6.3.1/bits/stl_list.h ****  * representations about the suitability of this software for any
  36:/home/vdykyy/Install/STM-32/gcc-arm-none-eabi-6-2017-q2-update/arm-none-eabi/include/c++/6.3.1/bits/stl_list.h ****  * purpose.  It is provided "as is" without express or implied warranty.
  37:/home/vdykyy/Install/STM-32/gcc-arm-none-eabi-6-2017-q2-update/arm-none-eabi/include/c++/6.3.1/bits/stl_list.h ****  *
  38:/home/vdykyy/Install/STM-32/gcc-arm-none-eabi-6-2017-q2-update/arm-none-eabi/include/c++/6.3.1/bits/stl_list.h ****  *
  39:/home/vdykyy/Install/STM-32/gcc-arm-none-eabi-6-2017-q2-update/arm-none-eabi/include/c++/6.3.1/bits/stl_list.h ****  * Copyright (c) 1996,1997
  40:/home/vdykyy/Install/STM-32/gcc-arm-none-eabi-6-2017-q2-update/arm-none-eabi/include/c++/6.3.1/bits/stl_list.h ****  * Silicon Graphics Computer Systems, Inc.
  41:/home/vdykyy/Install/STM-32/gcc-arm-none-eabi-6-2017-q2-update/arm-none-eabi/include/c++/6.3.1/bits/stl_list.h ****  *
  42:/home/vdykyy/Install/STM-32/gcc-arm-none-eabi-6-2017-q2-update/arm-none-eabi/include/c++/6.3.1/bits/stl_list.h ****  * Permission to use, copy, modify, distribute and sell this software
  43:/home/vdykyy/Install/STM-32/gcc-arm-none-eabi-6-2017-q2-update/arm-none-eabi/include/c++/6.3.1/bits/stl_list.h ****  * and its documentation for any purpose is hereby granted without fee,
  44:/home/vdykyy/Install/STM-32/gcc-arm-none-eabi-6-2017-q2-update/arm-none-eabi/include/c++/6.3.1/bits/stl_list.h ****  * provided that the above copyright notice appear in all copies and
  45:/home/vdykyy/Install/STM-32/gcc-arm-none-eabi-6-2017-q2-update/arm-none-eabi/include/c++/6.3.1/bits/stl_list.h ****  * that both that copyright notice and this permission notice appear
  46:/home/vdykyy/Install/STM-32/gcc-arm-none-eabi-6-2017-q2-update/arm-none-eabi/include/c++/6.3.1/bits/stl_list.h ****  * in supporting documentation.  Silicon Graphics makes no
  47:/home/vdykyy/Install/STM-32/gcc-arm-none-eabi-6-2017-q2-update/arm-none-eabi/include/c++/6.3.1/bits/stl_list.h ****  * representations about the suitability of this software for any
  48:/home/vdykyy/Install/STM-32/gcc-arm-none-eabi-6-2017-q2-update/arm-none-eabi/include/c++/6.3.1/bits/stl_list.h ****  * purpose.  It is provided "as is" without express or implied warranty.
  49:/home/vdykyy/Install/STM-32/gcc-arm-none-eabi-6-2017-q2-update/arm-none-eabi/include/c++/6.3.1/bits/stl_list.h ****  */
  50:/home/vdykyy/Install/STM-32/gcc-arm-none-eabi-6-2017-q2-update/arm-none-eabi/include/c++/6.3.1/bits/stl_list.h **** 
  51:/home/vdykyy/Install/STM-32/gcc-arm-none-eabi-6-2017-q2-update/arm-none-eabi/include/c++/6.3.1/bits/stl_list.h **** /** @file bits/stl_list.h
  52:/home/vdykyy/Install/STM-32/gcc-arm-none-eabi-6-2017-q2-update/arm-none-eabi/include/c++/6.3.1/bits/stl_list.h ****  *  This is an internal header file, included by other library headers.
  53:/home/vdykyy/Install/STM-32/gcc-arm-none-eabi-6-2017-q2-update/arm-none-eabi/include/c++/6.3.1/bits/stl_list.h ****  *  Do not attempt to use it directly. @headername{list}
ARM GAS  /tmp/ccni6OXp.s 			page 6


  54:/home/vdykyy/Install/STM-32/gcc-arm-none-eabi-6-2017-q2-update/arm-none-eabi/include/c++/6.3.1/bits/stl_list.h ****  */
  55:/home/vdykyy/Install/STM-32/gcc-arm-none-eabi-6-2017-q2-update/arm-none-eabi/include/c++/6.3.1/bits/stl_list.h **** 
  56:/home/vdykyy/Install/STM-32/gcc-arm-none-eabi-6-2017-q2-update/arm-none-eabi/include/c++/6.3.1/bits/stl_list.h **** #ifndef _STL_LIST_H
  57:/home/vdykyy/Install/STM-32/gcc-arm-none-eabi-6-2017-q2-update/arm-none-eabi/include/c++/6.3.1/bits/stl_list.h **** #define _STL_LIST_H 1
  58:/home/vdykyy/Install/STM-32/gcc-arm-none-eabi-6-2017-q2-update/arm-none-eabi/include/c++/6.3.1/bits/stl_list.h **** 
  59:/home/vdykyy/Install/STM-32/gcc-arm-none-eabi-6-2017-q2-update/arm-none-eabi/include/c++/6.3.1/bits/stl_list.h **** #include <bits/concept_check.h>
  60:/home/vdykyy/Install/STM-32/gcc-arm-none-eabi-6-2017-q2-update/arm-none-eabi/include/c++/6.3.1/bits/stl_list.h **** #include <ext/alloc_traits.h>
  61:/home/vdykyy/Install/STM-32/gcc-arm-none-eabi-6-2017-q2-update/arm-none-eabi/include/c++/6.3.1/bits/stl_list.h **** #if __cplusplus >= 201103L
  62:/home/vdykyy/Install/STM-32/gcc-arm-none-eabi-6-2017-q2-update/arm-none-eabi/include/c++/6.3.1/bits/stl_list.h **** #include <initializer_list>
  63:/home/vdykyy/Install/STM-32/gcc-arm-none-eabi-6-2017-q2-update/arm-none-eabi/include/c++/6.3.1/bits/stl_list.h **** #include <bits/allocated_ptr.h>
  64:/home/vdykyy/Install/STM-32/gcc-arm-none-eabi-6-2017-q2-update/arm-none-eabi/include/c++/6.3.1/bits/stl_list.h **** #include <ext/aligned_buffer.h>
  65:/home/vdykyy/Install/STM-32/gcc-arm-none-eabi-6-2017-q2-update/arm-none-eabi/include/c++/6.3.1/bits/stl_list.h **** #endif
  66:/home/vdykyy/Install/STM-32/gcc-arm-none-eabi-6-2017-q2-update/arm-none-eabi/include/c++/6.3.1/bits/stl_list.h **** 
  67:/home/vdykyy/Install/STM-32/gcc-arm-none-eabi-6-2017-q2-update/arm-none-eabi/include/c++/6.3.1/bits/stl_list.h **** namespace std _GLIBCXX_VISIBILITY(default)
  68:/home/vdykyy/Install/STM-32/gcc-arm-none-eabi-6-2017-q2-update/arm-none-eabi/include/c++/6.3.1/bits/stl_list.h **** {
  69:/home/vdykyy/Install/STM-32/gcc-arm-none-eabi-6-2017-q2-update/arm-none-eabi/include/c++/6.3.1/bits/stl_list.h ****   namespace __detail
  70:/home/vdykyy/Install/STM-32/gcc-arm-none-eabi-6-2017-q2-update/arm-none-eabi/include/c++/6.3.1/bits/stl_list.h ****   {
  71:/home/vdykyy/Install/STM-32/gcc-arm-none-eabi-6-2017-q2-update/arm-none-eabi/include/c++/6.3.1/bits/stl_list.h ****   _GLIBCXX_BEGIN_NAMESPACE_VERSION
  72:/home/vdykyy/Install/STM-32/gcc-arm-none-eabi-6-2017-q2-update/arm-none-eabi/include/c++/6.3.1/bits/stl_list.h **** 
  73:/home/vdykyy/Install/STM-32/gcc-arm-none-eabi-6-2017-q2-update/arm-none-eabi/include/c++/6.3.1/bits/stl_list.h ****     // Supporting structures are split into common and templated
  74:/home/vdykyy/Install/STM-32/gcc-arm-none-eabi-6-2017-q2-update/arm-none-eabi/include/c++/6.3.1/bits/stl_list.h ****     // types; the latter publicly inherits from the former in an
  75:/home/vdykyy/Install/STM-32/gcc-arm-none-eabi-6-2017-q2-update/arm-none-eabi/include/c++/6.3.1/bits/stl_list.h ****     // effort to reduce code duplication.  This results in some
  76:/home/vdykyy/Install/STM-32/gcc-arm-none-eabi-6-2017-q2-update/arm-none-eabi/include/c++/6.3.1/bits/stl_list.h ****     // "needless" static_cast'ing later on, but it's all safe
  77:/home/vdykyy/Install/STM-32/gcc-arm-none-eabi-6-2017-q2-update/arm-none-eabi/include/c++/6.3.1/bits/stl_list.h ****     // downcasting.
  78:/home/vdykyy/Install/STM-32/gcc-arm-none-eabi-6-2017-q2-update/arm-none-eabi/include/c++/6.3.1/bits/stl_list.h **** 
  79:/home/vdykyy/Install/STM-32/gcc-arm-none-eabi-6-2017-q2-update/arm-none-eabi/include/c++/6.3.1/bits/stl_list.h ****     /// Common part of a node in the %list. 
  80:/home/vdykyy/Install/STM-32/gcc-arm-none-eabi-6-2017-q2-update/arm-none-eabi/include/c++/6.3.1/bits/stl_list.h ****     struct _List_node_base
  81:/home/vdykyy/Install/STM-32/gcc-arm-none-eabi-6-2017-q2-update/arm-none-eabi/include/c++/6.3.1/bits/stl_list.h ****     {
  82:/home/vdykyy/Install/STM-32/gcc-arm-none-eabi-6-2017-q2-update/arm-none-eabi/include/c++/6.3.1/bits/stl_list.h ****       _List_node_base* _M_next;
  83:/home/vdykyy/Install/STM-32/gcc-arm-none-eabi-6-2017-q2-update/arm-none-eabi/include/c++/6.3.1/bits/stl_list.h ****       _List_node_base* _M_prev;
  84:/home/vdykyy/Install/STM-32/gcc-arm-none-eabi-6-2017-q2-update/arm-none-eabi/include/c++/6.3.1/bits/stl_list.h **** 
  85:/home/vdykyy/Install/STM-32/gcc-arm-none-eabi-6-2017-q2-update/arm-none-eabi/include/c++/6.3.1/bits/stl_list.h ****       static void
  86:/home/vdykyy/Install/STM-32/gcc-arm-none-eabi-6-2017-q2-update/arm-none-eabi/include/c++/6.3.1/bits/stl_list.h ****       swap(_List_node_base& __x, _List_node_base& __y) _GLIBCXX_USE_NOEXCEPT;
  87:/home/vdykyy/Install/STM-32/gcc-arm-none-eabi-6-2017-q2-update/arm-none-eabi/include/c++/6.3.1/bits/stl_list.h **** 
  88:/home/vdykyy/Install/STM-32/gcc-arm-none-eabi-6-2017-q2-update/arm-none-eabi/include/c++/6.3.1/bits/stl_list.h ****       void
  89:/home/vdykyy/Install/STM-32/gcc-arm-none-eabi-6-2017-q2-update/arm-none-eabi/include/c++/6.3.1/bits/stl_list.h ****       _M_transfer(_List_node_base* const __first,
  90:/home/vdykyy/Install/STM-32/gcc-arm-none-eabi-6-2017-q2-update/arm-none-eabi/include/c++/6.3.1/bits/stl_list.h **** 		  _List_node_base* const __last) _GLIBCXX_USE_NOEXCEPT;
  91:/home/vdykyy/Install/STM-32/gcc-arm-none-eabi-6-2017-q2-update/arm-none-eabi/include/c++/6.3.1/bits/stl_list.h **** 
  92:/home/vdykyy/Install/STM-32/gcc-arm-none-eabi-6-2017-q2-update/arm-none-eabi/include/c++/6.3.1/bits/stl_list.h ****       void
  93:/home/vdykyy/Install/STM-32/gcc-arm-none-eabi-6-2017-q2-update/arm-none-eabi/include/c++/6.3.1/bits/stl_list.h ****       _M_reverse() _GLIBCXX_USE_NOEXCEPT;
  94:/home/vdykyy/Install/STM-32/gcc-arm-none-eabi-6-2017-q2-update/arm-none-eabi/include/c++/6.3.1/bits/stl_list.h **** 
  95:/home/vdykyy/Install/STM-32/gcc-arm-none-eabi-6-2017-q2-update/arm-none-eabi/include/c++/6.3.1/bits/stl_list.h ****       void
  96:/home/vdykyy/Install/STM-32/gcc-arm-none-eabi-6-2017-q2-update/arm-none-eabi/include/c++/6.3.1/bits/stl_list.h ****       _M_hook(_List_node_base* const __position) _GLIBCXX_USE_NOEXCEPT;
  97:/home/vdykyy/Install/STM-32/gcc-arm-none-eabi-6-2017-q2-update/arm-none-eabi/include/c++/6.3.1/bits/stl_list.h **** 
  98:/home/vdykyy/Install/STM-32/gcc-arm-none-eabi-6-2017-q2-update/arm-none-eabi/include/c++/6.3.1/bits/stl_list.h ****       void
  99:/home/vdykyy/Install/STM-32/gcc-arm-none-eabi-6-2017-q2-update/arm-none-eabi/include/c++/6.3.1/bits/stl_list.h ****       _M_unhook() _GLIBCXX_USE_NOEXCEPT;
 100:/home/vdykyy/Install/STM-32/gcc-arm-none-eabi-6-2017-q2-update/arm-none-eabi/include/c++/6.3.1/bits/stl_list.h ****     };
 101:/home/vdykyy/Install/STM-32/gcc-arm-none-eabi-6-2017-q2-update/arm-none-eabi/include/c++/6.3.1/bits/stl_list.h **** 
 102:/home/vdykyy/Install/STM-32/gcc-arm-none-eabi-6-2017-q2-update/arm-none-eabi/include/c++/6.3.1/bits/stl_list.h ****   _GLIBCXX_END_NAMESPACE_VERSION
 103:/home/vdykyy/Install/STM-32/gcc-arm-none-eabi-6-2017-q2-update/arm-none-eabi/include/c++/6.3.1/bits/stl_list.h ****   } // namespace detail
 104:/home/vdykyy/Install/STM-32/gcc-arm-none-eabi-6-2017-q2-update/arm-none-eabi/include/c++/6.3.1/bits/stl_list.h **** 
 105:/home/vdykyy/Install/STM-32/gcc-arm-none-eabi-6-2017-q2-update/arm-none-eabi/include/c++/6.3.1/bits/stl_list.h **** _GLIBCXX_BEGIN_NAMESPACE_CONTAINER
 106:/home/vdykyy/Install/STM-32/gcc-arm-none-eabi-6-2017-q2-update/arm-none-eabi/include/c++/6.3.1/bits/stl_list.h **** 
 107:/home/vdykyy/Install/STM-32/gcc-arm-none-eabi-6-2017-q2-update/arm-none-eabi/include/c++/6.3.1/bits/stl_list.h ****   /// An actual node in the %list.
 108:/home/vdykyy/Install/STM-32/gcc-arm-none-eabi-6-2017-q2-update/arm-none-eabi/include/c++/6.3.1/bits/stl_list.h ****   template<typename _Tp>
 109:/home/vdykyy/Install/STM-32/gcc-arm-none-eabi-6-2017-q2-update/arm-none-eabi/include/c++/6.3.1/bits/stl_list.h ****     struct _List_node : public __detail::_List_node_base
 110:/home/vdykyy/Install/STM-32/gcc-arm-none-eabi-6-2017-q2-update/arm-none-eabi/include/c++/6.3.1/bits/stl_list.h ****     {
ARM GAS  /tmp/ccni6OXp.s 			page 7


 111:/home/vdykyy/Install/STM-32/gcc-arm-none-eabi-6-2017-q2-update/arm-none-eabi/include/c++/6.3.1/bits/stl_list.h **** #if __cplusplus >= 201103L
 112:/home/vdykyy/Install/STM-32/gcc-arm-none-eabi-6-2017-q2-update/arm-none-eabi/include/c++/6.3.1/bits/stl_list.h ****       __gnu_cxx::__aligned_membuf<_Tp> _M_storage;
 113:/home/vdykyy/Install/STM-32/gcc-arm-none-eabi-6-2017-q2-update/arm-none-eabi/include/c++/6.3.1/bits/stl_list.h ****       _Tp*       _M_valptr()       { return _M_storage._M_ptr(); }
 114:/home/vdykyy/Install/STM-32/gcc-arm-none-eabi-6-2017-q2-update/arm-none-eabi/include/c++/6.3.1/bits/stl_list.h ****       _Tp const* _M_valptr() const { return _M_storage._M_ptr(); }
 115:/home/vdykyy/Install/STM-32/gcc-arm-none-eabi-6-2017-q2-update/arm-none-eabi/include/c++/6.3.1/bits/stl_list.h **** #else
 116:/home/vdykyy/Install/STM-32/gcc-arm-none-eabi-6-2017-q2-update/arm-none-eabi/include/c++/6.3.1/bits/stl_list.h ****       _Tp _M_data;
 117:/home/vdykyy/Install/STM-32/gcc-arm-none-eabi-6-2017-q2-update/arm-none-eabi/include/c++/6.3.1/bits/stl_list.h ****       _Tp*       _M_valptr()       { return std::__addressof(_M_data); }
 118:/home/vdykyy/Install/STM-32/gcc-arm-none-eabi-6-2017-q2-update/arm-none-eabi/include/c++/6.3.1/bits/stl_list.h ****       _Tp const* _M_valptr() const { return std::__addressof(_M_data); }
 119:/home/vdykyy/Install/STM-32/gcc-arm-none-eabi-6-2017-q2-update/arm-none-eabi/include/c++/6.3.1/bits/stl_list.h **** #endif
 120:/home/vdykyy/Install/STM-32/gcc-arm-none-eabi-6-2017-q2-update/arm-none-eabi/include/c++/6.3.1/bits/stl_list.h ****     };
 121:/home/vdykyy/Install/STM-32/gcc-arm-none-eabi-6-2017-q2-update/arm-none-eabi/include/c++/6.3.1/bits/stl_list.h **** 
 122:/home/vdykyy/Install/STM-32/gcc-arm-none-eabi-6-2017-q2-update/arm-none-eabi/include/c++/6.3.1/bits/stl_list.h ****   /**
 123:/home/vdykyy/Install/STM-32/gcc-arm-none-eabi-6-2017-q2-update/arm-none-eabi/include/c++/6.3.1/bits/stl_list.h ****    *  @brief A list::iterator.
 124:/home/vdykyy/Install/STM-32/gcc-arm-none-eabi-6-2017-q2-update/arm-none-eabi/include/c++/6.3.1/bits/stl_list.h ****    *
 125:/home/vdykyy/Install/STM-32/gcc-arm-none-eabi-6-2017-q2-update/arm-none-eabi/include/c++/6.3.1/bits/stl_list.h ****    *  All the functions are op overloads.
 126:/home/vdykyy/Install/STM-32/gcc-arm-none-eabi-6-2017-q2-update/arm-none-eabi/include/c++/6.3.1/bits/stl_list.h ****   */
 127:/home/vdykyy/Install/STM-32/gcc-arm-none-eabi-6-2017-q2-update/arm-none-eabi/include/c++/6.3.1/bits/stl_list.h ****   template<typename _Tp>
 128:/home/vdykyy/Install/STM-32/gcc-arm-none-eabi-6-2017-q2-update/arm-none-eabi/include/c++/6.3.1/bits/stl_list.h ****     struct _List_iterator
 129:/home/vdykyy/Install/STM-32/gcc-arm-none-eabi-6-2017-q2-update/arm-none-eabi/include/c++/6.3.1/bits/stl_list.h ****     {
 130:/home/vdykyy/Install/STM-32/gcc-arm-none-eabi-6-2017-q2-update/arm-none-eabi/include/c++/6.3.1/bits/stl_list.h ****       typedef _List_iterator<_Tp>                _Self;
 131:/home/vdykyy/Install/STM-32/gcc-arm-none-eabi-6-2017-q2-update/arm-none-eabi/include/c++/6.3.1/bits/stl_list.h ****       typedef _List_node<_Tp>                    _Node;
 132:/home/vdykyy/Install/STM-32/gcc-arm-none-eabi-6-2017-q2-update/arm-none-eabi/include/c++/6.3.1/bits/stl_list.h **** 
 133:/home/vdykyy/Install/STM-32/gcc-arm-none-eabi-6-2017-q2-update/arm-none-eabi/include/c++/6.3.1/bits/stl_list.h ****       typedef ptrdiff_t                          difference_type;
 134:/home/vdykyy/Install/STM-32/gcc-arm-none-eabi-6-2017-q2-update/arm-none-eabi/include/c++/6.3.1/bits/stl_list.h ****       typedef std::bidirectional_iterator_tag    iterator_category;
 135:/home/vdykyy/Install/STM-32/gcc-arm-none-eabi-6-2017-q2-update/arm-none-eabi/include/c++/6.3.1/bits/stl_list.h ****       typedef _Tp                                value_type;
 136:/home/vdykyy/Install/STM-32/gcc-arm-none-eabi-6-2017-q2-update/arm-none-eabi/include/c++/6.3.1/bits/stl_list.h ****       typedef _Tp*                               pointer;
 137:/home/vdykyy/Install/STM-32/gcc-arm-none-eabi-6-2017-q2-update/arm-none-eabi/include/c++/6.3.1/bits/stl_list.h ****       typedef _Tp&                               reference;
 138:/home/vdykyy/Install/STM-32/gcc-arm-none-eabi-6-2017-q2-update/arm-none-eabi/include/c++/6.3.1/bits/stl_list.h **** 
 139:/home/vdykyy/Install/STM-32/gcc-arm-none-eabi-6-2017-q2-update/arm-none-eabi/include/c++/6.3.1/bits/stl_list.h ****       _List_iterator() _GLIBCXX_NOEXCEPT
 140:/home/vdykyy/Install/STM-32/gcc-arm-none-eabi-6-2017-q2-update/arm-none-eabi/include/c++/6.3.1/bits/stl_list.h ****       : _M_node() { }
 141:/home/vdykyy/Install/STM-32/gcc-arm-none-eabi-6-2017-q2-update/arm-none-eabi/include/c++/6.3.1/bits/stl_list.h **** 
 142:/home/vdykyy/Install/STM-32/gcc-arm-none-eabi-6-2017-q2-update/arm-none-eabi/include/c++/6.3.1/bits/stl_list.h ****       explicit
 143:/home/vdykyy/Install/STM-32/gcc-arm-none-eabi-6-2017-q2-update/arm-none-eabi/include/c++/6.3.1/bits/stl_list.h ****       _List_iterator(__detail::_List_node_base* __x) _GLIBCXX_NOEXCEPT
 144:/home/vdykyy/Install/STM-32/gcc-arm-none-eabi-6-2017-q2-update/arm-none-eabi/include/c++/6.3.1/bits/stl_list.h ****       : _M_node(__x) { }
 145:/home/vdykyy/Install/STM-32/gcc-arm-none-eabi-6-2017-q2-update/arm-none-eabi/include/c++/6.3.1/bits/stl_list.h **** 
 146:/home/vdykyy/Install/STM-32/gcc-arm-none-eabi-6-2017-q2-update/arm-none-eabi/include/c++/6.3.1/bits/stl_list.h ****       _Self
 147:/home/vdykyy/Install/STM-32/gcc-arm-none-eabi-6-2017-q2-update/arm-none-eabi/include/c++/6.3.1/bits/stl_list.h ****       _M_const_cast() const _GLIBCXX_NOEXCEPT
 148:/home/vdykyy/Install/STM-32/gcc-arm-none-eabi-6-2017-q2-update/arm-none-eabi/include/c++/6.3.1/bits/stl_list.h ****       { return *this; }
 149:/home/vdykyy/Install/STM-32/gcc-arm-none-eabi-6-2017-q2-update/arm-none-eabi/include/c++/6.3.1/bits/stl_list.h **** 
 150:/home/vdykyy/Install/STM-32/gcc-arm-none-eabi-6-2017-q2-update/arm-none-eabi/include/c++/6.3.1/bits/stl_list.h ****       // Must downcast from _List_node_base to _List_node to get to value.
 151:/home/vdykyy/Install/STM-32/gcc-arm-none-eabi-6-2017-q2-update/arm-none-eabi/include/c++/6.3.1/bits/stl_list.h ****       reference
 152:/home/vdykyy/Install/STM-32/gcc-arm-none-eabi-6-2017-q2-update/arm-none-eabi/include/c++/6.3.1/bits/stl_list.h ****       operator*() const _GLIBCXX_NOEXCEPT
 153:/home/vdykyy/Install/STM-32/gcc-arm-none-eabi-6-2017-q2-update/arm-none-eabi/include/c++/6.3.1/bits/stl_list.h ****       { return *static_cast<_Node*>(_M_node)->_M_valptr(); }
 154:/home/vdykyy/Install/STM-32/gcc-arm-none-eabi-6-2017-q2-update/arm-none-eabi/include/c++/6.3.1/bits/stl_list.h **** 
 155:/home/vdykyy/Install/STM-32/gcc-arm-none-eabi-6-2017-q2-update/arm-none-eabi/include/c++/6.3.1/bits/stl_list.h ****       pointer
 156:/home/vdykyy/Install/STM-32/gcc-arm-none-eabi-6-2017-q2-update/arm-none-eabi/include/c++/6.3.1/bits/stl_list.h ****       operator->() const _GLIBCXX_NOEXCEPT
 157:/home/vdykyy/Install/STM-32/gcc-arm-none-eabi-6-2017-q2-update/arm-none-eabi/include/c++/6.3.1/bits/stl_list.h ****       { return static_cast<_Node*>(_M_node)->_M_valptr(); }
 158:/home/vdykyy/Install/STM-32/gcc-arm-none-eabi-6-2017-q2-update/arm-none-eabi/include/c++/6.3.1/bits/stl_list.h **** 
 159:/home/vdykyy/Install/STM-32/gcc-arm-none-eabi-6-2017-q2-update/arm-none-eabi/include/c++/6.3.1/bits/stl_list.h ****       _Self&
 160:/home/vdykyy/Install/STM-32/gcc-arm-none-eabi-6-2017-q2-update/arm-none-eabi/include/c++/6.3.1/bits/stl_list.h ****       operator++() _GLIBCXX_NOEXCEPT
 161:/home/vdykyy/Install/STM-32/gcc-arm-none-eabi-6-2017-q2-update/arm-none-eabi/include/c++/6.3.1/bits/stl_list.h ****       {
 162:/home/vdykyy/Install/STM-32/gcc-arm-none-eabi-6-2017-q2-update/arm-none-eabi/include/c++/6.3.1/bits/stl_list.h **** 	_M_node = _M_node->_M_next;
 163:/home/vdykyy/Install/STM-32/gcc-arm-none-eabi-6-2017-q2-update/arm-none-eabi/include/c++/6.3.1/bits/stl_list.h **** 	return *this;
 164:/home/vdykyy/Install/STM-32/gcc-arm-none-eabi-6-2017-q2-update/arm-none-eabi/include/c++/6.3.1/bits/stl_list.h ****       }
 165:/home/vdykyy/Install/STM-32/gcc-arm-none-eabi-6-2017-q2-update/arm-none-eabi/include/c++/6.3.1/bits/stl_list.h **** 
 166:/home/vdykyy/Install/STM-32/gcc-arm-none-eabi-6-2017-q2-update/arm-none-eabi/include/c++/6.3.1/bits/stl_list.h ****       _Self
 167:/home/vdykyy/Install/STM-32/gcc-arm-none-eabi-6-2017-q2-update/arm-none-eabi/include/c++/6.3.1/bits/stl_list.h ****       operator++(int) _GLIBCXX_NOEXCEPT
ARM GAS  /tmp/ccni6OXp.s 			page 8


 168:/home/vdykyy/Install/STM-32/gcc-arm-none-eabi-6-2017-q2-update/arm-none-eabi/include/c++/6.3.1/bits/stl_list.h ****       {
 169:/home/vdykyy/Install/STM-32/gcc-arm-none-eabi-6-2017-q2-update/arm-none-eabi/include/c++/6.3.1/bits/stl_list.h **** 	_Self __tmp = *this;
 170:/home/vdykyy/Install/STM-32/gcc-arm-none-eabi-6-2017-q2-update/arm-none-eabi/include/c++/6.3.1/bits/stl_list.h **** 	_M_node = _M_node->_M_next;
 171:/home/vdykyy/Install/STM-32/gcc-arm-none-eabi-6-2017-q2-update/arm-none-eabi/include/c++/6.3.1/bits/stl_list.h **** 	return __tmp;
 172:/home/vdykyy/Install/STM-32/gcc-arm-none-eabi-6-2017-q2-update/arm-none-eabi/include/c++/6.3.1/bits/stl_list.h ****       }
 173:/home/vdykyy/Install/STM-32/gcc-arm-none-eabi-6-2017-q2-update/arm-none-eabi/include/c++/6.3.1/bits/stl_list.h **** 
 174:/home/vdykyy/Install/STM-32/gcc-arm-none-eabi-6-2017-q2-update/arm-none-eabi/include/c++/6.3.1/bits/stl_list.h ****       _Self&
 175:/home/vdykyy/Install/STM-32/gcc-arm-none-eabi-6-2017-q2-update/arm-none-eabi/include/c++/6.3.1/bits/stl_list.h ****       operator--() _GLIBCXX_NOEXCEPT
 176:/home/vdykyy/Install/STM-32/gcc-arm-none-eabi-6-2017-q2-update/arm-none-eabi/include/c++/6.3.1/bits/stl_list.h ****       {
 177:/home/vdykyy/Install/STM-32/gcc-arm-none-eabi-6-2017-q2-update/arm-none-eabi/include/c++/6.3.1/bits/stl_list.h **** 	_M_node = _M_node->_M_prev;
 178:/home/vdykyy/Install/STM-32/gcc-arm-none-eabi-6-2017-q2-update/arm-none-eabi/include/c++/6.3.1/bits/stl_list.h **** 	return *this;
 179:/home/vdykyy/Install/STM-32/gcc-arm-none-eabi-6-2017-q2-update/arm-none-eabi/include/c++/6.3.1/bits/stl_list.h ****       }
 180:/home/vdykyy/Install/STM-32/gcc-arm-none-eabi-6-2017-q2-update/arm-none-eabi/include/c++/6.3.1/bits/stl_list.h **** 
 181:/home/vdykyy/Install/STM-32/gcc-arm-none-eabi-6-2017-q2-update/arm-none-eabi/include/c++/6.3.1/bits/stl_list.h ****       _Self
 182:/home/vdykyy/Install/STM-32/gcc-arm-none-eabi-6-2017-q2-update/arm-none-eabi/include/c++/6.3.1/bits/stl_list.h ****       operator--(int) _GLIBCXX_NOEXCEPT
 183:/home/vdykyy/Install/STM-32/gcc-arm-none-eabi-6-2017-q2-update/arm-none-eabi/include/c++/6.3.1/bits/stl_list.h ****       {
 184:/home/vdykyy/Install/STM-32/gcc-arm-none-eabi-6-2017-q2-update/arm-none-eabi/include/c++/6.3.1/bits/stl_list.h **** 	_Self __tmp = *this;
 185:/home/vdykyy/Install/STM-32/gcc-arm-none-eabi-6-2017-q2-update/arm-none-eabi/include/c++/6.3.1/bits/stl_list.h **** 	_M_node = _M_node->_M_prev;
 186:/home/vdykyy/Install/STM-32/gcc-arm-none-eabi-6-2017-q2-update/arm-none-eabi/include/c++/6.3.1/bits/stl_list.h **** 	return __tmp;
 187:/home/vdykyy/Install/STM-32/gcc-arm-none-eabi-6-2017-q2-update/arm-none-eabi/include/c++/6.3.1/bits/stl_list.h ****       }
 188:/home/vdykyy/Install/STM-32/gcc-arm-none-eabi-6-2017-q2-update/arm-none-eabi/include/c++/6.3.1/bits/stl_list.h **** 
 189:/home/vdykyy/Install/STM-32/gcc-arm-none-eabi-6-2017-q2-update/arm-none-eabi/include/c++/6.3.1/bits/stl_list.h ****       bool
 190:/home/vdykyy/Install/STM-32/gcc-arm-none-eabi-6-2017-q2-update/arm-none-eabi/include/c++/6.3.1/bits/stl_list.h ****       operator==(const _Self& __x) const _GLIBCXX_NOEXCEPT
 191:/home/vdykyy/Install/STM-32/gcc-arm-none-eabi-6-2017-q2-update/arm-none-eabi/include/c++/6.3.1/bits/stl_list.h ****       { return _M_node == __x._M_node; }
 192:/home/vdykyy/Install/STM-32/gcc-arm-none-eabi-6-2017-q2-update/arm-none-eabi/include/c++/6.3.1/bits/stl_list.h **** 
 193:/home/vdykyy/Install/STM-32/gcc-arm-none-eabi-6-2017-q2-update/arm-none-eabi/include/c++/6.3.1/bits/stl_list.h ****       bool
 194:/home/vdykyy/Install/STM-32/gcc-arm-none-eabi-6-2017-q2-update/arm-none-eabi/include/c++/6.3.1/bits/stl_list.h ****       operator!=(const _Self& __x) const _GLIBCXX_NOEXCEPT
 195:/home/vdykyy/Install/STM-32/gcc-arm-none-eabi-6-2017-q2-update/arm-none-eabi/include/c++/6.3.1/bits/stl_list.h ****       { return _M_node != __x._M_node; }
 196:/home/vdykyy/Install/STM-32/gcc-arm-none-eabi-6-2017-q2-update/arm-none-eabi/include/c++/6.3.1/bits/stl_list.h **** 
 197:/home/vdykyy/Install/STM-32/gcc-arm-none-eabi-6-2017-q2-update/arm-none-eabi/include/c++/6.3.1/bits/stl_list.h ****       // The only member points to the %list element.
 198:/home/vdykyy/Install/STM-32/gcc-arm-none-eabi-6-2017-q2-update/arm-none-eabi/include/c++/6.3.1/bits/stl_list.h ****       __detail::_List_node_base* _M_node;
 199:/home/vdykyy/Install/STM-32/gcc-arm-none-eabi-6-2017-q2-update/arm-none-eabi/include/c++/6.3.1/bits/stl_list.h ****     };
 200:/home/vdykyy/Install/STM-32/gcc-arm-none-eabi-6-2017-q2-update/arm-none-eabi/include/c++/6.3.1/bits/stl_list.h **** 
 201:/home/vdykyy/Install/STM-32/gcc-arm-none-eabi-6-2017-q2-update/arm-none-eabi/include/c++/6.3.1/bits/stl_list.h ****   /**
 202:/home/vdykyy/Install/STM-32/gcc-arm-none-eabi-6-2017-q2-update/arm-none-eabi/include/c++/6.3.1/bits/stl_list.h ****    *  @brief A list::const_iterator.
 203:/home/vdykyy/Install/STM-32/gcc-arm-none-eabi-6-2017-q2-update/arm-none-eabi/include/c++/6.3.1/bits/stl_list.h ****    *
 204:/home/vdykyy/Install/STM-32/gcc-arm-none-eabi-6-2017-q2-update/arm-none-eabi/include/c++/6.3.1/bits/stl_list.h ****    *  All the functions are op overloads.
 205:/home/vdykyy/Install/STM-32/gcc-arm-none-eabi-6-2017-q2-update/arm-none-eabi/include/c++/6.3.1/bits/stl_list.h ****   */
 206:/home/vdykyy/Install/STM-32/gcc-arm-none-eabi-6-2017-q2-update/arm-none-eabi/include/c++/6.3.1/bits/stl_list.h ****   template<typename _Tp>
 207:/home/vdykyy/Install/STM-32/gcc-arm-none-eabi-6-2017-q2-update/arm-none-eabi/include/c++/6.3.1/bits/stl_list.h ****     struct _List_const_iterator
 208:/home/vdykyy/Install/STM-32/gcc-arm-none-eabi-6-2017-q2-update/arm-none-eabi/include/c++/6.3.1/bits/stl_list.h ****     {
 209:/home/vdykyy/Install/STM-32/gcc-arm-none-eabi-6-2017-q2-update/arm-none-eabi/include/c++/6.3.1/bits/stl_list.h ****       typedef _List_const_iterator<_Tp>          _Self;
 210:/home/vdykyy/Install/STM-32/gcc-arm-none-eabi-6-2017-q2-update/arm-none-eabi/include/c++/6.3.1/bits/stl_list.h ****       typedef const _List_node<_Tp>              _Node;
 211:/home/vdykyy/Install/STM-32/gcc-arm-none-eabi-6-2017-q2-update/arm-none-eabi/include/c++/6.3.1/bits/stl_list.h ****       typedef _List_iterator<_Tp>                iterator;
 212:/home/vdykyy/Install/STM-32/gcc-arm-none-eabi-6-2017-q2-update/arm-none-eabi/include/c++/6.3.1/bits/stl_list.h **** 
 213:/home/vdykyy/Install/STM-32/gcc-arm-none-eabi-6-2017-q2-update/arm-none-eabi/include/c++/6.3.1/bits/stl_list.h ****       typedef ptrdiff_t                          difference_type;
 214:/home/vdykyy/Install/STM-32/gcc-arm-none-eabi-6-2017-q2-update/arm-none-eabi/include/c++/6.3.1/bits/stl_list.h ****       typedef std::bidirectional_iterator_tag    iterator_category;
 215:/home/vdykyy/Install/STM-32/gcc-arm-none-eabi-6-2017-q2-update/arm-none-eabi/include/c++/6.3.1/bits/stl_list.h ****       typedef _Tp                                value_type;
 216:/home/vdykyy/Install/STM-32/gcc-arm-none-eabi-6-2017-q2-update/arm-none-eabi/include/c++/6.3.1/bits/stl_list.h ****       typedef const _Tp*                         pointer;
 217:/home/vdykyy/Install/STM-32/gcc-arm-none-eabi-6-2017-q2-update/arm-none-eabi/include/c++/6.3.1/bits/stl_list.h ****       typedef const _Tp&                         reference;
 218:/home/vdykyy/Install/STM-32/gcc-arm-none-eabi-6-2017-q2-update/arm-none-eabi/include/c++/6.3.1/bits/stl_list.h **** 
 219:/home/vdykyy/Install/STM-32/gcc-arm-none-eabi-6-2017-q2-update/arm-none-eabi/include/c++/6.3.1/bits/stl_list.h ****       _List_const_iterator() _GLIBCXX_NOEXCEPT
 220:/home/vdykyy/Install/STM-32/gcc-arm-none-eabi-6-2017-q2-update/arm-none-eabi/include/c++/6.3.1/bits/stl_list.h ****       : _M_node() { }
 221:/home/vdykyy/Install/STM-32/gcc-arm-none-eabi-6-2017-q2-update/arm-none-eabi/include/c++/6.3.1/bits/stl_list.h **** 
 222:/home/vdykyy/Install/STM-32/gcc-arm-none-eabi-6-2017-q2-update/arm-none-eabi/include/c++/6.3.1/bits/stl_list.h ****       explicit
 223:/home/vdykyy/Install/STM-32/gcc-arm-none-eabi-6-2017-q2-update/arm-none-eabi/include/c++/6.3.1/bits/stl_list.h ****       _List_const_iterator(const __detail::_List_node_base* __x)
 224:/home/vdykyy/Install/STM-32/gcc-arm-none-eabi-6-2017-q2-update/arm-none-eabi/include/c++/6.3.1/bits/stl_list.h ****       _GLIBCXX_NOEXCEPT
ARM GAS  /tmp/ccni6OXp.s 			page 9


 225:/home/vdykyy/Install/STM-32/gcc-arm-none-eabi-6-2017-q2-update/arm-none-eabi/include/c++/6.3.1/bits/stl_list.h ****       : _M_node(__x) { }
 226:/home/vdykyy/Install/STM-32/gcc-arm-none-eabi-6-2017-q2-update/arm-none-eabi/include/c++/6.3.1/bits/stl_list.h **** 
 227:/home/vdykyy/Install/STM-32/gcc-arm-none-eabi-6-2017-q2-update/arm-none-eabi/include/c++/6.3.1/bits/stl_list.h ****       _List_const_iterator(const iterator& __x) _GLIBCXX_NOEXCEPT
 228:/home/vdykyy/Install/STM-32/gcc-arm-none-eabi-6-2017-q2-update/arm-none-eabi/include/c++/6.3.1/bits/stl_list.h ****       : _M_node(__x._M_node) { }
 229:/home/vdykyy/Install/STM-32/gcc-arm-none-eabi-6-2017-q2-update/arm-none-eabi/include/c++/6.3.1/bits/stl_list.h **** 
 230:/home/vdykyy/Install/STM-32/gcc-arm-none-eabi-6-2017-q2-update/arm-none-eabi/include/c++/6.3.1/bits/stl_list.h ****       iterator
 231:/home/vdykyy/Install/STM-32/gcc-arm-none-eabi-6-2017-q2-update/arm-none-eabi/include/c++/6.3.1/bits/stl_list.h ****       _M_const_cast() const _GLIBCXX_NOEXCEPT
 232:/home/vdykyy/Install/STM-32/gcc-arm-none-eabi-6-2017-q2-update/arm-none-eabi/include/c++/6.3.1/bits/stl_list.h ****       { return iterator(const_cast<__detail::_List_node_base*>(_M_node)); }
 233:/home/vdykyy/Install/STM-32/gcc-arm-none-eabi-6-2017-q2-update/arm-none-eabi/include/c++/6.3.1/bits/stl_list.h **** 
 234:/home/vdykyy/Install/STM-32/gcc-arm-none-eabi-6-2017-q2-update/arm-none-eabi/include/c++/6.3.1/bits/stl_list.h ****       // Must downcast from List_node_base to _List_node to get to value.
 235:/home/vdykyy/Install/STM-32/gcc-arm-none-eabi-6-2017-q2-update/arm-none-eabi/include/c++/6.3.1/bits/stl_list.h ****       reference
 236:/home/vdykyy/Install/STM-32/gcc-arm-none-eabi-6-2017-q2-update/arm-none-eabi/include/c++/6.3.1/bits/stl_list.h ****       operator*() const _GLIBCXX_NOEXCEPT
 237:/home/vdykyy/Install/STM-32/gcc-arm-none-eabi-6-2017-q2-update/arm-none-eabi/include/c++/6.3.1/bits/stl_list.h ****       { return *static_cast<_Node*>(_M_node)->_M_valptr(); }
 238:/home/vdykyy/Install/STM-32/gcc-arm-none-eabi-6-2017-q2-update/arm-none-eabi/include/c++/6.3.1/bits/stl_list.h **** 
 239:/home/vdykyy/Install/STM-32/gcc-arm-none-eabi-6-2017-q2-update/arm-none-eabi/include/c++/6.3.1/bits/stl_list.h ****       pointer
 240:/home/vdykyy/Install/STM-32/gcc-arm-none-eabi-6-2017-q2-update/arm-none-eabi/include/c++/6.3.1/bits/stl_list.h ****       operator->() const _GLIBCXX_NOEXCEPT
 241:/home/vdykyy/Install/STM-32/gcc-arm-none-eabi-6-2017-q2-update/arm-none-eabi/include/c++/6.3.1/bits/stl_list.h ****       { return static_cast<_Node*>(_M_node)->_M_valptr(); }
 242:/home/vdykyy/Install/STM-32/gcc-arm-none-eabi-6-2017-q2-update/arm-none-eabi/include/c++/6.3.1/bits/stl_list.h **** 
 243:/home/vdykyy/Install/STM-32/gcc-arm-none-eabi-6-2017-q2-update/arm-none-eabi/include/c++/6.3.1/bits/stl_list.h ****       _Self&
 244:/home/vdykyy/Install/STM-32/gcc-arm-none-eabi-6-2017-q2-update/arm-none-eabi/include/c++/6.3.1/bits/stl_list.h ****       operator++() _GLIBCXX_NOEXCEPT
 245:/home/vdykyy/Install/STM-32/gcc-arm-none-eabi-6-2017-q2-update/arm-none-eabi/include/c++/6.3.1/bits/stl_list.h ****       {
 246:/home/vdykyy/Install/STM-32/gcc-arm-none-eabi-6-2017-q2-update/arm-none-eabi/include/c++/6.3.1/bits/stl_list.h **** 	_M_node = _M_node->_M_next;
 247:/home/vdykyy/Install/STM-32/gcc-arm-none-eabi-6-2017-q2-update/arm-none-eabi/include/c++/6.3.1/bits/stl_list.h **** 	return *this;
 248:/home/vdykyy/Install/STM-32/gcc-arm-none-eabi-6-2017-q2-update/arm-none-eabi/include/c++/6.3.1/bits/stl_list.h ****       }
 249:/home/vdykyy/Install/STM-32/gcc-arm-none-eabi-6-2017-q2-update/arm-none-eabi/include/c++/6.3.1/bits/stl_list.h **** 
 250:/home/vdykyy/Install/STM-32/gcc-arm-none-eabi-6-2017-q2-update/arm-none-eabi/include/c++/6.3.1/bits/stl_list.h ****       _Self
 251:/home/vdykyy/Install/STM-32/gcc-arm-none-eabi-6-2017-q2-update/arm-none-eabi/include/c++/6.3.1/bits/stl_list.h ****       operator++(int) _GLIBCXX_NOEXCEPT
 252:/home/vdykyy/Install/STM-32/gcc-arm-none-eabi-6-2017-q2-update/arm-none-eabi/include/c++/6.3.1/bits/stl_list.h ****       {
 253:/home/vdykyy/Install/STM-32/gcc-arm-none-eabi-6-2017-q2-update/arm-none-eabi/include/c++/6.3.1/bits/stl_list.h **** 	_Self __tmp = *this;
 254:/home/vdykyy/Install/STM-32/gcc-arm-none-eabi-6-2017-q2-update/arm-none-eabi/include/c++/6.3.1/bits/stl_list.h **** 	_M_node = _M_node->_M_next;
 255:/home/vdykyy/Install/STM-32/gcc-arm-none-eabi-6-2017-q2-update/arm-none-eabi/include/c++/6.3.1/bits/stl_list.h **** 	return __tmp;
 256:/home/vdykyy/Install/STM-32/gcc-arm-none-eabi-6-2017-q2-update/arm-none-eabi/include/c++/6.3.1/bits/stl_list.h ****       }
 257:/home/vdykyy/Install/STM-32/gcc-arm-none-eabi-6-2017-q2-update/arm-none-eabi/include/c++/6.3.1/bits/stl_list.h **** 
 258:/home/vdykyy/Install/STM-32/gcc-arm-none-eabi-6-2017-q2-update/arm-none-eabi/include/c++/6.3.1/bits/stl_list.h ****       _Self&
 259:/home/vdykyy/Install/STM-32/gcc-arm-none-eabi-6-2017-q2-update/arm-none-eabi/include/c++/6.3.1/bits/stl_list.h ****       operator--() _GLIBCXX_NOEXCEPT
 260:/home/vdykyy/Install/STM-32/gcc-arm-none-eabi-6-2017-q2-update/arm-none-eabi/include/c++/6.3.1/bits/stl_list.h ****       {
 261:/home/vdykyy/Install/STM-32/gcc-arm-none-eabi-6-2017-q2-update/arm-none-eabi/include/c++/6.3.1/bits/stl_list.h **** 	_M_node = _M_node->_M_prev;
 262:/home/vdykyy/Install/STM-32/gcc-arm-none-eabi-6-2017-q2-update/arm-none-eabi/include/c++/6.3.1/bits/stl_list.h **** 	return *this;
 263:/home/vdykyy/Install/STM-32/gcc-arm-none-eabi-6-2017-q2-update/arm-none-eabi/include/c++/6.3.1/bits/stl_list.h ****       }
 264:/home/vdykyy/Install/STM-32/gcc-arm-none-eabi-6-2017-q2-update/arm-none-eabi/include/c++/6.3.1/bits/stl_list.h **** 
 265:/home/vdykyy/Install/STM-32/gcc-arm-none-eabi-6-2017-q2-update/arm-none-eabi/include/c++/6.3.1/bits/stl_list.h ****       _Self
 266:/home/vdykyy/Install/STM-32/gcc-arm-none-eabi-6-2017-q2-update/arm-none-eabi/include/c++/6.3.1/bits/stl_list.h ****       operator--(int) _GLIBCXX_NOEXCEPT
 267:/home/vdykyy/Install/STM-32/gcc-arm-none-eabi-6-2017-q2-update/arm-none-eabi/include/c++/6.3.1/bits/stl_list.h ****       {
 268:/home/vdykyy/Install/STM-32/gcc-arm-none-eabi-6-2017-q2-update/arm-none-eabi/include/c++/6.3.1/bits/stl_list.h **** 	_Self __tmp = *this;
 269:/home/vdykyy/Install/STM-32/gcc-arm-none-eabi-6-2017-q2-update/arm-none-eabi/include/c++/6.3.1/bits/stl_list.h **** 	_M_node = _M_node->_M_prev;
 270:/home/vdykyy/Install/STM-32/gcc-arm-none-eabi-6-2017-q2-update/arm-none-eabi/include/c++/6.3.1/bits/stl_list.h **** 	return __tmp;
 271:/home/vdykyy/Install/STM-32/gcc-arm-none-eabi-6-2017-q2-update/arm-none-eabi/include/c++/6.3.1/bits/stl_list.h ****       }
 272:/home/vdykyy/Install/STM-32/gcc-arm-none-eabi-6-2017-q2-update/arm-none-eabi/include/c++/6.3.1/bits/stl_list.h **** 
 273:/home/vdykyy/Install/STM-32/gcc-arm-none-eabi-6-2017-q2-update/arm-none-eabi/include/c++/6.3.1/bits/stl_list.h ****       bool
 274:/home/vdykyy/Install/STM-32/gcc-arm-none-eabi-6-2017-q2-update/arm-none-eabi/include/c++/6.3.1/bits/stl_list.h ****       operator==(const _Self& __x) const _GLIBCXX_NOEXCEPT
 275:/home/vdykyy/Install/STM-32/gcc-arm-none-eabi-6-2017-q2-update/arm-none-eabi/include/c++/6.3.1/bits/stl_list.h ****       { return _M_node == __x._M_node; }
 276:/home/vdykyy/Install/STM-32/gcc-arm-none-eabi-6-2017-q2-update/arm-none-eabi/include/c++/6.3.1/bits/stl_list.h **** 
 277:/home/vdykyy/Install/STM-32/gcc-arm-none-eabi-6-2017-q2-update/arm-none-eabi/include/c++/6.3.1/bits/stl_list.h ****       bool
 278:/home/vdykyy/Install/STM-32/gcc-arm-none-eabi-6-2017-q2-update/arm-none-eabi/include/c++/6.3.1/bits/stl_list.h ****       operator!=(const _Self& __x) const _GLIBCXX_NOEXCEPT
 279:/home/vdykyy/Install/STM-32/gcc-arm-none-eabi-6-2017-q2-update/arm-none-eabi/include/c++/6.3.1/bits/stl_list.h ****       { return _M_node != __x._M_node; }
 280:/home/vdykyy/Install/STM-32/gcc-arm-none-eabi-6-2017-q2-update/arm-none-eabi/include/c++/6.3.1/bits/stl_list.h **** 
 281:/home/vdykyy/Install/STM-32/gcc-arm-none-eabi-6-2017-q2-update/arm-none-eabi/include/c++/6.3.1/bits/stl_list.h ****       // The only member points to the %list element.
ARM GAS  /tmp/ccni6OXp.s 			page 10


 282:/home/vdykyy/Install/STM-32/gcc-arm-none-eabi-6-2017-q2-update/arm-none-eabi/include/c++/6.3.1/bits/stl_list.h ****       const __detail::_List_node_base* _M_node;
 283:/home/vdykyy/Install/STM-32/gcc-arm-none-eabi-6-2017-q2-update/arm-none-eabi/include/c++/6.3.1/bits/stl_list.h ****     };
 284:/home/vdykyy/Install/STM-32/gcc-arm-none-eabi-6-2017-q2-update/arm-none-eabi/include/c++/6.3.1/bits/stl_list.h **** 
 285:/home/vdykyy/Install/STM-32/gcc-arm-none-eabi-6-2017-q2-update/arm-none-eabi/include/c++/6.3.1/bits/stl_list.h ****   template<typename _Val>
 286:/home/vdykyy/Install/STM-32/gcc-arm-none-eabi-6-2017-q2-update/arm-none-eabi/include/c++/6.3.1/bits/stl_list.h ****     inline bool
 287:/home/vdykyy/Install/STM-32/gcc-arm-none-eabi-6-2017-q2-update/arm-none-eabi/include/c++/6.3.1/bits/stl_list.h ****     operator==(const _List_iterator<_Val>& __x,
 288:/home/vdykyy/Install/STM-32/gcc-arm-none-eabi-6-2017-q2-update/arm-none-eabi/include/c++/6.3.1/bits/stl_list.h **** 	       const _List_const_iterator<_Val>& __y) _GLIBCXX_NOEXCEPT
 289:/home/vdykyy/Install/STM-32/gcc-arm-none-eabi-6-2017-q2-update/arm-none-eabi/include/c++/6.3.1/bits/stl_list.h ****     { return __x._M_node == __y._M_node; }
 290:/home/vdykyy/Install/STM-32/gcc-arm-none-eabi-6-2017-q2-update/arm-none-eabi/include/c++/6.3.1/bits/stl_list.h **** 
 291:/home/vdykyy/Install/STM-32/gcc-arm-none-eabi-6-2017-q2-update/arm-none-eabi/include/c++/6.3.1/bits/stl_list.h ****   template<typename _Val>
 292:/home/vdykyy/Install/STM-32/gcc-arm-none-eabi-6-2017-q2-update/arm-none-eabi/include/c++/6.3.1/bits/stl_list.h ****     inline bool
 293:/home/vdykyy/Install/STM-32/gcc-arm-none-eabi-6-2017-q2-update/arm-none-eabi/include/c++/6.3.1/bits/stl_list.h ****     operator!=(const _List_iterator<_Val>& __x,
 294:/home/vdykyy/Install/STM-32/gcc-arm-none-eabi-6-2017-q2-update/arm-none-eabi/include/c++/6.3.1/bits/stl_list.h ****                const _List_const_iterator<_Val>& __y) _GLIBCXX_NOEXCEPT
 295:/home/vdykyy/Install/STM-32/gcc-arm-none-eabi-6-2017-q2-update/arm-none-eabi/include/c++/6.3.1/bits/stl_list.h ****     { return __x._M_node != __y._M_node; }
 296:/home/vdykyy/Install/STM-32/gcc-arm-none-eabi-6-2017-q2-update/arm-none-eabi/include/c++/6.3.1/bits/stl_list.h **** 
 297:/home/vdykyy/Install/STM-32/gcc-arm-none-eabi-6-2017-q2-update/arm-none-eabi/include/c++/6.3.1/bits/stl_list.h **** _GLIBCXX_BEGIN_NAMESPACE_CXX11
 298:/home/vdykyy/Install/STM-32/gcc-arm-none-eabi-6-2017-q2-update/arm-none-eabi/include/c++/6.3.1/bits/stl_list.h ****   /// See bits/stl_deque.h's _Deque_base for an explanation.
 299:/home/vdykyy/Install/STM-32/gcc-arm-none-eabi-6-2017-q2-update/arm-none-eabi/include/c++/6.3.1/bits/stl_list.h ****   template<typename _Tp, typename _Alloc>
 300:/home/vdykyy/Install/STM-32/gcc-arm-none-eabi-6-2017-q2-update/arm-none-eabi/include/c++/6.3.1/bits/stl_list.h ****     class _List_base
 301:/home/vdykyy/Install/STM-32/gcc-arm-none-eabi-6-2017-q2-update/arm-none-eabi/include/c++/6.3.1/bits/stl_list.h ****     {
 302:/home/vdykyy/Install/STM-32/gcc-arm-none-eabi-6-2017-q2-update/arm-none-eabi/include/c++/6.3.1/bits/stl_list.h ****     protected:
 303:/home/vdykyy/Install/STM-32/gcc-arm-none-eabi-6-2017-q2-update/arm-none-eabi/include/c++/6.3.1/bits/stl_list.h ****       typedef typename __gnu_cxx::__alloc_traits<_Alloc>::template
 304:/home/vdykyy/Install/STM-32/gcc-arm-none-eabi-6-2017-q2-update/arm-none-eabi/include/c++/6.3.1/bits/stl_list.h **** 	rebind<_Tp>::other				_Tp_alloc_type;
 305:/home/vdykyy/Install/STM-32/gcc-arm-none-eabi-6-2017-q2-update/arm-none-eabi/include/c++/6.3.1/bits/stl_list.h ****       typedef __gnu_cxx::__alloc_traits<_Tp_alloc_type>	_Tp_alloc_traits;
 306:/home/vdykyy/Install/STM-32/gcc-arm-none-eabi-6-2017-q2-update/arm-none-eabi/include/c++/6.3.1/bits/stl_list.h ****       typedef typename _Tp_alloc_traits::template
 307:/home/vdykyy/Install/STM-32/gcc-arm-none-eabi-6-2017-q2-update/arm-none-eabi/include/c++/6.3.1/bits/stl_list.h **** 	rebind<_List_node<_Tp> >::other _Node_alloc_type;
 308:/home/vdykyy/Install/STM-32/gcc-arm-none-eabi-6-2017-q2-update/arm-none-eabi/include/c++/6.3.1/bits/stl_list.h ****       typedef __gnu_cxx::__alloc_traits<_Node_alloc_type> _Node_alloc_traits;
 309:/home/vdykyy/Install/STM-32/gcc-arm-none-eabi-6-2017-q2-update/arm-none-eabi/include/c++/6.3.1/bits/stl_list.h **** 
 310:/home/vdykyy/Install/STM-32/gcc-arm-none-eabi-6-2017-q2-update/arm-none-eabi/include/c++/6.3.1/bits/stl_list.h ****       static size_t
 311:/home/vdykyy/Install/STM-32/gcc-arm-none-eabi-6-2017-q2-update/arm-none-eabi/include/c++/6.3.1/bits/stl_list.h ****       _S_distance(const __detail::_List_node_base* __first,
 312:/home/vdykyy/Install/STM-32/gcc-arm-none-eabi-6-2017-q2-update/arm-none-eabi/include/c++/6.3.1/bits/stl_list.h **** 		  const __detail::_List_node_base* __last)
 313:/home/vdykyy/Install/STM-32/gcc-arm-none-eabi-6-2017-q2-update/arm-none-eabi/include/c++/6.3.1/bits/stl_list.h ****       {
 314:/home/vdykyy/Install/STM-32/gcc-arm-none-eabi-6-2017-q2-update/arm-none-eabi/include/c++/6.3.1/bits/stl_list.h **** 	size_t __n = 0;
 315:/home/vdykyy/Install/STM-32/gcc-arm-none-eabi-6-2017-q2-update/arm-none-eabi/include/c++/6.3.1/bits/stl_list.h **** 	while (__first != __last)
 316:/home/vdykyy/Install/STM-32/gcc-arm-none-eabi-6-2017-q2-update/arm-none-eabi/include/c++/6.3.1/bits/stl_list.h **** 	  {
 317:/home/vdykyy/Install/STM-32/gcc-arm-none-eabi-6-2017-q2-update/arm-none-eabi/include/c++/6.3.1/bits/stl_list.h **** 	    __first = __first->_M_next;
 318:/home/vdykyy/Install/STM-32/gcc-arm-none-eabi-6-2017-q2-update/arm-none-eabi/include/c++/6.3.1/bits/stl_list.h **** 	    ++__n;
 319:/home/vdykyy/Install/STM-32/gcc-arm-none-eabi-6-2017-q2-update/arm-none-eabi/include/c++/6.3.1/bits/stl_list.h **** 	  }
 320:/home/vdykyy/Install/STM-32/gcc-arm-none-eabi-6-2017-q2-update/arm-none-eabi/include/c++/6.3.1/bits/stl_list.h **** 	return __n;
 321:/home/vdykyy/Install/STM-32/gcc-arm-none-eabi-6-2017-q2-update/arm-none-eabi/include/c++/6.3.1/bits/stl_list.h ****       }
 322:/home/vdykyy/Install/STM-32/gcc-arm-none-eabi-6-2017-q2-update/arm-none-eabi/include/c++/6.3.1/bits/stl_list.h **** 
 323:/home/vdykyy/Install/STM-32/gcc-arm-none-eabi-6-2017-q2-update/arm-none-eabi/include/c++/6.3.1/bits/stl_list.h ****       struct _List_impl
 324:/home/vdykyy/Install/STM-32/gcc-arm-none-eabi-6-2017-q2-update/arm-none-eabi/include/c++/6.3.1/bits/stl_list.h ****       : public _Node_alloc_type
 325:/home/vdykyy/Install/STM-32/gcc-arm-none-eabi-6-2017-q2-update/arm-none-eabi/include/c++/6.3.1/bits/stl_list.h ****       {
 326:/home/vdykyy/Install/STM-32/gcc-arm-none-eabi-6-2017-q2-update/arm-none-eabi/include/c++/6.3.1/bits/stl_list.h **** #if _GLIBCXX_USE_CXX11_ABI
 327:/home/vdykyy/Install/STM-32/gcc-arm-none-eabi-6-2017-q2-update/arm-none-eabi/include/c++/6.3.1/bits/stl_list.h **** 	_List_node<size_t> _M_node;
 328:/home/vdykyy/Install/STM-32/gcc-arm-none-eabi-6-2017-q2-update/arm-none-eabi/include/c++/6.3.1/bits/stl_list.h **** #else
 329:/home/vdykyy/Install/STM-32/gcc-arm-none-eabi-6-2017-q2-update/arm-none-eabi/include/c++/6.3.1/bits/stl_list.h **** 	__detail::_List_node_base _M_node;
 330:/home/vdykyy/Install/STM-32/gcc-arm-none-eabi-6-2017-q2-update/arm-none-eabi/include/c++/6.3.1/bits/stl_list.h **** #endif
 331:/home/vdykyy/Install/STM-32/gcc-arm-none-eabi-6-2017-q2-update/arm-none-eabi/include/c++/6.3.1/bits/stl_list.h **** 
 332:/home/vdykyy/Install/STM-32/gcc-arm-none-eabi-6-2017-q2-update/arm-none-eabi/include/c++/6.3.1/bits/stl_list.h **** 	_List_impl() _GLIBCXX_NOEXCEPT
 333:/home/vdykyy/Install/STM-32/gcc-arm-none-eabi-6-2017-q2-update/arm-none-eabi/include/c++/6.3.1/bits/stl_list.h **** 	: _Node_alloc_type(), _M_node()
 334:/home/vdykyy/Install/STM-32/gcc-arm-none-eabi-6-2017-q2-update/arm-none-eabi/include/c++/6.3.1/bits/stl_list.h **** 	{ }
 335:/home/vdykyy/Install/STM-32/gcc-arm-none-eabi-6-2017-q2-update/arm-none-eabi/include/c++/6.3.1/bits/stl_list.h **** 
 336:/home/vdykyy/Install/STM-32/gcc-arm-none-eabi-6-2017-q2-update/arm-none-eabi/include/c++/6.3.1/bits/stl_list.h **** 	_List_impl(const _Node_alloc_type& __a) _GLIBCXX_NOEXCEPT
 337:/home/vdykyy/Install/STM-32/gcc-arm-none-eabi-6-2017-q2-update/arm-none-eabi/include/c++/6.3.1/bits/stl_list.h **** 	: _Node_alloc_type(__a), _M_node()
 338:/home/vdykyy/Install/STM-32/gcc-arm-none-eabi-6-2017-q2-update/arm-none-eabi/include/c++/6.3.1/bits/stl_list.h **** 	{ }
ARM GAS  /tmp/ccni6OXp.s 			page 11


 339:/home/vdykyy/Install/STM-32/gcc-arm-none-eabi-6-2017-q2-update/arm-none-eabi/include/c++/6.3.1/bits/stl_list.h **** 
 340:/home/vdykyy/Install/STM-32/gcc-arm-none-eabi-6-2017-q2-update/arm-none-eabi/include/c++/6.3.1/bits/stl_list.h **** #if __cplusplus >= 201103L
 341:/home/vdykyy/Install/STM-32/gcc-arm-none-eabi-6-2017-q2-update/arm-none-eabi/include/c++/6.3.1/bits/stl_list.h **** 	_List_impl(_Node_alloc_type&& __a) noexcept
 342:/home/vdykyy/Install/STM-32/gcc-arm-none-eabi-6-2017-q2-update/arm-none-eabi/include/c++/6.3.1/bits/stl_list.h **** 	: _Node_alloc_type(std::move(__a)), _M_node()
 343:/home/vdykyy/Install/STM-32/gcc-arm-none-eabi-6-2017-q2-update/arm-none-eabi/include/c++/6.3.1/bits/stl_list.h **** 	{ }
 344:/home/vdykyy/Install/STM-32/gcc-arm-none-eabi-6-2017-q2-update/arm-none-eabi/include/c++/6.3.1/bits/stl_list.h **** #endif
 345:/home/vdykyy/Install/STM-32/gcc-arm-none-eabi-6-2017-q2-update/arm-none-eabi/include/c++/6.3.1/bits/stl_list.h ****       };
 346:/home/vdykyy/Install/STM-32/gcc-arm-none-eabi-6-2017-q2-update/arm-none-eabi/include/c++/6.3.1/bits/stl_list.h **** 
 347:/home/vdykyy/Install/STM-32/gcc-arm-none-eabi-6-2017-q2-update/arm-none-eabi/include/c++/6.3.1/bits/stl_list.h ****       _List_impl _M_impl;
 348:/home/vdykyy/Install/STM-32/gcc-arm-none-eabi-6-2017-q2-update/arm-none-eabi/include/c++/6.3.1/bits/stl_list.h **** 
 349:/home/vdykyy/Install/STM-32/gcc-arm-none-eabi-6-2017-q2-update/arm-none-eabi/include/c++/6.3.1/bits/stl_list.h **** #if _GLIBCXX_USE_CXX11_ABI
 350:/home/vdykyy/Install/STM-32/gcc-arm-none-eabi-6-2017-q2-update/arm-none-eabi/include/c++/6.3.1/bits/stl_list.h ****       size_t _M_get_size() const { return *_M_impl._M_node._M_valptr(); }
 351:/home/vdykyy/Install/STM-32/gcc-arm-none-eabi-6-2017-q2-update/arm-none-eabi/include/c++/6.3.1/bits/stl_list.h **** 
 352:/home/vdykyy/Install/STM-32/gcc-arm-none-eabi-6-2017-q2-update/arm-none-eabi/include/c++/6.3.1/bits/stl_list.h ****       void _M_set_size(size_t __n) { *_M_impl._M_node._M_valptr() = __n; }
 353:/home/vdykyy/Install/STM-32/gcc-arm-none-eabi-6-2017-q2-update/arm-none-eabi/include/c++/6.3.1/bits/stl_list.h **** 
 354:/home/vdykyy/Install/STM-32/gcc-arm-none-eabi-6-2017-q2-update/arm-none-eabi/include/c++/6.3.1/bits/stl_list.h ****       void _M_inc_size(size_t __n) { *_M_impl._M_node._M_valptr() += __n; }
 355:/home/vdykyy/Install/STM-32/gcc-arm-none-eabi-6-2017-q2-update/arm-none-eabi/include/c++/6.3.1/bits/stl_list.h **** 
 356:/home/vdykyy/Install/STM-32/gcc-arm-none-eabi-6-2017-q2-update/arm-none-eabi/include/c++/6.3.1/bits/stl_list.h ****       void _M_dec_size(size_t __n) { *_M_impl._M_node._M_valptr() -= __n; }
 357:/home/vdykyy/Install/STM-32/gcc-arm-none-eabi-6-2017-q2-update/arm-none-eabi/include/c++/6.3.1/bits/stl_list.h **** 
 358:/home/vdykyy/Install/STM-32/gcc-arm-none-eabi-6-2017-q2-update/arm-none-eabi/include/c++/6.3.1/bits/stl_list.h ****       size_t
 359:/home/vdykyy/Install/STM-32/gcc-arm-none-eabi-6-2017-q2-update/arm-none-eabi/include/c++/6.3.1/bits/stl_list.h ****       _M_distance(const __detail::_List_node_base* __first,
 360:/home/vdykyy/Install/STM-32/gcc-arm-none-eabi-6-2017-q2-update/arm-none-eabi/include/c++/6.3.1/bits/stl_list.h **** 		  const __detail::_List_node_base* __last) const
 361:/home/vdykyy/Install/STM-32/gcc-arm-none-eabi-6-2017-q2-update/arm-none-eabi/include/c++/6.3.1/bits/stl_list.h ****       { return _S_distance(__first, __last); }
 362:/home/vdykyy/Install/STM-32/gcc-arm-none-eabi-6-2017-q2-update/arm-none-eabi/include/c++/6.3.1/bits/stl_list.h **** 
 363:/home/vdykyy/Install/STM-32/gcc-arm-none-eabi-6-2017-q2-update/arm-none-eabi/include/c++/6.3.1/bits/stl_list.h ****       // return the stored size
 364:/home/vdykyy/Install/STM-32/gcc-arm-none-eabi-6-2017-q2-update/arm-none-eabi/include/c++/6.3.1/bits/stl_list.h ****       size_t _M_node_count() const { return *_M_impl._M_node._M_valptr(); }
 365:/home/vdykyy/Install/STM-32/gcc-arm-none-eabi-6-2017-q2-update/arm-none-eabi/include/c++/6.3.1/bits/stl_list.h **** #else
 366:/home/vdykyy/Install/STM-32/gcc-arm-none-eabi-6-2017-q2-update/arm-none-eabi/include/c++/6.3.1/bits/stl_list.h ****       // dummy implementations used when the size is not stored
 367:/home/vdykyy/Install/STM-32/gcc-arm-none-eabi-6-2017-q2-update/arm-none-eabi/include/c++/6.3.1/bits/stl_list.h ****       size_t _M_get_size() const { return 0; }
 368:/home/vdykyy/Install/STM-32/gcc-arm-none-eabi-6-2017-q2-update/arm-none-eabi/include/c++/6.3.1/bits/stl_list.h ****       void _M_set_size(size_t) { }
 369:/home/vdykyy/Install/STM-32/gcc-arm-none-eabi-6-2017-q2-update/arm-none-eabi/include/c++/6.3.1/bits/stl_list.h ****       void _M_inc_size(size_t) { }
 370:/home/vdykyy/Install/STM-32/gcc-arm-none-eabi-6-2017-q2-update/arm-none-eabi/include/c++/6.3.1/bits/stl_list.h ****       void _M_dec_size(size_t) { }
 371:/home/vdykyy/Install/STM-32/gcc-arm-none-eabi-6-2017-q2-update/arm-none-eabi/include/c++/6.3.1/bits/stl_list.h ****       size_t _M_distance(const void*, const void*) const { return 0; }
 372:/home/vdykyy/Install/STM-32/gcc-arm-none-eabi-6-2017-q2-update/arm-none-eabi/include/c++/6.3.1/bits/stl_list.h **** 
 373:/home/vdykyy/Install/STM-32/gcc-arm-none-eabi-6-2017-q2-update/arm-none-eabi/include/c++/6.3.1/bits/stl_list.h ****       // count the number of nodes
 374:/home/vdykyy/Install/STM-32/gcc-arm-none-eabi-6-2017-q2-update/arm-none-eabi/include/c++/6.3.1/bits/stl_list.h ****       size_t _M_node_count() const
 375:/home/vdykyy/Install/STM-32/gcc-arm-none-eabi-6-2017-q2-update/arm-none-eabi/include/c++/6.3.1/bits/stl_list.h ****       {
 376:/home/vdykyy/Install/STM-32/gcc-arm-none-eabi-6-2017-q2-update/arm-none-eabi/include/c++/6.3.1/bits/stl_list.h **** 	return _S_distance(_M_impl._M_node._M_next,
 377:/home/vdykyy/Install/STM-32/gcc-arm-none-eabi-6-2017-q2-update/arm-none-eabi/include/c++/6.3.1/bits/stl_list.h **** 			   std::__addressof(_M_impl._M_node));
 378:/home/vdykyy/Install/STM-32/gcc-arm-none-eabi-6-2017-q2-update/arm-none-eabi/include/c++/6.3.1/bits/stl_list.h ****       }
 379:/home/vdykyy/Install/STM-32/gcc-arm-none-eabi-6-2017-q2-update/arm-none-eabi/include/c++/6.3.1/bits/stl_list.h **** #endif
 380:/home/vdykyy/Install/STM-32/gcc-arm-none-eabi-6-2017-q2-update/arm-none-eabi/include/c++/6.3.1/bits/stl_list.h **** 
 381:/home/vdykyy/Install/STM-32/gcc-arm-none-eabi-6-2017-q2-update/arm-none-eabi/include/c++/6.3.1/bits/stl_list.h ****       typename _Node_alloc_traits::pointer
 382:/home/vdykyy/Install/STM-32/gcc-arm-none-eabi-6-2017-q2-update/arm-none-eabi/include/c++/6.3.1/bits/stl_list.h ****       _M_get_node()
 383:/home/vdykyy/Install/STM-32/gcc-arm-none-eabi-6-2017-q2-update/arm-none-eabi/include/c++/6.3.1/bits/stl_list.h ****       { return _Node_alloc_traits::allocate(_M_impl, 1); }
 384:/home/vdykyy/Install/STM-32/gcc-arm-none-eabi-6-2017-q2-update/arm-none-eabi/include/c++/6.3.1/bits/stl_list.h **** 
 385:/home/vdykyy/Install/STM-32/gcc-arm-none-eabi-6-2017-q2-update/arm-none-eabi/include/c++/6.3.1/bits/stl_list.h ****       void
 386:/home/vdykyy/Install/STM-32/gcc-arm-none-eabi-6-2017-q2-update/arm-none-eabi/include/c++/6.3.1/bits/stl_list.h ****       _M_put_node(typename _Node_alloc_traits::pointer __p) _GLIBCXX_NOEXCEPT
 387:/home/vdykyy/Install/STM-32/gcc-arm-none-eabi-6-2017-q2-update/arm-none-eabi/include/c++/6.3.1/bits/stl_list.h ****       { _Node_alloc_traits::deallocate(_M_impl, __p, 1); }
 388:/home/vdykyy/Install/STM-32/gcc-arm-none-eabi-6-2017-q2-update/arm-none-eabi/include/c++/6.3.1/bits/stl_list.h **** 
 389:/home/vdykyy/Install/STM-32/gcc-arm-none-eabi-6-2017-q2-update/arm-none-eabi/include/c++/6.3.1/bits/stl_list.h ****   public:
 390:/home/vdykyy/Install/STM-32/gcc-arm-none-eabi-6-2017-q2-update/arm-none-eabi/include/c++/6.3.1/bits/stl_list.h ****       typedef _Alloc allocator_type;
 391:/home/vdykyy/Install/STM-32/gcc-arm-none-eabi-6-2017-q2-update/arm-none-eabi/include/c++/6.3.1/bits/stl_list.h **** 
 392:/home/vdykyy/Install/STM-32/gcc-arm-none-eabi-6-2017-q2-update/arm-none-eabi/include/c++/6.3.1/bits/stl_list.h ****       _Node_alloc_type&
 393:/home/vdykyy/Install/STM-32/gcc-arm-none-eabi-6-2017-q2-update/arm-none-eabi/include/c++/6.3.1/bits/stl_list.h ****       _M_get_Node_allocator() _GLIBCXX_NOEXCEPT
 394:/home/vdykyy/Install/STM-32/gcc-arm-none-eabi-6-2017-q2-update/arm-none-eabi/include/c++/6.3.1/bits/stl_list.h ****       { return _M_impl; }
 395:/home/vdykyy/Install/STM-32/gcc-arm-none-eabi-6-2017-q2-update/arm-none-eabi/include/c++/6.3.1/bits/stl_list.h **** 
ARM GAS  /tmp/ccni6OXp.s 			page 12


 396:/home/vdykyy/Install/STM-32/gcc-arm-none-eabi-6-2017-q2-update/arm-none-eabi/include/c++/6.3.1/bits/stl_list.h ****       const _Node_alloc_type&
 397:/home/vdykyy/Install/STM-32/gcc-arm-none-eabi-6-2017-q2-update/arm-none-eabi/include/c++/6.3.1/bits/stl_list.h ****       _M_get_Node_allocator() const _GLIBCXX_NOEXCEPT
 398:/home/vdykyy/Install/STM-32/gcc-arm-none-eabi-6-2017-q2-update/arm-none-eabi/include/c++/6.3.1/bits/stl_list.h ****       { return _M_impl; }
 399:/home/vdykyy/Install/STM-32/gcc-arm-none-eabi-6-2017-q2-update/arm-none-eabi/include/c++/6.3.1/bits/stl_list.h **** 
 400:/home/vdykyy/Install/STM-32/gcc-arm-none-eabi-6-2017-q2-update/arm-none-eabi/include/c++/6.3.1/bits/stl_list.h ****       _List_base()
 401:/home/vdykyy/Install/STM-32/gcc-arm-none-eabi-6-2017-q2-update/arm-none-eabi/include/c++/6.3.1/bits/stl_list.h ****       : _M_impl()
 402:/home/vdykyy/Install/STM-32/gcc-arm-none-eabi-6-2017-q2-update/arm-none-eabi/include/c++/6.3.1/bits/stl_list.h ****       { _M_init(); }
 403:/home/vdykyy/Install/STM-32/gcc-arm-none-eabi-6-2017-q2-update/arm-none-eabi/include/c++/6.3.1/bits/stl_list.h **** 
 404:/home/vdykyy/Install/STM-32/gcc-arm-none-eabi-6-2017-q2-update/arm-none-eabi/include/c++/6.3.1/bits/stl_list.h ****       _List_base(const _Node_alloc_type& __a) _GLIBCXX_NOEXCEPT
 405:/home/vdykyy/Install/STM-32/gcc-arm-none-eabi-6-2017-q2-update/arm-none-eabi/include/c++/6.3.1/bits/stl_list.h ****       : _M_impl(__a)
 406:/home/vdykyy/Install/STM-32/gcc-arm-none-eabi-6-2017-q2-update/arm-none-eabi/include/c++/6.3.1/bits/stl_list.h ****       { _M_init(); }
 407:/home/vdykyy/Install/STM-32/gcc-arm-none-eabi-6-2017-q2-update/arm-none-eabi/include/c++/6.3.1/bits/stl_list.h **** 
 408:/home/vdykyy/Install/STM-32/gcc-arm-none-eabi-6-2017-q2-update/arm-none-eabi/include/c++/6.3.1/bits/stl_list.h **** #if __cplusplus >= 201103L
 409:/home/vdykyy/Install/STM-32/gcc-arm-none-eabi-6-2017-q2-update/arm-none-eabi/include/c++/6.3.1/bits/stl_list.h ****       _List_base(_List_base&& __x) noexcept
 410:/home/vdykyy/Install/STM-32/gcc-arm-none-eabi-6-2017-q2-update/arm-none-eabi/include/c++/6.3.1/bits/stl_list.h ****       : _M_impl(std::move(__x._M_get_Node_allocator()))
 411:/home/vdykyy/Install/STM-32/gcc-arm-none-eabi-6-2017-q2-update/arm-none-eabi/include/c++/6.3.1/bits/stl_list.h ****       { _M_move_nodes(std::move(__x)); }
 412:/home/vdykyy/Install/STM-32/gcc-arm-none-eabi-6-2017-q2-update/arm-none-eabi/include/c++/6.3.1/bits/stl_list.h **** 
 413:/home/vdykyy/Install/STM-32/gcc-arm-none-eabi-6-2017-q2-update/arm-none-eabi/include/c++/6.3.1/bits/stl_list.h ****       _List_base(_List_base&& __x, _Node_alloc_type&& __a)
 414:/home/vdykyy/Install/STM-32/gcc-arm-none-eabi-6-2017-q2-update/arm-none-eabi/include/c++/6.3.1/bits/stl_list.h ****       : _M_impl(std::move(__a))
 415:/home/vdykyy/Install/STM-32/gcc-arm-none-eabi-6-2017-q2-update/arm-none-eabi/include/c++/6.3.1/bits/stl_list.h ****       {
 416:/home/vdykyy/Install/STM-32/gcc-arm-none-eabi-6-2017-q2-update/arm-none-eabi/include/c++/6.3.1/bits/stl_list.h **** 	if (__x._M_get_Node_allocator() == _M_get_Node_allocator())
 417:/home/vdykyy/Install/STM-32/gcc-arm-none-eabi-6-2017-q2-update/arm-none-eabi/include/c++/6.3.1/bits/stl_list.h **** 	  _M_move_nodes(std::move(__x));
 418:/home/vdykyy/Install/STM-32/gcc-arm-none-eabi-6-2017-q2-update/arm-none-eabi/include/c++/6.3.1/bits/stl_list.h **** 	else
 419:/home/vdykyy/Install/STM-32/gcc-arm-none-eabi-6-2017-q2-update/arm-none-eabi/include/c++/6.3.1/bits/stl_list.h **** 	  _M_init(); // Caller must move individual elements.
 420:/home/vdykyy/Install/STM-32/gcc-arm-none-eabi-6-2017-q2-update/arm-none-eabi/include/c++/6.3.1/bits/stl_list.h ****       }
 421:/home/vdykyy/Install/STM-32/gcc-arm-none-eabi-6-2017-q2-update/arm-none-eabi/include/c++/6.3.1/bits/stl_list.h **** 
 422:/home/vdykyy/Install/STM-32/gcc-arm-none-eabi-6-2017-q2-update/arm-none-eabi/include/c++/6.3.1/bits/stl_list.h ****       void
 423:/home/vdykyy/Install/STM-32/gcc-arm-none-eabi-6-2017-q2-update/arm-none-eabi/include/c++/6.3.1/bits/stl_list.h ****       _M_move_nodes(_List_base&& __x)
 424:/home/vdykyy/Install/STM-32/gcc-arm-none-eabi-6-2017-q2-update/arm-none-eabi/include/c++/6.3.1/bits/stl_list.h ****       {
 425:/home/vdykyy/Install/STM-32/gcc-arm-none-eabi-6-2017-q2-update/arm-none-eabi/include/c++/6.3.1/bits/stl_list.h **** 	auto* const __xnode = std::__addressof(__x._M_impl._M_node);
 426:/home/vdykyy/Install/STM-32/gcc-arm-none-eabi-6-2017-q2-update/arm-none-eabi/include/c++/6.3.1/bits/stl_list.h **** 	if (__xnode->_M_next == __xnode)
 427:/home/vdykyy/Install/STM-32/gcc-arm-none-eabi-6-2017-q2-update/arm-none-eabi/include/c++/6.3.1/bits/stl_list.h **** 	  _M_init();
 428:/home/vdykyy/Install/STM-32/gcc-arm-none-eabi-6-2017-q2-update/arm-none-eabi/include/c++/6.3.1/bits/stl_list.h **** 	else
 429:/home/vdykyy/Install/STM-32/gcc-arm-none-eabi-6-2017-q2-update/arm-none-eabi/include/c++/6.3.1/bits/stl_list.h **** 	  {
 430:/home/vdykyy/Install/STM-32/gcc-arm-none-eabi-6-2017-q2-update/arm-none-eabi/include/c++/6.3.1/bits/stl_list.h **** 	    auto* const __node = std::__addressof(_M_impl._M_node);
 431:/home/vdykyy/Install/STM-32/gcc-arm-none-eabi-6-2017-q2-update/arm-none-eabi/include/c++/6.3.1/bits/stl_list.h **** 	    __node->_M_next = __xnode->_M_next;
 432:/home/vdykyy/Install/STM-32/gcc-arm-none-eabi-6-2017-q2-update/arm-none-eabi/include/c++/6.3.1/bits/stl_list.h **** 	    __node->_M_prev = __xnode->_M_prev;
 433:/home/vdykyy/Install/STM-32/gcc-arm-none-eabi-6-2017-q2-update/arm-none-eabi/include/c++/6.3.1/bits/stl_list.h **** 	    __node->_M_next->_M_prev = __node->_M_prev->_M_next = __node;
 434:/home/vdykyy/Install/STM-32/gcc-arm-none-eabi-6-2017-q2-update/arm-none-eabi/include/c++/6.3.1/bits/stl_list.h **** 	    _M_set_size(__x._M_get_size());
 435:/home/vdykyy/Install/STM-32/gcc-arm-none-eabi-6-2017-q2-update/arm-none-eabi/include/c++/6.3.1/bits/stl_list.h **** 	    __x._M_init();
 436:/home/vdykyy/Install/STM-32/gcc-arm-none-eabi-6-2017-q2-update/arm-none-eabi/include/c++/6.3.1/bits/stl_list.h **** 	  }
 437:/home/vdykyy/Install/STM-32/gcc-arm-none-eabi-6-2017-q2-update/arm-none-eabi/include/c++/6.3.1/bits/stl_list.h ****       }
 438:/home/vdykyy/Install/STM-32/gcc-arm-none-eabi-6-2017-q2-update/arm-none-eabi/include/c++/6.3.1/bits/stl_list.h **** #endif
 439:/home/vdykyy/Install/STM-32/gcc-arm-none-eabi-6-2017-q2-update/arm-none-eabi/include/c++/6.3.1/bits/stl_list.h **** 
 440:/home/vdykyy/Install/STM-32/gcc-arm-none-eabi-6-2017-q2-update/arm-none-eabi/include/c++/6.3.1/bits/stl_list.h ****       // This is what actually destroys the list.
 441:/home/vdykyy/Install/STM-32/gcc-arm-none-eabi-6-2017-q2-update/arm-none-eabi/include/c++/6.3.1/bits/stl_list.h ****       ~_List_base() _GLIBCXX_NOEXCEPT
 442:/home/vdykyy/Install/STM-32/gcc-arm-none-eabi-6-2017-q2-update/arm-none-eabi/include/c++/6.3.1/bits/stl_list.h ****       { _M_clear(); }
 443:/home/vdykyy/Install/STM-32/gcc-arm-none-eabi-6-2017-q2-update/arm-none-eabi/include/c++/6.3.1/bits/stl_list.h **** 
 444:/home/vdykyy/Install/STM-32/gcc-arm-none-eabi-6-2017-q2-update/arm-none-eabi/include/c++/6.3.1/bits/stl_list.h ****       void
 445:/home/vdykyy/Install/STM-32/gcc-arm-none-eabi-6-2017-q2-update/arm-none-eabi/include/c++/6.3.1/bits/stl_list.h ****       _M_clear() _GLIBCXX_NOEXCEPT;
 446:/home/vdykyy/Install/STM-32/gcc-arm-none-eabi-6-2017-q2-update/arm-none-eabi/include/c++/6.3.1/bits/stl_list.h **** 
 447:/home/vdykyy/Install/STM-32/gcc-arm-none-eabi-6-2017-q2-update/arm-none-eabi/include/c++/6.3.1/bits/stl_list.h ****       void
 448:/home/vdykyy/Install/STM-32/gcc-arm-none-eabi-6-2017-q2-update/arm-none-eabi/include/c++/6.3.1/bits/stl_list.h ****       _M_init() _GLIBCXX_NOEXCEPT
 449:/home/vdykyy/Install/STM-32/gcc-arm-none-eabi-6-2017-q2-update/arm-none-eabi/include/c++/6.3.1/bits/stl_list.h ****       {
 450:/home/vdykyy/Install/STM-32/gcc-arm-none-eabi-6-2017-q2-update/arm-none-eabi/include/c++/6.3.1/bits/stl_list.h ****         this->_M_impl._M_node._M_next = &this->_M_impl._M_node;
 156              		.loc 3 450 0
 157 0070 1B60     		str	r3, [r3]
ARM GAS  /tmp/ccni6OXp.s 			page 13


 451:/home/vdykyy/Install/STM-32/gcc-arm-none-eabi-6-2017-q2-update/arm-none-eabi/include/c++/6.3.1/bits/stl_list.h ****         this->_M_impl._M_node._M_prev = &this->_M_impl._M_node;
 158              		.loc 3 451 0
 159 0072 5B60     		str	r3, [r3, #4]
 160              	.LVL12:
 161              	.LBB340:
 162              	.LBB341:
 352:/home/vdykyy/Install/STM-32/gcc-arm-none-eabi-6-2017-q2-update/arm-none-eabi/include/c++/6.3.1/bits/stl_list.h **** 
 163              		.loc 3 352 0
 164 0074 9C60     		str	r4, [r3, #8]
 165              	.LVL13:
 166              	.LBE341:
 167              	.LBE340:
 168              	.LBE339:
 169              	.LBE338:
 170              	.LBE337:
 171              	.LBE336:
  13:src/Impl/cardiograph.cpp **** {
 172              		.loc 1 13 0
 173 0076 B361     		str	r3, [r6, #24]
 174              	.LBE343:
 175              		.loc 1 16 0
 176 0078 F8BD     		pop	{r3, r4, r5, r6, r7, pc}
 177              	.LVL14:
 178              	.L7:
 179 007a 00BF     		.align	2
 180              	.L6:
 181 007c 00000000 		.word	.LC0
 182              		.cfi_endproc
 183              	.LFE652:
 185              		.global	_ZN11CardiographC1Ev
 186              		.thumb_set _ZN11CardiographC1Ev,_ZN11CardiographC2Ev
 187              		.section	.text._ZN11CardiographD2Ev,"ax",%progbits
 188              		.align	1
 189              		.p2align 2,,3
 190              		.global	_ZN11CardiographD2Ev
 191              		.syntax unified
 192              		.thumb
 193              		.thumb_func
 194              		.fpu softvfp
 196              	_ZN11CardiographD2Ev:
 197              	.LFB655:
  17:src/Impl/cardiograph.cpp **** 
  18:src/Impl/cardiograph.cpp **** Cardiograph::~Cardiograph()
 198              		.loc 1 18 0
 199              		.cfi_startproc
 200              		@ args = 0, pretend = 0, frame = 0
 201              		@ frame_needed = 0, uses_anonymous_args = 0
 202              	.LVL15:
 203 0000 10B5     		push	{r4, lr}
 204              		.cfi_def_cfa_offset 8
 205              		.cfi_offset 4, -8
 206              		.cfi_offset 14, -4
 207              		.loc 1 18 0
 208 0002 0446     		mov	r4, r0
 209              	.LBB344:
  19:src/Impl/cardiograph.cpp **** {
  20:src/Impl/cardiograph.cpp ****     if (uartBuffer != nullptr)
ARM GAS  /tmp/ccni6OXp.s 			page 14


 210              		.loc 1 20 0
 211 0004 4068     		ldr	r0, [r0, #4]
 212              	.LVL16:
 213 0006 08B1     		cbz	r0, .L9
  21:src/Impl/cardiograph.cpp ****         delete[] uartBuffer;
 214              		.loc 1 21 0 discriminator 1
 215 0008 FFF7FEFF 		bl	_ZdaPv
 216              	.LVL17:
 217              	.L9:
  22:src/Impl/cardiograph.cpp **** 
  23:src/Impl/cardiograph.cpp ****     if (adcConversionBuffer != nullptr)
 218              		.loc 1 23 0
 219 000c E068     		ldr	r0, [r4, #12]
 220 000e 08B1     		cbz	r0, .L10
  24:src/Impl/cardiograph.cpp ****         delete[] adcConversionBuffer;
 221              		.loc 1 24 0 discriminator 1
 222 0010 FFF7FEFF 		bl	_ZdaPv
 223              	.LVL18:
 224              	.L10:
  25:src/Impl/cardiograph.cpp **** 
  26:src/Impl/cardiograph.cpp ****     if (settings != nullptr)
 225              		.loc 1 26 0
 226 0014 6069     		ldr	r0, [r4, #20]
 227 0016 08B1     		cbz	r0, .L11
  27:src/Impl/cardiograph.cpp ****         delete settings;
 228              		.loc 1 27 0
 229 0018 FFF7FEFF 		bl	_ZdlPv
 230              	.LVL19:
 231              	.L11:
 232              	.LBE344:
  28:src/Impl/cardiograph.cpp **** 
  29:src/Impl/cardiograph.cpp **** }
 233              		.loc 1 29 0
 234 001c 2046     		mov	r0, r4
 235 001e 10BD     		pop	{r4, pc}
 236              		.cfi_endproc
 237              	.LFE655:
 239              		.global	_ZN11CardiographD1Ev
 240              		.thumb_set _ZN11CardiographD1Ev,_ZN11CardiographD2Ev
 241              		.section	.text._ZN11Cardiograph4initEv,"ax",%progbits
 242              		.align	1
 243              		.p2align 2,,3
 244              		.global	_ZN11Cardiograph4initEv
 245              		.syntax unified
 246              		.thumb
 247              		.thumb_func
 248              		.fpu softvfp
 250              	_ZN11Cardiograph4initEv:
 251              	.LFB657:
  30:src/Impl/cardiograph.cpp **** 
  31:src/Impl/cardiograph.cpp **** void Cardiograph::init()
  32:src/Impl/cardiograph.cpp **** {   
 252              		.loc 1 32 0
 253              		.cfi_startproc
 254              		@ args = 0, pretend = 0, frame = 0
 255              		@ frame_needed = 0, uses_anonymous_args = 0
 256              	.LVL20:
ARM GAS  /tmp/ccni6OXp.s 			page 15


 257 0000 38B5     		push	{r3, r4, r5, lr}
 258              		.cfi_def_cfa_offset 16
 259              		.cfi_offset 3, -16
 260              		.cfi_offset 4, -12
 261              		.cfi_offset 5, -8
 262              		.cfi_offset 14, -4
 263              		.loc 1 32 0
 264 0002 0446     		mov	r4, r0
  33:src/Impl/cardiograph.cpp ****     adcBuffer = new AdcBuffer(settings->samples);
 265              		.loc 1 33 0
 266 0004 0C20     		movs	r0, #12
 267              	.LVL21:
 268 0006 FFF7FEFF 		bl	_Znwj
 269              	.LVL22:
 270 000a 0546     		mov	r5, r0
 271 000c 6369     		ldr	r3, [r4, #20]
 272 000e 9988     		ldrh	r1, [r3, #4]
 273 0010 FFF7FEFF 		bl	_ZN9AdcBufferC1Et
 274              	.LVL23:
 275              	.LBB345:
 276              	.LBB346:
  34:src/Impl/cardiograph.cpp ****     initTimerPeriod();
  35:src/Impl/cardiograph.cpp ****     listenCommand();
  36:src/Impl/cardiograph.cpp **** }
  37:src/Impl/cardiograph.cpp **** 
  38:src/Impl/cardiograph.cpp **** void Cardiograph::uartRxHandler()
  39:src/Impl/cardiograph.cpp **** {
  40:src/Impl/cardiograph.cpp ****     printf("UART RX: %X %X %X %X\n", uartBuffer[0], uartBuffer[1], uartBuffer[2], uartBuffer[3]);
  41:src/Impl/cardiograph.cpp ****     if (uartBuffer[0] == uartBuffer[3])
  42:src/Impl/cardiograph.cpp ****     {
  43:src/Impl/cardiograph.cpp ****         uint16_t data = (uartBuffer[1] << 8) | uartBuffer[2];
  44:src/Impl/cardiograph.cpp ****         decodeCommand(uartBuffer[0], data);
  45:src/Impl/cardiograph.cpp ****     }
  46:src/Impl/cardiograph.cpp ****     else
  47:src/Impl/cardiograph.cpp ****     {
  48:src/Impl/cardiograph.cpp ****         sendCommandResponse(CMD_ERROR);
  49:src/Impl/cardiograph.cpp ****     }
  50:src/Impl/cardiograph.cpp **** }
  51:src/Impl/cardiograph.cpp **** 
  52:src/Impl/cardiograph.cpp **** void Cardiograph::uartTxHandler()
  53:src/Impl/cardiograph.cpp **** {
  54:src/Impl/cardiograph.cpp ****     if (uartTxBuffer != nullptr)
  55:src/Impl/cardiograph.cpp ****     {
  56:src/Impl/cardiograph.cpp ****         delete[] uartTxBuffer;
  57:src/Impl/cardiograph.cpp ****         uartTxBuffer = nullptr;
  58:src/Impl/cardiograph.cpp ****     }
  59:src/Impl/cardiograph.cpp **** 
  60:src/Impl/cardiograph.cpp ****     if (uartTxQueue->size() > 0)
  61:src/Impl/cardiograph.cpp ****     {
  62:src/Impl/cardiograph.cpp ****         UartTxData* txData = uartTxQueue->front();
  63:src/Impl/cardiograph.cpp ****         uartTxBuffer = txData->buffer;
  64:src/Impl/cardiograph.cpp ****         //printf("Queue size: %u, txSize: %u\n", uartTxQueue->size(), txData->size);
  65:src/Impl/cardiograph.cpp ****         HAL_UART_Transmit_DMA(&huart1, uartTxBuffer, txData->size);
  66:src/Impl/cardiograph.cpp ****         uartTxQueue->pop_front();
  67:src/Impl/cardiograph.cpp ****         delete txData;
  68:src/Impl/cardiograph.cpp ****     }
  69:src/Impl/cardiograph.cpp ****     else
ARM GAS  /tmp/ccni6OXp.s 			page 16


  70:src/Impl/cardiograph.cpp ****     {
  71:src/Impl/cardiograph.cpp ****         isUartTxBusy = false;
  72:src/Impl/cardiograph.cpp ****     }
  73:src/Impl/cardiograph.cpp **** }
  74:src/Impl/cardiograph.cpp **** 
  75:src/Impl/cardiograph.cpp **** void Cardiograph::adcConversionHandler()
  76:src/Impl/cardiograph.cpp **** {
  77:src/Impl/cardiograph.cpp ****     /*uint16_t sum = 0;
  78:src/Impl/cardiograph.cpp ****     for (uint8_t i = 0; i < settings->adcConversionCount / 2; i++)
  79:src/Impl/cardiograph.cpp ****     {
  80:src/Impl/cardiograph.cpp ****         sum += ((adcConversionBuffer[i] >> 16) & 0xFFFF);
  81:src/Impl/cardiograph.cpp ****         sum += (adcConversionBuffer[i] & 0xFFFF);
  82:src/Impl/cardiograph.cpp ****     }
  83:src/Impl/cardiograph.cpp ****     adcBuffer->push(sum / settings->adcConversionCount);*/
  84:src/Impl/cardiograph.cpp ****     adcBuffer->push(adcConversionBuffer[0] & 0x0FFF);
  85:src/Impl/cardiograph.cpp ****     HAL_ADC_Stop_DMA(&hadc1);
  86:src/Impl/cardiograph.cpp **** 
  87:src/Impl/cardiograph.cpp ****     if (adcBuffer->isFull())
  88:src/Impl/cardiograph.cpp ****     {
  89:src/Impl/cardiograph.cpp ****         uint8_t* txBuffer = new uint8_t[adcBuffer->getSize() * 2] {0x00};
  90:src/Impl/cardiograph.cpp ****         adcBuffer->getBytes(txBuffer);
  91:src/Impl/cardiograph.cpp ****         transmitData(txBuffer, adcBuffer->getSize() * 2);
  92:src/Impl/cardiograph.cpp ****         adcBuffer->reset();
  93:src/Impl/cardiograph.cpp ****         //printf("Pending blocks: %u\n", pendingBlocks);
  94:src/Impl/cardiograph.cpp ****         if (--pendingBlocks == 0)
  95:src/Impl/cardiograph.cpp ****         {
  96:src/Impl/cardiograph.cpp ****             listenCommand();
  97:src/Impl/cardiograph.cpp ****             HAL_TIM_Base_Stop_IT(&htim1);
  98:src/Impl/cardiograph.cpp ****         }
  99:src/Impl/cardiograph.cpp ****     }
 100:src/Impl/cardiograph.cpp **** }
 101:src/Impl/cardiograph.cpp **** 
 102:src/Impl/cardiograph.cpp **** void Cardiograph::timerPeriodElapsedHandler()
 103:src/Impl/cardiograph.cpp **** {
 104:src/Impl/cardiograph.cpp ****     HAL_ADC_Start_DMA(&hadc1, adcConversionBuffer, settings->adcConversionCount);
 105:src/Impl/cardiograph.cpp **** }
 106:src/Impl/cardiograph.cpp **** 
 107:src/Impl/cardiograph.cpp **** void Cardiograph::initTimerPeriod()
 108:src/Impl/cardiograph.cpp **** {
 109:src/Impl/cardiograph.cpp ****     MX_TIM1_Init_Custom(settings->prescaler, settings->period);
 277              		.loc 1 109 0
 278 0014 6369     		ldr	r3, [r4, #20]
 279              	.LBE346:
 280              	.LBE345:
  33:src/Impl/cardiograph.cpp ****     adcBuffer = new AdcBuffer(settings->samples);
 281              		.loc 1 33 0
 282 0016 2561     		str	r5, [r4, #16]
 283              	.LVL24:
 284              	.LBB348:
 285              	.LBB347:
 286              		.loc 1 109 0
 287 0018 1989     		ldrh	r1, [r3, #8]
 288 001a 5888     		ldrh	r0, [r3, #2]
 289 001c FFF7FEFF 		bl	MX_TIM1_Init_Custom
 290              	.LVL25:
 291              	.LBE347:
 292              	.LBE348:
ARM GAS  /tmp/ccni6OXp.s 			page 17


 293              	.LBB349:
 294              	.LBB350:
 110:src/Impl/cardiograph.cpp **** }
 111:src/Impl/cardiograph.cpp **** 
 112:src/Impl/cardiograph.cpp **** void Cardiograph::decodeCommand(const uint8_t cmd, const uint16_t data)
 113:src/Impl/cardiograph.cpp **** {
 114:src/Impl/cardiograph.cpp ****     uint8_t* txBuffer = nullptr;
 115:src/Impl/cardiograph.cpp ****     switch (cmd)
 116:src/Impl/cardiograph.cpp ****     {
 117:src/Impl/cardiograph.cpp ****     case SET_TIME:
 118:src/Impl/cardiograph.cpp ****         settings->time = data;
 119:src/Impl/cardiograph.cpp ****         settings->updatePeriod();
 120:src/Impl/cardiograph.cpp ****         initTimerPeriod();
 121:src/Impl/cardiograph.cpp ****         sendCommandResponse(CMD_OK);
 122:src/Impl/cardiograph.cpp ****         listenCommand();
 123:src/Impl/cardiograph.cpp ****         break;
 124:src/Impl/cardiograph.cpp ****     case GET_TIME:
 125:src/Impl/cardiograph.cpp ****         sendCommandResponse(CMD_OK);
 126:src/Impl/cardiograph.cpp ****         txBuffer = new uint8_t[2];
 127:src/Impl/cardiograph.cpp ****         txBuffer[0] = (settings->time >> 8) & 0xFF;
 128:src/Impl/cardiograph.cpp ****         txBuffer[1] = settings->time & 0xFF;
 129:src/Impl/cardiograph.cpp ****         transmitData(txBuffer, 2);
 130:src/Impl/cardiograph.cpp ****         listenCommand();
 131:src/Impl/cardiograph.cpp ****         break;
 132:src/Impl/cardiograph.cpp ****     case SET_SAMPLES:
 133:src/Impl/cardiograph.cpp ****         settings->samples = data;
 134:src/Impl/cardiograph.cpp ****         settings->updatePeriod();
 135:src/Impl/cardiograph.cpp ****         adcBuffer->setSize(settings->samples);
 136:src/Impl/cardiograph.cpp ****         initTimerPeriod();
 137:src/Impl/cardiograph.cpp ****         sendCommandResponse(CMD_OK);
 138:src/Impl/cardiograph.cpp ****         listenCommand();
 139:src/Impl/cardiograph.cpp ****         break;
 140:src/Impl/cardiograph.cpp ****     case GET_SAMPLES:
 141:src/Impl/cardiograph.cpp ****         sendCommandResponse(CMD_OK);
 142:src/Impl/cardiograph.cpp ****         txBuffer = new uint8_t[2];
 143:src/Impl/cardiograph.cpp ****         txBuffer[0] = (settings->samples >> 8) & 0xFF;
 144:src/Impl/cardiograph.cpp ****         txBuffer[1] = settings->samples & 0xFF;
 145:src/Impl/cardiograph.cpp ****         transmitData(txBuffer, 2);
 146:src/Impl/cardiograph.cpp ****         listenCommand();
 147:src/Impl/cardiograph.cpp ****         break;
 148:src/Impl/cardiograph.cpp ****     case REQUEST_DATA:
 149:src/Impl/cardiograph.cpp ****         if (pendingBlocks == 0)
 150:src/Impl/cardiograph.cpp ****         {
 151:src/Impl/cardiograph.cpp ****             sendCommandResponse(CMD_OK);
 152:src/Impl/cardiograph.cpp ****             pendingBlocks = data & 0xFF;
 153:src/Impl/cardiograph.cpp ****             HAL_TIM_Base_Start_IT(&htim1);
 154:src/Impl/cardiograph.cpp ****         }
 155:src/Impl/cardiograph.cpp ****         else
 156:src/Impl/cardiograph.cpp ****         {
 157:src/Impl/cardiograph.cpp ****             sendCommandResponse(CMD_BUSY);
 158:src/Impl/cardiograph.cpp ****         }
 159:src/Impl/cardiograph.cpp ****         break;
 160:src/Impl/cardiograph.cpp ****     default:
 161:src/Impl/cardiograph.cpp ****         sendCommandResponse(CMD_ERROR);
 162:src/Impl/cardiograph.cpp ****         break;
 163:src/Impl/cardiograph.cpp ****     }
 164:src/Impl/cardiograph.cpp **** }
ARM GAS  /tmp/ccni6OXp.s 			page 18


 165:src/Impl/cardiograph.cpp **** 
 166:src/Impl/cardiograph.cpp **** void Cardiograph::sendCommandResponse(const UartCommandResponse response)
 167:src/Impl/cardiograph.cpp **** {
 168:src/Impl/cardiograph.cpp ****     uint8_t* txBuffer = new uint8_t[2];
 169:src/Impl/cardiograph.cpp ****     txBuffer[0] = (response >> 8) & 0xFF;
 170:src/Impl/cardiograph.cpp ****     txBuffer[1] = response & 0xFF;
 171:src/Impl/cardiograph.cpp ****     transmitData(txBuffer, 2);
 172:src/Impl/cardiograph.cpp ****     //printf("SENT COMMAND RESPONSE: %X\n", response);
 173:src/Impl/cardiograph.cpp **** }
 174:src/Impl/cardiograph.cpp **** 
 175:src/Impl/cardiograph.cpp **** void Cardiograph::listenCommand()
 176:src/Impl/cardiograph.cpp **** {
 177:src/Impl/cardiograph.cpp ****     HAL_UART_Receive_DMA(&huart1, uartBuffer, UART_RX_CMD_LEN);
 295              		.loc 1 177 0
 296 0020 6168     		ldr	r1, [r4, #4]
 297 0022 0422     		movs	r2, #4
 298              	.LBE350:
 299              	.LBE349:
  36:src/Impl/cardiograph.cpp **** 
 300              		.loc 1 36 0
 301 0024 BDE83840 		pop	{r3, r4, r5, lr}
 302              		.cfi_restore 14
 303              		.cfi_restore 5
 304              		.cfi_restore 4
 305              		.cfi_restore 3
 306              		.cfi_def_cfa_offset 0
 307              	.LVL26:
 308              	.LBB352:
 309              	.LBB351:
 310              		.loc 1 177 0
 311 0028 0148     		ldr	r0, .L24
 312 002a FFF7FEBF 		b	HAL_UART_Receive_DMA
 313              	.LVL27:
 314              	.L25:
 315 002e 00BF     		.align	2
 316              	.L24:
 317 0030 00000000 		.word	huart1
 318              	.LBE351:
 319              	.LBE352:
 320              		.cfi_endproc
 321              	.LFE657:
 323              		.section	.text._ZN11Cardiograph13uartTxHandlerEv,"ax",%progbits
 324              		.align	1
 325              		.p2align 2,,3
 326              		.global	_ZN11Cardiograph13uartTxHandlerEv
 327              		.syntax unified
 328              		.thumb
 329              		.thumb_func
 330              		.fpu softvfp
 332              	_ZN11Cardiograph13uartTxHandlerEv:
 333              	.LFB659:
  53:src/Impl/cardiograph.cpp ****     if (uartTxBuffer != nullptr)
 334              		.loc 1 53 0
 335              		.cfi_startproc
 336              		@ args = 0, pretend = 0, frame = 0
 337              		@ frame_needed = 0, uses_anonymous_args = 0
 338              	.LVL28:
ARM GAS  /tmp/ccni6OXp.s 			page 19


 339 0000 38B5     		push	{r3, r4, r5, lr}
 340              		.cfi_def_cfa_offset 16
 341              		.cfi_offset 3, -16
 342              		.cfi_offset 4, -12
 343              		.cfi_offset 5, -8
 344              		.cfi_offset 14, -4
  53:src/Impl/cardiograph.cpp ****     if (uartTxBuffer != nullptr)
 345              		.loc 1 53 0
 346 0002 0446     		mov	r4, r0
  54:src/Impl/cardiograph.cpp ****     {
 347              		.loc 1 54 0
 348 0004 8068     		ldr	r0, [r0, #8]
 349              	.LVL29:
 350 0006 18B1     		cbz	r0, .L27
  56:src/Impl/cardiograph.cpp ****         uartTxBuffer = nullptr;
 351              		.loc 1 56 0 discriminator 1
 352 0008 FFF7FEFF 		bl	_ZdaPv
 353              	.LVL30:
  57:src/Impl/cardiograph.cpp ****     }
 354              		.loc 1 57 0 discriminator 1
 355 000c 0023     		movs	r3, #0
 356 000e A360     		str	r3, [r4, #8]
 357              	.L27:
 358              	.LBB373:
  60:src/Impl/cardiograph.cpp ****     {
 359              		.loc 1 60 0
 360 0010 A269     		ldr	r2, [r4, #24]
 361 0012 9368     		ldr	r3, [r2, #8]
 362 0014 0BB9     		cbnz	r3, .L33
  71:src/Impl/cardiograph.cpp ****     }
 363              		.loc 1 71 0
 364 0016 2370     		strb	r3, [r4]
 365 0018 38BD     		pop	{r3, r4, r5, pc}
 366              	.LVL31:
 367              	.L33:
 368              	.LBB374:
  62:src/Impl/cardiograph.cpp ****         uartTxBuffer = txData->buffer;
 369              		.loc 1 62 0
 370 001a 1368     		ldr	r3, [r2]
  65:src/Impl/cardiograph.cpp ****         uartTxQueue->pop_front();
 371              		.loc 1 65 0
 372 001c 0B48     		ldr	r0, .L34
  62:src/Impl/cardiograph.cpp ****         uartTxBuffer = txData->buffer;
 373              		.loc 1 62 0
 374 001e 9D68     		ldr	r5, [r3, #8]
 375              	.LVL32:
  63:src/Impl/cardiograph.cpp ****         //printf("Queue size: %u, txSize: %u\n", uartTxQueue->size(), txData->size);
 376              		.loc 1 63 0
 377 0020 2968     		ldr	r1, [r5]
  65:src/Impl/cardiograph.cpp ****         uartTxQueue->pop_front();
 378              		.loc 1 65 0
 379 0022 AA88     		ldrh	r2, [r5, #4]
 380              	.LVL33:
  63:src/Impl/cardiograph.cpp ****         //printf("Queue size: %u, txSize: %u\n", uartTxQueue->size(), txData->size);
 381              		.loc 1 63 0
 382 0024 A160     		str	r1, [r4, #8]
  65:src/Impl/cardiograph.cpp ****         uartTxQueue->pop_front();
ARM GAS  /tmp/ccni6OXp.s 			page 20


 383              		.loc 1 65 0
 384 0026 FFF7FEFF 		bl	HAL_UART_Transmit_DMA
 385              	.LVL34:
  66:src/Impl/cardiograph.cpp ****         delete txData;
 386              		.loc 1 66 0
 387 002a A369     		ldr	r3, [r4, #24]
 388              	.LVL35:
 389              	.LBB375:
 390              	.LBB376:
 391              	.LBB377:
 392              	.LBB378:
 393              	.LBB379:
 356:/home/vdykyy/Install/STM-32/gcc-arm-none-eabi-6-2017-q2-update/arm-none-eabi/include/c++/6.3.1/bits/stl_list.h **** 
 394              		.loc 3 356 0
 395 002c 9A68     		ldr	r2, [r3, #8]
 396 002e 1C68     		ldr	r4, [r3]
 397              	.LVL36:
 398 0030 013A     		subs	r2, r2, #1
 399 0032 9A60     		str	r2, [r3, #8]
 400              	.LVL37:
 401              	.LBE379:
 402              	.LBE378:
 452:/home/vdykyy/Install/STM-32/gcc-arm-none-eabi-6-2017-q2-update/arm-none-eabi/include/c++/6.3.1/bits/stl_list.h **** 	_M_set_size(0);
 453:/home/vdykyy/Install/STM-32/gcc-arm-none-eabi-6-2017-q2-update/arm-none-eabi/include/c++/6.3.1/bits/stl_list.h ****       }
 454:/home/vdykyy/Install/STM-32/gcc-arm-none-eabi-6-2017-q2-update/arm-none-eabi/include/c++/6.3.1/bits/stl_list.h ****     };
 455:/home/vdykyy/Install/STM-32/gcc-arm-none-eabi-6-2017-q2-update/arm-none-eabi/include/c++/6.3.1/bits/stl_list.h **** 
 456:/home/vdykyy/Install/STM-32/gcc-arm-none-eabi-6-2017-q2-update/arm-none-eabi/include/c++/6.3.1/bits/stl_list.h ****   /**
 457:/home/vdykyy/Install/STM-32/gcc-arm-none-eabi-6-2017-q2-update/arm-none-eabi/include/c++/6.3.1/bits/stl_list.h ****    *  @brief A standard container with linear time access to elements,
 458:/home/vdykyy/Install/STM-32/gcc-arm-none-eabi-6-2017-q2-update/arm-none-eabi/include/c++/6.3.1/bits/stl_list.h ****    *  and fixed time insertion/deletion at any point in the sequence.
 459:/home/vdykyy/Install/STM-32/gcc-arm-none-eabi-6-2017-q2-update/arm-none-eabi/include/c++/6.3.1/bits/stl_list.h ****    *
 460:/home/vdykyy/Install/STM-32/gcc-arm-none-eabi-6-2017-q2-update/arm-none-eabi/include/c++/6.3.1/bits/stl_list.h ****    *  @ingroup sequences
 461:/home/vdykyy/Install/STM-32/gcc-arm-none-eabi-6-2017-q2-update/arm-none-eabi/include/c++/6.3.1/bits/stl_list.h ****    *
 462:/home/vdykyy/Install/STM-32/gcc-arm-none-eabi-6-2017-q2-update/arm-none-eabi/include/c++/6.3.1/bits/stl_list.h ****    *  @tparam _Tp  Type of element.
 463:/home/vdykyy/Install/STM-32/gcc-arm-none-eabi-6-2017-q2-update/arm-none-eabi/include/c++/6.3.1/bits/stl_list.h ****    *  @tparam _Alloc  Allocator type, defaults to allocator<_Tp>.
 464:/home/vdykyy/Install/STM-32/gcc-arm-none-eabi-6-2017-q2-update/arm-none-eabi/include/c++/6.3.1/bits/stl_list.h ****    *
 465:/home/vdykyy/Install/STM-32/gcc-arm-none-eabi-6-2017-q2-update/arm-none-eabi/include/c++/6.3.1/bits/stl_list.h ****    *  Meets the requirements of a <a href="tables.html#65">container</a>, a
 466:/home/vdykyy/Install/STM-32/gcc-arm-none-eabi-6-2017-q2-update/arm-none-eabi/include/c++/6.3.1/bits/stl_list.h ****    *  <a href="tables.html#66">reversible container</a>, and a
 467:/home/vdykyy/Install/STM-32/gcc-arm-none-eabi-6-2017-q2-update/arm-none-eabi/include/c++/6.3.1/bits/stl_list.h ****    *  <a href="tables.html#67">sequence</a>, including the
 468:/home/vdykyy/Install/STM-32/gcc-arm-none-eabi-6-2017-q2-update/arm-none-eabi/include/c++/6.3.1/bits/stl_list.h ****    *  <a href="tables.html#68">optional sequence requirements</a> with the
 469:/home/vdykyy/Install/STM-32/gcc-arm-none-eabi-6-2017-q2-update/arm-none-eabi/include/c++/6.3.1/bits/stl_list.h ****    *  %exception of @c at and @c operator[].
 470:/home/vdykyy/Install/STM-32/gcc-arm-none-eabi-6-2017-q2-update/arm-none-eabi/include/c++/6.3.1/bits/stl_list.h ****    *
 471:/home/vdykyy/Install/STM-32/gcc-arm-none-eabi-6-2017-q2-update/arm-none-eabi/include/c++/6.3.1/bits/stl_list.h ****    *  This is a @e doubly @e linked %list.  Traversal up and down the
 472:/home/vdykyy/Install/STM-32/gcc-arm-none-eabi-6-2017-q2-update/arm-none-eabi/include/c++/6.3.1/bits/stl_list.h ****    *  %list requires linear time, but adding and removing elements (or
 473:/home/vdykyy/Install/STM-32/gcc-arm-none-eabi-6-2017-q2-update/arm-none-eabi/include/c++/6.3.1/bits/stl_list.h ****    *  @e nodes) is done in constant time, regardless of where the
 474:/home/vdykyy/Install/STM-32/gcc-arm-none-eabi-6-2017-q2-update/arm-none-eabi/include/c++/6.3.1/bits/stl_list.h ****    *  change takes place.  Unlike std::vector and std::deque,
 475:/home/vdykyy/Install/STM-32/gcc-arm-none-eabi-6-2017-q2-update/arm-none-eabi/include/c++/6.3.1/bits/stl_list.h ****    *  random-access iterators are not provided, so subscripting ( @c
 476:/home/vdykyy/Install/STM-32/gcc-arm-none-eabi-6-2017-q2-update/arm-none-eabi/include/c++/6.3.1/bits/stl_list.h ****    *  [] ) access is not allowed.  For algorithms which only need
 477:/home/vdykyy/Install/STM-32/gcc-arm-none-eabi-6-2017-q2-update/arm-none-eabi/include/c++/6.3.1/bits/stl_list.h ****    *  sequential access, this lack makes no difference.
 478:/home/vdykyy/Install/STM-32/gcc-arm-none-eabi-6-2017-q2-update/arm-none-eabi/include/c++/6.3.1/bits/stl_list.h ****    *
 479:/home/vdykyy/Install/STM-32/gcc-arm-none-eabi-6-2017-q2-update/arm-none-eabi/include/c++/6.3.1/bits/stl_list.h ****    *  Also unlike the other standard containers, std::list provides
 480:/home/vdykyy/Install/STM-32/gcc-arm-none-eabi-6-2017-q2-update/arm-none-eabi/include/c++/6.3.1/bits/stl_list.h ****    *  specialized algorithms %unique to linked lists, such as
 481:/home/vdykyy/Install/STM-32/gcc-arm-none-eabi-6-2017-q2-update/arm-none-eabi/include/c++/6.3.1/bits/stl_list.h ****    *  splicing, sorting, and in-place reversal.
 482:/home/vdykyy/Install/STM-32/gcc-arm-none-eabi-6-2017-q2-update/arm-none-eabi/include/c++/6.3.1/bits/stl_list.h ****    *
 483:/home/vdykyy/Install/STM-32/gcc-arm-none-eabi-6-2017-q2-update/arm-none-eabi/include/c++/6.3.1/bits/stl_list.h ****    *  A couple points on memory allocation for list<Tp>:
 484:/home/vdykyy/Install/STM-32/gcc-arm-none-eabi-6-2017-q2-update/arm-none-eabi/include/c++/6.3.1/bits/stl_list.h ****    *
 485:/home/vdykyy/Install/STM-32/gcc-arm-none-eabi-6-2017-q2-update/arm-none-eabi/include/c++/6.3.1/bits/stl_list.h ****    *  First, we never actually allocate a Tp, we allocate
 486:/home/vdykyy/Install/STM-32/gcc-arm-none-eabi-6-2017-q2-update/arm-none-eabi/include/c++/6.3.1/bits/stl_list.h ****    *  List_node<Tp>'s and trust [20.1.5]/4 to DTRT.  This is to ensure
ARM GAS  /tmp/ccni6OXp.s 			page 21


 487:/home/vdykyy/Install/STM-32/gcc-arm-none-eabi-6-2017-q2-update/arm-none-eabi/include/c++/6.3.1/bits/stl_list.h ****    *  that after elements from %list<X,Alloc1> are spliced into
 488:/home/vdykyy/Install/STM-32/gcc-arm-none-eabi-6-2017-q2-update/arm-none-eabi/include/c++/6.3.1/bits/stl_list.h ****    *  %list<X,Alloc2>, destroying the memory of the second %list is a
 489:/home/vdykyy/Install/STM-32/gcc-arm-none-eabi-6-2017-q2-update/arm-none-eabi/include/c++/6.3.1/bits/stl_list.h ****    *  valid operation, i.e., Alloc1 giveth and Alloc2 taketh away.
 490:/home/vdykyy/Install/STM-32/gcc-arm-none-eabi-6-2017-q2-update/arm-none-eabi/include/c++/6.3.1/bits/stl_list.h ****    *
 491:/home/vdykyy/Install/STM-32/gcc-arm-none-eabi-6-2017-q2-update/arm-none-eabi/include/c++/6.3.1/bits/stl_list.h ****    *  Second, a %list conceptually represented as
 492:/home/vdykyy/Install/STM-32/gcc-arm-none-eabi-6-2017-q2-update/arm-none-eabi/include/c++/6.3.1/bits/stl_list.h ****    *  @code
 493:/home/vdykyy/Install/STM-32/gcc-arm-none-eabi-6-2017-q2-update/arm-none-eabi/include/c++/6.3.1/bits/stl_list.h ****    *    A <---> B <---> C <---> D
 494:/home/vdykyy/Install/STM-32/gcc-arm-none-eabi-6-2017-q2-update/arm-none-eabi/include/c++/6.3.1/bits/stl_list.h ****    *  @endcode
 495:/home/vdykyy/Install/STM-32/gcc-arm-none-eabi-6-2017-q2-update/arm-none-eabi/include/c++/6.3.1/bits/stl_list.h ****    *  is actually circular; a link exists between A and D.  The %list
 496:/home/vdykyy/Install/STM-32/gcc-arm-none-eabi-6-2017-q2-update/arm-none-eabi/include/c++/6.3.1/bits/stl_list.h ****    *  class holds (as its only data member) a private list::iterator
 497:/home/vdykyy/Install/STM-32/gcc-arm-none-eabi-6-2017-q2-update/arm-none-eabi/include/c++/6.3.1/bits/stl_list.h ****    *  pointing to @e D, not to @e A!  To get to the head of the %list,
 498:/home/vdykyy/Install/STM-32/gcc-arm-none-eabi-6-2017-q2-update/arm-none-eabi/include/c++/6.3.1/bits/stl_list.h ****    *  we start at the tail and move forward by one.  When this member
 499:/home/vdykyy/Install/STM-32/gcc-arm-none-eabi-6-2017-q2-update/arm-none-eabi/include/c++/6.3.1/bits/stl_list.h ****    *  iterator's next/previous pointers refer to itself, the %list is
 500:/home/vdykyy/Install/STM-32/gcc-arm-none-eabi-6-2017-q2-update/arm-none-eabi/include/c++/6.3.1/bits/stl_list.h ****    *  %empty. 
 501:/home/vdykyy/Install/STM-32/gcc-arm-none-eabi-6-2017-q2-update/arm-none-eabi/include/c++/6.3.1/bits/stl_list.h ****   */
 502:/home/vdykyy/Install/STM-32/gcc-arm-none-eabi-6-2017-q2-update/arm-none-eabi/include/c++/6.3.1/bits/stl_list.h ****   template<typename _Tp, typename _Alloc = std::allocator<_Tp> >
 503:/home/vdykyy/Install/STM-32/gcc-arm-none-eabi-6-2017-q2-update/arm-none-eabi/include/c++/6.3.1/bits/stl_list.h ****     class list : protected _List_base<_Tp, _Alloc>
 504:/home/vdykyy/Install/STM-32/gcc-arm-none-eabi-6-2017-q2-update/arm-none-eabi/include/c++/6.3.1/bits/stl_list.h ****     {
 505:/home/vdykyy/Install/STM-32/gcc-arm-none-eabi-6-2017-q2-update/arm-none-eabi/include/c++/6.3.1/bits/stl_list.h ****       // concept requirements
 506:/home/vdykyy/Install/STM-32/gcc-arm-none-eabi-6-2017-q2-update/arm-none-eabi/include/c++/6.3.1/bits/stl_list.h ****       typedef typename _Alloc::value_type                _Alloc_value_type;
 507:/home/vdykyy/Install/STM-32/gcc-arm-none-eabi-6-2017-q2-update/arm-none-eabi/include/c++/6.3.1/bits/stl_list.h ****       __glibcxx_class_requires(_Tp, _SGIAssignableConcept)
 508:/home/vdykyy/Install/STM-32/gcc-arm-none-eabi-6-2017-q2-update/arm-none-eabi/include/c++/6.3.1/bits/stl_list.h ****       __glibcxx_class_requires2(_Tp, _Alloc_value_type, _SameTypeConcept)
 509:/home/vdykyy/Install/STM-32/gcc-arm-none-eabi-6-2017-q2-update/arm-none-eabi/include/c++/6.3.1/bits/stl_list.h **** 
 510:/home/vdykyy/Install/STM-32/gcc-arm-none-eabi-6-2017-q2-update/arm-none-eabi/include/c++/6.3.1/bits/stl_list.h ****       typedef _List_base<_Tp, _Alloc>                    _Base;
 511:/home/vdykyy/Install/STM-32/gcc-arm-none-eabi-6-2017-q2-update/arm-none-eabi/include/c++/6.3.1/bits/stl_list.h ****       typedef typename _Base::_Tp_alloc_type		 _Tp_alloc_type;
 512:/home/vdykyy/Install/STM-32/gcc-arm-none-eabi-6-2017-q2-update/arm-none-eabi/include/c++/6.3.1/bits/stl_list.h ****       typedef typename _Base::_Tp_alloc_traits		 _Tp_alloc_traits;
 513:/home/vdykyy/Install/STM-32/gcc-arm-none-eabi-6-2017-q2-update/arm-none-eabi/include/c++/6.3.1/bits/stl_list.h ****       typedef typename _Base::_Node_alloc_type		 _Node_alloc_type;
 514:/home/vdykyy/Install/STM-32/gcc-arm-none-eabi-6-2017-q2-update/arm-none-eabi/include/c++/6.3.1/bits/stl_list.h ****       typedef typename _Base::_Node_alloc_traits	 _Node_alloc_traits;
 515:/home/vdykyy/Install/STM-32/gcc-arm-none-eabi-6-2017-q2-update/arm-none-eabi/include/c++/6.3.1/bits/stl_list.h **** 
 516:/home/vdykyy/Install/STM-32/gcc-arm-none-eabi-6-2017-q2-update/arm-none-eabi/include/c++/6.3.1/bits/stl_list.h ****     public:
 517:/home/vdykyy/Install/STM-32/gcc-arm-none-eabi-6-2017-q2-update/arm-none-eabi/include/c++/6.3.1/bits/stl_list.h ****       typedef _Tp                                        value_type;
 518:/home/vdykyy/Install/STM-32/gcc-arm-none-eabi-6-2017-q2-update/arm-none-eabi/include/c++/6.3.1/bits/stl_list.h ****       typedef typename _Tp_alloc_traits::pointer	 pointer;
 519:/home/vdykyy/Install/STM-32/gcc-arm-none-eabi-6-2017-q2-update/arm-none-eabi/include/c++/6.3.1/bits/stl_list.h ****       typedef typename _Tp_alloc_traits::const_pointer	 const_pointer;
 520:/home/vdykyy/Install/STM-32/gcc-arm-none-eabi-6-2017-q2-update/arm-none-eabi/include/c++/6.3.1/bits/stl_list.h ****       typedef typename _Tp_alloc_traits::reference	 reference;
 521:/home/vdykyy/Install/STM-32/gcc-arm-none-eabi-6-2017-q2-update/arm-none-eabi/include/c++/6.3.1/bits/stl_list.h ****       typedef typename _Tp_alloc_traits::const_reference const_reference;
 522:/home/vdykyy/Install/STM-32/gcc-arm-none-eabi-6-2017-q2-update/arm-none-eabi/include/c++/6.3.1/bits/stl_list.h ****       typedef _List_iterator<_Tp>			 iterator;
 523:/home/vdykyy/Install/STM-32/gcc-arm-none-eabi-6-2017-q2-update/arm-none-eabi/include/c++/6.3.1/bits/stl_list.h ****       typedef _List_const_iterator<_Tp>			 const_iterator;
 524:/home/vdykyy/Install/STM-32/gcc-arm-none-eabi-6-2017-q2-update/arm-none-eabi/include/c++/6.3.1/bits/stl_list.h ****       typedef std::reverse_iterator<const_iterator>      const_reverse_iterator;
 525:/home/vdykyy/Install/STM-32/gcc-arm-none-eabi-6-2017-q2-update/arm-none-eabi/include/c++/6.3.1/bits/stl_list.h ****       typedef std::reverse_iterator<iterator>            reverse_iterator;
 526:/home/vdykyy/Install/STM-32/gcc-arm-none-eabi-6-2017-q2-update/arm-none-eabi/include/c++/6.3.1/bits/stl_list.h ****       typedef size_t                                     size_type;
 527:/home/vdykyy/Install/STM-32/gcc-arm-none-eabi-6-2017-q2-update/arm-none-eabi/include/c++/6.3.1/bits/stl_list.h ****       typedef ptrdiff_t                                  difference_type;
 528:/home/vdykyy/Install/STM-32/gcc-arm-none-eabi-6-2017-q2-update/arm-none-eabi/include/c++/6.3.1/bits/stl_list.h ****       typedef _Alloc                                     allocator_type;
 529:/home/vdykyy/Install/STM-32/gcc-arm-none-eabi-6-2017-q2-update/arm-none-eabi/include/c++/6.3.1/bits/stl_list.h **** 
 530:/home/vdykyy/Install/STM-32/gcc-arm-none-eabi-6-2017-q2-update/arm-none-eabi/include/c++/6.3.1/bits/stl_list.h ****     protected:
 531:/home/vdykyy/Install/STM-32/gcc-arm-none-eabi-6-2017-q2-update/arm-none-eabi/include/c++/6.3.1/bits/stl_list.h ****       // Note that pointers-to-_Node's can be ctor-converted to
 532:/home/vdykyy/Install/STM-32/gcc-arm-none-eabi-6-2017-q2-update/arm-none-eabi/include/c++/6.3.1/bits/stl_list.h ****       // iterator types.
 533:/home/vdykyy/Install/STM-32/gcc-arm-none-eabi-6-2017-q2-update/arm-none-eabi/include/c++/6.3.1/bits/stl_list.h ****       typedef _List_node<_Tp>				 _Node;
 534:/home/vdykyy/Install/STM-32/gcc-arm-none-eabi-6-2017-q2-update/arm-none-eabi/include/c++/6.3.1/bits/stl_list.h **** 
 535:/home/vdykyy/Install/STM-32/gcc-arm-none-eabi-6-2017-q2-update/arm-none-eabi/include/c++/6.3.1/bits/stl_list.h ****       using _Base::_M_impl;
 536:/home/vdykyy/Install/STM-32/gcc-arm-none-eabi-6-2017-q2-update/arm-none-eabi/include/c++/6.3.1/bits/stl_list.h ****       using _Base::_M_put_node;
 537:/home/vdykyy/Install/STM-32/gcc-arm-none-eabi-6-2017-q2-update/arm-none-eabi/include/c++/6.3.1/bits/stl_list.h ****       using _Base::_M_get_node;
 538:/home/vdykyy/Install/STM-32/gcc-arm-none-eabi-6-2017-q2-update/arm-none-eabi/include/c++/6.3.1/bits/stl_list.h ****       using _Base::_M_get_Node_allocator;
 539:/home/vdykyy/Install/STM-32/gcc-arm-none-eabi-6-2017-q2-update/arm-none-eabi/include/c++/6.3.1/bits/stl_list.h **** 
 540:/home/vdykyy/Install/STM-32/gcc-arm-none-eabi-6-2017-q2-update/arm-none-eabi/include/c++/6.3.1/bits/stl_list.h ****       /**
 541:/home/vdykyy/Install/STM-32/gcc-arm-none-eabi-6-2017-q2-update/arm-none-eabi/include/c++/6.3.1/bits/stl_list.h ****        *  @param  __args  An instance of user data.
 542:/home/vdykyy/Install/STM-32/gcc-arm-none-eabi-6-2017-q2-update/arm-none-eabi/include/c++/6.3.1/bits/stl_list.h ****        *
 543:/home/vdykyy/Install/STM-32/gcc-arm-none-eabi-6-2017-q2-update/arm-none-eabi/include/c++/6.3.1/bits/stl_list.h ****        *  Allocates space for a new node and constructs a copy of
ARM GAS  /tmp/ccni6OXp.s 			page 22


 544:/home/vdykyy/Install/STM-32/gcc-arm-none-eabi-6-2017-q2-update/arm-none-eabi/include/c++/6.3.1/bits/stl_list.h ****        *  @a __args in it.
 545:/home/vdykyy/Install/STM-32/gcc-arm-none-eabi-6-2017-q2-update/arm-none-eabi/include/c++/6.3.1/bits/stl_list.h ****        */
 546:/home/vdykyy/Install/STM-32/gcc-arm-none-eabi-6-2017-q2-update/arm-none-eabi/include/c++/6.3.1/bits/stl_list.h **** #if __cplusplus < 201103L
 547:/home/vdykyy/Install/STM-32/gcc-arm-none-eabi-6-2017-q2-update/arm-none-eabi/include/c++/6.3.1/bits/stl_list.h ****       _Node*
 548:/home/vdykyy/Install/STM-32/gcc-arm-none-eabi-6-2017-q2-update/arm-none-eabi/include/c++/6.3.1/bits/stl_list.h ****       _M_create_node(const value_type& __x)
 549:/home/vdykyy/Install/STM-32/gcc-arm-none-eabi-6-2017-q2-update/arm-none-eabi/include/c++/6.3.1/bits/stl_list.h ****       {
 550:/home/vdykyy/Install/STM-32/gcc-arm-none-eabi-6-2017-q2-update/arm-none-eabi/include/c++/6.3.1/bits/stl_list.h **** 	_Node* __p = this->_M_get_node();
 551:/home/vdykyy/Install/STM-32/gcc-arm-none-eabi-6-2017-q2-update/arm-none-eabi/include/c++/6.3.1/bits/stl_list.h **** 	__try
 552:/home/vdykyy/Install/STM-32/gcc-arm-none-eabi-6-2017-q2-update/arm-none-eabi/include/c++/6.3.1/bits/stl_list.h **** 	  {
 553:/home/vdykyy/Install/STM-32/gcc-arm-none-eabi-6-2017-q2-update/arm-none-eabi/include/c++/6.3.1/bits/stl_list.h **** 	    _Tp_alloc_type __alloc(_M_get_Node_allocator());
 554:/home/vdykyy/Install/STM-32/gcc-arm-none-eabi-6-2017-q2-update/arm-none-eabi/include/c++/6.3.1/bits/stl_list.h **** 	    __alloc.construct(__p->_M_valptr(), __x);
 555:/home/vdykyy/Install/STM-32/gcc-arm-none-eabi-6-2017-q2-update/arm-none-eabi/include/c++/6.3.1/bits/stl_list.h **** 	  }
 556:/home/vdykyy/Install/STM-32/gcc-arm-none-eabi-6-2017-q2-update/arm-none-eabi/include/c++/6.3.1/bits/stl_list.h **** 	__catch(...)
 557:/home/vdykyy/Install/STM-32/gcc-arm-none-eabi-6-2017-q2-update/arm-none-eabi/include/c++/6.3.1/bits/stl_list.h **** 	  {
 558:/home/vdykyy/Install/STM-32/gcc-arm-none-eabi-6-2017-q2-update/arm-none-eabi/include/c++/6.3.1/bits/stl_list.h **** 	    _M_put_node(__p);
 559:/home/vdykyy/Install/STM-32/gcc-arm-none-eabi-6-2017-q2-update/arm-none-eabi/include/c++/6.3.1/bits/stl_list.h **** 	    __throw_exception_again;
 560:/home/vdykyy/Install/STM-32/gcc-arm-none-eabi-6-2017-q2-update/arm-none-eabi/include/c++/6.3.1/bits/stl_list.h **** 	  }
 561:/home/vdykyy/Install/STM-32/gcc-arm-none-eabi-6-2017-q2-update/arm-none-eabi/include/c++/6.3.1/bits/stl_list.h **** 	return __p;
 562:/home/vdykyy/Install/STM-32/gcc-arm-none-eabi-6-2017-q2-update/arm-none-eabi/include/c++/6.3.1/bits/stl_list.h ****       }
 563:/home/vdykyy/Install/STM-32/gcc-arm-none-eabi-6-2017-q2-update/arm-none-eabi/include/c++/6.3.1/bits/stl_list.h **** #else
 564:/home/vdykyy/Install/STM-32/gcc-arm-none-eabi-6-2017-q2-update/arm-none-eabi/include/c++/6.3.1/bits/stl_list.h ****       template<typename... _Args>
 565:/home/vdykyy/Install/STM-32/gcc-arm-none-eabi-6-2017-q2-update/arm-none-eabi/include/c++/6.3.1/bits/stl_list.h ****         _Node*
 566:/home/vdykyy/Install/STM-32/gcc-arm-none-eabi-6-2017-q2-update/arm-none-eabi/include/c++/6.3.1/bits/stl_list.h ****         _M_create_node(_Args&&... __args)
 567:/home/vdykyy/Install/STM-32/gcc-arm-none-eabi-6-2017-q2-update/arm-none-eabi/include/c++/6.3.1/bits/stl_list.h **** 	{
 568:/home/vdykyy/Install/STM-32/gcc-arm-none-eabi-6-2017-q2-update/arm-none-eabi/include/c++/6.3.1/bits/stl_list.h **** 	  auto __p = this->_M_get_node();
 569:/home/vdykyy/Install/STM-32/gcc-arm-none-eabi-6-2017-q2-update/arm-none-eabi/include/c++/6.3.1/bits/stl_list.h **** 	  auto& __alloc = _M_get_Node_allocator();
 570:/home/vdykyy/Install/STM-32/gcc-arm-none-eabi-6-2017-q2-update/arm-none-eabi/include/c++/6.3.1/bits/stl_list.h **** 	  __allocated_ptr<_Node_alloc_type> __guard{__alloc, __p};
 571:/home/vdykyy/Install/STM-32/gcc-arm-none-eabi-6-2017-q2-update/arm-none-eabi/include/c++/6.3.1/bits/stl_list.h **** 	  _Node_alloc_traits::construct(__alloc, __p->_M_valptr(),
 572:/home/vdykyy/Install/STM-32/gcc-arm-none-eabi-6-2017-q2-update/arm-none-eabi/include/c++/6.3.1/bits/stl_list.h **** 					std::forward<_Args>(__args)...);
 573:/home/vdykyy/Install/STM-32/gcc-arm-none-eabi-6-2017-q2-update/arm-none-eabi/include/c++/6.3.1/bits/stl_list.h **** 	  __guard = nullptr;
 574:/home/vdykyy/Install/STM-32/gcc-arm-none-eabi-6-2017-q2-update/arm-none-eabi/include/c++/6.3.1/bits/stl_list.h **** 	  return __p;
 575:/home/vdykyy/Install/STM-32/gcc-arm-none-eabi-6-2017-q2-update/arm-none-eabi/include/c++/6.3.1/bits/stl_list.h **** 	}
 576:/home/vdykyy/Install/STM-32/gcc-arm-none-eabi-6-2017-q2-update/arm-none-eabi/include/c++/6.3.1/bits/stl_list.h **** #endif
 577:/home/vdykyy/Install/STM-32/gcc-arm-none-eabi-6-2017-q2-update/arm-none-eabi/include/c++/6.3.1/bits/stl_list.h **** 
 578:/home/vdykyy/Install/STM-32/gcc-arm-none-eabi-6-2017-q2-update/arm-none-eabi/include/c++/6.3.1/bits/stl_list.h ****     public:
 579:/home/vdykyy/Install/STM-32/gcc-arm-none-eabi-6-2017-q2-update/arm-none-eabi/include/c++/6.3.1/bits/stl_list.h ****       // [23.2.2.1] construct/copy/destroy
 580:/home/vdykyy/Install/STM-32/gcc-arm-none-eabi-6-2017-q2-update/arm-none-eabi/include/c++/6.3.1/bits/stl_list.h ****       // (assign() and get_allocator() are also listed in this section)
 581:/home/vdykyy/Install/STM-32/gcc-arm-none-eabi-6-2017-q2-update/arm-none-eabi/include/c++/6.3.1/bits/stl_list.h **** 
 582:/home/vdykyy/Install/STM-32/gcc-arm-none-eabi-6-2017-q2-update/arm-none-eabi/include/c++/6.3.1/bits/stl_list.h ****       /**
 583:/home/vdykyy/Install/STM-32/gcc-arm-none-eabi-6-2017-q2-update/arm-none-eabi/include/c++/6.3.1/bits/stl_list.h ****        *  @brief  Creates a %list with no elements.
 584:/home/vdykyy/Install/STM-32/gcc-arm-none-eabi-6-2017-q2-update/arm-none-eabi/include/c++/6.3.1/bits/stl_list.h ****        */
 585:/home/vdykyy/Install/STM-32/gcc-arm-none-eabi-6-2017-q2-update/arm-none-eabi/include/c++/6.3.1/bits/stl_list.h ****       list()
 586:/home/vdykyy/Install/STM-32/gcc-arm-none-eabi-6-2017-q2-update/arm-none-eabi/include/c++/6.3.1/bits/stl_list.h **** #if __cplusplus >= 201103L
 587:/home/vdykyy/Install/STM-32/gcc-arm-none-eabi-6-2017-q2-update/arm-none-eabi/include/c++/6.3.1/bits/stl_list.h ****       noexcept(is_nothrow_default_constructible<_Node_alloc_type>::value)
 588:/home/vdykyy/Install/STM-32/gcc-arm-none-eabi-6-2017-q2-update/arm-none-eabi/include/c++/6.3.1/bits/stl_list.h **** #endif
 589:/home/vdykyy/Install/STM-32/gcc-arm-none-eabi-6-2017-q2-update/arm-none-eabi/include/c++/6.3.1/bits/stl_list.h ****       : _Base() { }
 590:/home/vdykyy/Install/STM-32/gcc-arm-none-eabi-6-2017-q2-update/arm-none-eabi/include/c++/6.3.1/bits/stl_list.h **** 
 591:/home/vdykyy/Install/STM-32/gcc-arm-none-eabi-6-2017-q2-update/arm-none-eabi/include/c++/6.3.1/bits/stl_list.h ****       /**
 592:/home/vdykyy/Install/STM-32/gcc-arm-none-eabi-6-2017-q2-update/arm-none-eabi/include/c++/6.3.1/bits/stl_list.h ****        *  @brief  Creates a %list with no elements.
 593:/home/vdykyy/Install/STM-32/gcc-arm-none-eabi-6-2017-q2-update/arm-none-eabi/include/c++/6.3.1/bits/stl_list.h ****        *  @param  __a  An allocator object.
 594:/home/vdykyy/Install/STM-32/gcc-arm-none-eabi-6-2017-q2-update/arm-none-eabi/include/c++/6.3.1/bits/stl_list.h ****        */
 595:/home/vdykyy/Install/STM-32/gcc-arm-none-eabi-6-2017-q2-update/arm-none-eabi/include/c++/6.3.1/bits/stl_list.h ****       explicit
 596:/home/vdykyy/Install/STM-32/gcc-arm-none-eabi-6-2017-q2-update/arm-none-eabi/include/c++/6.3.1/bits/stl_list.h ****       list(const allocator_type& __a) _GLIBCXX_NOEXCEPT
 597:/home/vdykyy/Install/STM-32/gcc-arm-none-eabi-6-2017-q2-update/arm-none-eabi/include/c++/6.3.1/bits/stl_list.h ****       : _Base(_Node_alloc_type(__a)) { }
 598:/home/vdykyy/Install/STM-32/gcc-arm-none-eabi-6-2017-q2-update/arm-none-eabi/include/c++/6.3.1/bits/stl_list.h **** 
 599:/home/vdykyy/Install/STM-32/gcc-arm-none-eabi-6-2017-q2-update/arm-none-eabi/include/c++/6.3.1/bits/stl_list.h **** #if __cplusplus >= 201103L
 600:/home/vdykyy/Install/STM-32/gcc-arm-none-eabi-6-2017-q2-update/arm-none-eabi/include/c++/6.3.1/bits/stl_list.h ****       /**
ARM GAS  /tmp/ccni6OXp.s 			page 23


 601:/home/vdykyy/Install/STM-32/gcc-arm-none-eabi-6-2017-q2-update/arm-none-eabi/include/c++/6.3.1/bits/stl_list.h ****        *  @brief  Creates a %list with default constructed elements.
 602:/home/vdykyy/Install/STM-32/gcc-arm-none-eabi-6-2017-q2-update/arm-none-eabi/include/c++/6.3.1/bits/stl_list.h ****        *  @param  __n  The number of elements to initially create.
 603:/home/vdykyy/Install/STM-32/gcc-arm-none-eabi-6-2017-q2-update/arm-none-eabi/include/c++/6.3.1/bits/stl_list.h ****        *  @param  __a  An allocator object.
 604:/home/vdykyy/Install/STM-32/gcc-arm-none-eabi-6-2017-q2-update/arm-none-eabi/include/c++/6.3.1/bits/stl_list.h ****        *
 605:/home/vdykyy/Install/STM-32/gcc-arm-none-eabi-6-2017-q2-update/arm-none-eabi/include/c++/6.3.1/bits/stl_list.h ****        *  This constructor fills the %list with @a __n default
 606:/home/vdykyy/Install/STM-32/gcc-arm-none-eabi-6-2017-q2-update/arm-none-eabi/include/c++/6.3.1/bits/stl_list.h ****        *  constructed elements.
 607:/home/vdykyy/Install/STM-32/gcc-arm-none-eabi-6-2017-q2-update/arm-none-eabi/include/c++/6.3.1/bits/stl_list.h ****        */
 608:/home/vdykyy/Install/STM-32/gcc-arm-none-eabi-6-2017-q2-update/arm-none-eabi/include/c++/6.3.1/bits/stl_list.h ****       explicit
 609:/home/vdykyy/Install/STM-32/gcc-arm-none-eabi-6-2017-q2-update/arm-none-eabi/include/c++/6.3.1/bits/stl_list.h ****       list(size_type __n, const allocator_type& __a = allocator_type())
 610:/home/vdykyy/Install/STM-32/gcc-arm-none-eabi-6-2017-q2-update/arm-none-eabi/include/c++/6.3.1/bits/stl_list.h ****       : _Base(_Node_alloc_type(__a))
 611:/home/vdykyy/Install/STM-32/gcc-arm-none-eabi-6-2017-q2-update/arm-none-eabi/include/c++/6.3.1/bits/stl_list.h ****       { _M_default_initialize(__n); }
 612:/home/vdykyy/Install/STM-32/gcc-arm-none-eabi-6-2017-q2-update/arm-none-eabi/include/c++/6.3.1/bits/stl_list.h **** 
 613:/home/vdykyy/Install/STM-32/gcc-arm-none-eabi-6-2017-q2-update/arm-none-eabi/include/c++/6.3.1/bits/stl_list.h ****       /**
 614:/home/vdykyy/Install/STM-32/gcc-arm-none-eabi-6-2017-q2-update/arm-none-eabi/include/c++/6.3.1/bits/stl_list.h ****        *  @brief  Creates a %list with copies of an exemplar element.
 615:/home/vdykyy/Install/STM-32/gcc-arm-none-eabi-6-2017-q2-update/arm-none-eabi/include/c++/6.3.1/bits/stl_list.h ****        *  @param  __n  The number of elements to initially create.
 616:/home/vdykyy/Install/STM-32/gcc-arm-none-eabi-6-2017-q2-update/arm-none-eabi/include/c++/6.3.1/bits/stl_list.h ****        *  @param  __value  An element to copy.
 617:/home/vdykyy/Install/STM-32/gcc-arm-none-eabi-6-2017-q2-update/arm-none-eabi/include/c++/6.3.1/bits/stl_list.h ****        *  @param  __a  An allocator object.
 618:/home/vdykyy/Install/STM-32/gcc-arm-none-eabi-6-2017-q2-update/arm-none-eabi/include/c++/6.3.1/bits/stl_list.h ****        *
 619:/home/vdykyy/Install/STM-32/gcc-arm-none-eabi-6-2017-q2-update/arm-none-eabi/include/c++/6.3.1/bits/stl_list.h ****        *  This constructor fills the %list with @a __n copies of @a __value.
 620:/home/vdykyy/Install/STM-32/gcc-arm-none-eabi-6-2017-q2-update/arm-none-eabi/include/c++/6.3.1/bits/stl_list.h ****        */
 621:/home/vdykyy/Install/STM-32/gcc-arm-none-eabi-6-2017-q2-update/arm-none-eabi/include/c++/6.3.1/bits/stl_list.h ****       list(size_type __n, const value_type& __value,
 622:/home/vdykyy/Install/STM-32/gcc-arm-none-eabi-6-2017-q2-update/arm-none-eabi/include/c++/6.3.1/bits/stl_list.h **** 	   const allocator_type& __a = allocator_type())
 623:/home/vdykyy/Install/STM-32/gcc-arm-none-eabi-6-2017-q2-update/arm-none-eabi/include/c++/6.3.1/bits/stl_list.h ****       : _Base(_Node_alloc_type(__a))
 624:/home/vdykyy/Install/STM-32/gcc-arm-none-eabi-6-2017-q2-update/arm-none-eabi/include/c++/6.3.1/bits/stl_list.h ****       { _M_fill_initialize(__n, __value); }
 625:/home/vdykyy/Install/STM-32/gcc-arm-none-eabi-6-2017-q2-update/arm-none-eabi/include/c++/6.3.1/bits/stl_list.h **** #else
 626:/home/vdykyy/Install/STM-32/gcc-arm-none-eabi-6-2017-q2-update/arm-none-eabi/include/c++/6.3.1/bits/stl_list.h ****       /**
 627:/home/vdykyy/Install/STM-32/gcc-arm-none-eabi-6-2017-q2-update/arm-none-eabi/include/c++/6.3.1/bits/stl_list.h ****        *  @brief  Creates a %list with copies of an exemplar element.
 628:/home/vdykyy/Install/STM-32/gcc-arm-none-eabi-6-2017-q2-update/arm-none-eabi/include/c++/6.3.1/bits/stl_list.h ****        *  @param  __n  The number of elements to initially create.
 629:/home/vdykyy/Install/STM-32/gcc-arm-none-eabi-6-2017-q2-update/arm-none-eabi/include/c++/6.3.1/bits/stl_list.h ****        *  @param  __value  An element to copy.
 630:/home/vdykyy/Install/STM-32/gcc-arm-none-eabi-6-2017-q2-update/arm-none-eabi/include/c++/6.3.1/bits/stl_list.h ****        *  @param  __a  An allocator object.
 631:/home/vdykyy/Install/STM-32/gcc-arm-none-eabi-6-2017-q2-update/arm-none-eabi/include/c++/6.3.1/bits/stl_list.h ****        *
 632:/home/vdykyy/Install/STM-32/gcc-arm-none-eabi-6-2017-q2-update/arm-none-eabi/include/c++/6.3.1/bits/stl_list.h ****        *  This constructor fills the %list with @a __n copies of @a __value.
 633:/home/vdykyy/Install/STM-32/gcc-arm-none-eabi-6-2017-q2-update/arm-none-eabi/include/c++/6.3.1/bits/stl_list.h ****        */
 634:/home/vdykyy/Install/STM-32/gcc-arm-none-eabi-6-2017-q2-update/arm-none-eabi/include/c++/6.3.1/bits/stl_list.h ****       explicit
 635:/home/vdykyy/Install/STM-32/gcc-arm-none-eabi-6-2017-q2-update/arm-none-eabi/include/c++/6.3.1/bits/stl_list.h ****       list(size_type __n, const value_type& __value = value_type(),
 636:/home/vdykyy/Install/STM-32/gcc-arm-none-eabi-6-2017-q2-update/arm-none-eabi/include/c++/6.3.1/bits/stl_list.h **** 	   const allocator_type& __a = allocator_type())
 637:/home/vdykyy/Install/STM-32/gcc-arm-none-eabi-6-2017-q2-update/arm-none-eabi/include/c++/6.3.1/bits/stl_list.h ****       : _Base(_Node_alloc_type(__a))
 638:/home/vdykyy/Install/STM-32/gcc-arm-none-eabi-6-2017-q2-update/arm-none-eabi/include/c++/6.3.1/bits/stl_list.h ****       { _M_fill_initialize(__n, __value); }
 639:/home/vdykyy/Install/STM-32/gcc-arm-none-eabi-6-2017-q2-update/arm-none-eabi/include/c++/6.3.1/bits/stl_list.h **** #endif
 640:/home/vdykyy/Install/STM-32/gcc-arm-none-eabi-6-2017-q2-update/arm-none-eabi/include/c++/6.3.1/bits/stl_list.h **** 
 641:/home/vdykyy/Install/STM-32/gcc-arm-none-eabi-6-2017-q2-update/arm-none-eabi/include/c++/6.3.1/bits/stl_list.h ****       /**
 642:/home/vdykyy/Install/STM-32/gcc-arm-none-eabi-6-2017-q2-update/arm-none-eabi/include/c++/6.3.1/bits/stl_list.h ****        *  @brief  %List copy constructor.
 643:/home/vdykyy/Install/STM-32/gcc-arm-none-eabi-6-2017-q2-update/arm-none-eabi/include/c++/6.3.1/bits/stl_list.h ****        *  @param  __x  A %list of identical element and allocator types.
 644:/home/vdykyy/Install/STM-32/gcc-arm-none-eabi-6-2017-q2-update/arm-none-eabi/include/c++/6.3.1/bits/stl_list.h ****        *
 645:/home/vdykyy/Install/STM-32/gcc-arm-none-eabi-6-2017-q2-update/arm-none-eabi/include/c++/6.3.1/bits/stl_list.h ****        *  The newly-created %list uses a copy of the allocation object used
 646:/home/vdykyy/Install/STM-32/gcc-arm-none-eabi-6-2017-q2-update/arm-none-eabi/include/c++/6.3.1/bits/stl_list.h ****        *  by @a __x.
 647:/home/vdykyy/Install/STM-32/gcc-arm-none-eabi-6-2017-q2-update/arm-none-eabi/include/c++/6.3.1/bits/stl_list.h ****        */
 648:/home/vdykyy/Install/STM-32/gcc-arm-none-eabi-6-2017-q2-update/arm-none-eabi/include/c++/6.3.1/bits/stl_list.h ****       list(const list& __x)
 649:/home/vdykyy/Install/STM-32/gcc-arm-none-eabi-6-2017-q2-update/arm-none-eabi/include/c++/6.3.1/bits/stl_list.h ****       : _Base(_Node_alloc_traits::
 650:/home/vdykyy/Install/STM-32/gcc-arm-none-eabi-6-2017-q2-update/arm-none-eabi/include/c++/6.3.1/bits/stl_list.h **** 	      _S_select_on_copy(__x._M_get_Node_allocator()))
 651:/home/vdykyy/Install/STM-32/gcc-arm-none-eabi-6-2017-q2-update/arm-none-eabi/include/c++/6.3.1/bits/stl_list.h ****       { _M_initialize_dispatch(__x.begin(), __x.end(), __false_type()); }
 652:/home/vdykyy/Install/STM-32/gcc-arm-none-eabi-6-2017-q2-update/arm-none-eabi/include/c++/6.3.1/bits/stl_list.h **** 
 653:/home/vdykyy/Install/STM-32/gcc-arm-none-eabi-6-2017-q2-update/arm-none-eabi/include/c++/6.3.1/bits/stl_list.h **** #if __cplusplus >= 201103L
 654:/home/vdykyy/Install/STM-32/gcc-arm-none-eabi-6-2017-q2-update/arm-none-eabi/include/c++/6.3.1/bits/stl_list.h ****       /**
 655:/home/vdykyy/Install/STM-32/gcc-arm-none-eabi-6-2017-q2-update/arm-none-eabi/include/c++/6.3.1/bits/stl_list.h ****        *  @brief  %List move constructor.
 656:/home/vdykyy/Install/STM-32/gcc-arm-none-eabi-6-2017-q2-update/arm-none-eabi/include/c++/6.3.1/bits/stl_list.h ****        *  @param  __x  A %list of identical element and allocator types.
 657:/home/vdykyy/Install/STM-32/gcc-arm-none-eabi-6-2017-q2-update/arm-none-eabi/include/c++/6.3.1/bits/stl_list.h ****        *
ARM GAS  /tmp/ccni6OXp.s 			page 24


 658:/home/vdykyy/Install/STM-32/gcc-arm-none-eabi-6-2017-q2-update/arm-none-eabi/include/c++/6.3.1/bits/stl_list.h ****        *  The newly-created %list contains the exact contents of @a __x.
 659:/home/vdykyy/Install/STM-32/gcc-arm-none-eabi-6-2017-q2-update/arm-none-eabi/include/c++/6.3.1/bits/stl_list.h ****        *  The contents of @a __x are a valid, but unspecified %list.
 660:/home/vdykyy/Install/STM-32/gcc-arm-none-eabi-6-2017-q2-update/arm-none-eabi/include/c++/6.3.1/bits/stl_list.h ****        */
 661:/home/vdykyy/Install/STM-32/gcc-arm-none-eabi-6-2017-q2-update/arm-none-eabi/include/c++/6.3.1/bits/stl_list.h ****       list(list&& __x) noexcept
 662:/home/vdykyy/Install/STM-32/gcc-arm-none-eabi-6-2017-q2-update/arm-none-eabi/include/c++/6.3.1/bits/stl_list.h ****       : _Base(std::move(__x)) { }
 663:/home/vdykyy/Install/STM-32/gcc-arm-none-eabi-6-2017-q2-update/arm-none-eabi/include/c++/6.3.1/bits/stl_list.h **** 
 664:/home/vdykyy/Install/STM-32/gcc-arm-none-eabi-6-2017-q2-update/arm-none-eabi/include/c++/6.3.1/bits/stl_list.h ****       /**
 665:/home/vdykyy/Install/STM-32/gcc-arm-none-eabi-6-2017-q2-update/arm-none-eabi/include/c++/6.3.1/bits/stl_list.h ****        *  @brief  Builds a %list from an initializer_list
 666:/home/vdykyy/Install/STM-32/gcc-arm-none-eabi-6-2017-q2-update/arm-none-eabi/include/c++/6.3.1/bits/stl_list.h ****        *  @param  __l  An initializer_list of value_type.
 667:/home/vdykyy/Install/STM-32/gcc-arm-none-eabi-6-2017-q2-update/arm-none-eabi/include/c++/6.3.1/bits/stl_list.h ****        *  @param  __a  An allocator object.
 668:/home/vdykyy/Install/STM-32/gcc-arm-none-eabi-6-2017-q2-update/arm-none-eabi/include/c++/6.3.1/bits/stl_list.h ****        *
 669:/home/vdykyy/Install/STM-32/gcc-arm-none-eabi-6-2017-q2-update/arm-none-eabi/include/c++/6.3.1/bits/stl_list.h ****        *  Create a %list consisting of copies of the elements in the
 670:/home/vdykyy/Install/STM-32/gcc-arm-none-eabi-6-2017-q2-update/arm-none-eabi/include/c++/6.3.1/bits/stl_list.h ****        *  initializer_list @a __l.  This is linear in __l.size().
 671:/home/vdykyy/Install/STM-32/gcc-arm-none-eabi-6-2017-q2-update/arm-none-eabi/include/c++/6.3.1/bits/stl_list.h ****        */
 672:/home/vdykyy/Install/STM-32/gcc-arm-none-eabi-6-2017-q2-update/arm-none-eabi/include/c++/6.3.1/bits/stl_list.h ****       list(initializer_list<value_type> __l,
 673:/home/vdykyy/Install/STM-32/gcc-arm-none-eabi-6-2017-q2-update/arm-none-eabi/include/c++/6.3.1/bits/stl_list.h ****            const allocator_type& __a = allocator_type())
 674:/home/vdykyy/Install/STM-32/gcc-arm-none-eabi-6-2017-q2-update/arm-none-eabi/include/c++/6.3.1/bits/stl_list.h ****       : _Base(_Node_alloc_type(__a))
 675:/home/vdykyy/Install/STM-32/gcc-arm-none-eabi-6-2017-q2-update/arm-none-eabi/include/c++/6.3.1/bits/stl_list.h ****       { _M_initialize_dispatch(__l.begin(), __l.end(), __false_type()); }
 676:/home/vdykyy/Install/STM-32/gcc-arm-none-eabi-6-2017-q2-update/arm-none-eabi/include/c++/6.3.1/bits/stl_list.h **** 
 677:/home/vdykyy/Install/STM-32/gcc-arm-none-eabi-6-2017-q2-update/arm-none-eabi/include/c++/6.3.1/bits/stl_list.h ****       list(const list& __x, const allocator_type& __a)
 678:/home/vdykyy/Install/STM-32/gcc-arm-none-eabi-6-2017-q2-update/arm-none-eabi/include/c++/6.3.1/bits/stl_list.h ****       : _Base(_Node_alloc_type(__a))
 679:/home/vdykyy/Install/STM-32/gcc-arm-none-eabi-6-2017-q2-update/arm-none-eabi/include/c++/6.3.1/bits/stl_list.h ****       { _M_initialize_dispatch(__x.begin(), __x.end(), __false_type()); }
 680:/home/vdykyy/Install/STM-32/gcc-arm-none-eabi-6-2017-q2-update/arm-none-eabi/include/c++/6.3.1/bits/stl_list.h **** 
 681:/home/vdykyy/Install/STM-32/gcc-arm-none-eabi-6-2017-q2-update/arm-none-eabi/include/c++/6.3.1/bits/stl_list.h ****       list(list&& __x, const allocator_type& __a)
 682:/home/vdykyy/Install/STM-32/gcc-arm-none-eabi-6-2017-q2-update/arm-none-eabi/include/c++/6.3.1/bits/stl_list.h ****       noexcept(_Node_alloc_traits::_S_always_equal())
 683:/home/vdykyy/Install/STM-32/gcc-arm-none-eabi-6-2017-q2-update/arm-none-eabi/include/c++/6.3.1/bits/stl_list.h ****       : _Base(std::move(__x), _Node_alloc_type(__a))
 684:/home/vdykyy/Install/STM-32/gcc-arm-none-eabi-6-2017-q2-update/arm-none-eabi/include/c++/6.3.1/bits/stl_list.h ****       {
 685:/home/vdykyy/Install/STM-32/gcc-arm-none-eabi-6-2017-q2-update/arm-none-eabi/include/c++/6.3.1/bits/stl_list.h **** 	// If __x is not empty it means its allocator is not equal to __a,
 686:/home/vdykyy/Install/STM-32/gcc-arm-none-eabi-6-2017-q2-update/arm-none-eabi/include/c++/6.3.1/bits/stl_list.h **** 	// so we need to move from each element individually.
 687:/home/vdykyy/Install/STM-32/gcc-arm-none-eabi-6-2017-q2-update/arm-none-eabi/include/c++/6.3.1/bits/stl_list.h **** 	insert(begin(), std::__make_move_if_noexcept_iterator(__x.begin()),
 688:/home/vdykyy/Install/STM-32/gcc-arm-none-eabi-6-2017-q2-update/arm-none-eabi/include/c++/6.3.1/bits/stl_list.h **** 			std::__make_move_if_noexcept_iterator(__x.end()));
 689:/home/vdykyy/Install/STM-32/gcc-arm-none-eabi-6-2017-q2-update/arm-none-eabi/include/c++/6.3.1/bits/stl_list.h ****       }
 690:/home/vdykyy/Install/STM-32/gcc-arm-none-eabi-6-2017-q2-update/arm-none-eabi/include/c++/6.3.1/bits/stl_list.h **** #endif
 691:/home/vdykyy/Install/STM-32/gcc-arm-none-eabi-6-2017-q2-update/arm-none-eabi/include/c++/6.3.1/bits/stl_list.h **** 
 692:/home/vdykyy/Install/STM-32/gcc-arm-none-eabi-6-2017-q2-update/arm-none-eabi/include/c++/6.3.1/bits/stl_list.h ****       /**
 693:/home/vdykyy/Install/STM-32/gcc-arm-none-eabi-6-2017-q2-update/arm-none-eabi/include/c++/6.3.1/bits/stl_list.h ****        *  @brief  Builds a %list from a range.
 694:/home/vdykyy/Install/STM-32/gcc-arm-none-eabi-6-2017-q2-update/arm-none-eabi/include/c++/6.3.1/bits/stl_list.h ****        *  @param  __first  An input iterator.
 695:/home/vdykyy/Install/STM-32/gcc-arm-none-eabi-6-2017-q2-update/arm-none-eabi/include/c++/6.3.1/bits/stl_list.h ****        *  @param  __last  An input iterator.
 696:/home/vdykyy/Install/STM-32/gcc-arm-none-eabi-6-2017-q2-update/arm-none-eabi/include/c++/6.3.1/bits/stl_list.h ****        *  @param  __a  An allocator object.
 697:/home/vdykyy/Install/STM-32/gcc-arm-none-eabi-6-2017-q2-update/arm-none-eabi/include/c++/6.3.1/bits/stl_list.h ****        *
 698:/home/vdykyy/Install/STM-32/gcc-arm-none-eabi-6-2017-q2-update/arm-none-eabi/include/c++/6.3.1/bits/stl_list.h ****        *  Create a %list consisting of copies of the elements from
 699:/home/vdykyy/Install/STM-32/gcc-arm-none-eabi-6-2017-q2-update/arm-none-eabi/include/c++/6.3.1/bits/stl_list.h ****        *  [@a __first,@a __last).  This is linear in N (where N is
 700:/home/vdykyy/Install/STM-32/gcc-arm-none-eabi-6-2017-q2-update/arm-none-eabi/include/c++/6.3.1/bits/stl_list.h ****        *  distance(@a __first,@a __last)).
 701:/home/vdykyy/Install/STM-32/gcc-arm-none-eabi-6-2017-q2-update/arm-none-eabi/include/c++/6.3.1/bits/stl_list.h ****        */
 702:/home/vdykyy/Install/STM-32/gcc-arm-none-eabi-6-2017-q2-update/arm-none-eabi/include/c++/6.3.1/bits/stl_list.h **** #if __cplusplus >= 201103L
 703:/home/vdykyy/Install/STM-32/gcc-arm-none-eabi-6-2017-q2-update/arm-none-eabi/include/c++/6.3.1/bits/stl_list.h ****       template<typename _InputIterator,
 704:/home/vdykyy/Install/STM-32/gcc-arm-none-eabi-6-2017-q2-update/arm-none-eabi/include/c++/6.3.1/bits/stl_list.h **** 	       typename = std::_RequireInputIter<_InputIterator>>
 705:/home/vdykyy/Install/STM-32/gcc-arm-none-eabi-6-2017-q2-update/arm-none-eabi/include/c++/6.3.1/bits/stl_list.h ****         list(_InputIterator __first, _InputIterator __last,
 706:/home/vdykyy/Install/STM-32/gcc-arm-none-eabi-6-2017-q2-update/arm-none-eabi/include/c++/6.3.1/bits/stl_list.h **** 	     const allocator_type& __a = allocator_type())
 707:/home/vdykyy/Install/STM-32/gcc-arm-none-eabi-6-2017-q2-update/arm-none-eabi/include/c++/6.3.1/bits/stl_list.h **** 	: _Base(_Node_alloc_type(__a))
 708:/home/vdykyy/Install/STM-32/gcc-arm-none-eabi-6-2017-q2-update/arm-none-eabi/include/c++/6.3.1/bits/stl_list.h ****         { _M_initialize_dispatch(__first, __last, __false_type()); }
 709:/home/vdykyy/Install/STM-32/gcc-arm-none-eabi-6-2017-q2-update/arm-none-eabi/include/c++/6.3.1/bits/stl_list.h **** #else
 710:/home/vdykyy/Install/STM-32/gcc-arm-none-eabi-6-2017-q2-update/arm-none-eabi/include/c++/6.3.1/bits/stl_list.h ****       template<typename _InputIterator>
 711:/home/vdykyy/Install/STM-32/gcc-arm-none-eabi-6-2017-q2-update/arm-none-eabi/include/c++/6.3.1/bits/stl_list.h ****         list(_InputIterator __first, _InputIterator __last,
 712:/home/vdykyy/Install/STM-32/gcc-arm-none-eabi-6-2017-q2-update/arm-none-eabi/include/c++/6.3.1/bits/stl_list.h **** 	     const allocator_type& __a = allocator_type())
 713:/home/vdykyy/Install/STM-32/gcc-arm-none-eabi-6-2017-q2-update/arm-none-eabi/include/c++/6.3.1/bits/stl_list.h **** 	: _Base(_Node_alloc_type(__a))
 714:/home/vdykyy/Install/STM-32/gcc-arm-none-eabi-6-2017-q2-update/arm-none-eabi/include/c++/6.3.1/bits/stl_list.h ****         { 
ARM GAS  /tmp/ccni6OXp.s 			page 25


 715:/home/vdykyy/Install/STM-32/gcc-arm-none-eabi-6-2017-q2-update/arm-none-eabi/include/c++/6.3.1/bits/stl_list.h **** 	  // Check whether it's an integral type.  If so, it's not an iterator.
 716:/home/vdykyy/Install/STM-32/gcc-arm-none-eabi-6-2017-q2-update/arm-none-eabi/include/c++/6.3.1/bits/stl_list.h **** 	  typedef typename std::__is_integer<_InputIterator>::__type _Integral;
 717:/home/vdykyy/Install/STM-32/gcc-arm-none-eabi-6-2017-q2-update/arm-none-eabi/include/c++/6.3.1/bits/stl_list.h **** 	  _M_initialize_dispatch(__first, __last, _Integral());
 718:/home/vdykyy/Install/STM-32/gcc-arm-none-eabi-6-2017-q2-update/arm-none-eabi/include/c++/6.3.1/bits/stl_list.h **** 	}
 719:/home/vdykyy/Install/STM-32/gcc-arm-none-eabi-6-2017-q2-update/arm-none-eabi/include/c++/6.3.1/bits/stl_list.h **** #endif
 720:/home/vdykyy/Install/STM-32/gcc-arm-none-eabi-6-2017-q2-update/arm-none-eabi/include/c++/6.3.1/bits/stl_list.h **** 
 721:/home/vdykyy/Install/STM-32/gcc-arm-none-eabi-6-2017-q2-update/arm-none-eabi/include/c++/6.3.1/bits/stl_list.h ****       /**
 722:/home/vdykyy/Install/STM-32/gcc-arm-none-eabi-6-2017-q2-update/arm-none-eabi/include/c++/6.3.1/bits/stl_list.h ****        *  No explicit dtor needed as the _Base dtor takes care of
 723:/home/vdykyy/Install/STM-32/gcc-arm-none-eabi-6-2017-q2-update/arm-none-eabi/include/c++/6.3.1/bits/stl_list.h ****        *  things.  The _Base dtor only erases the elements, and note
 724:/home/vdykyy/Install/STM-32/gcc-arm-none-eabi-6-2017-q2-update/arm-none-eabi/include/c++/6.3.1/bits/stl_list.h ****        *  that if the elements themselves are pointers, the pointed-to
 725:/home/vdykyy/Install/STM-32/gcc-arm-none-eabi-6-2017-q2-update/arm-none-eabi/include/c++/6.3.1/bits/stl_list.h ****        *  memory is not touched in any way.  Managing the pointer is
 726:/home/vdykyy/Install/STM-32/gcc-arm-none-eabi-6-2017-q2-update/arm-none-eabi/include/c++/6.3.1/bits/stl_list.h ****        *  the user's responsibility.
 727:/home/vdykyy/Install/STM-32/gcc-arm-none-eabi-6-2017-q2-update/arm-none-eabi/include/c++/6.3.1/bits/stl_list.h ****        */
 728:/home/vdykyy/Install/STM-32/gcc-arm-none-eabi-6-2017-q2-update/arm-none-eabi/include/c++/6.3.1/bits/stl_list.h **** 
 729:/home/vdykyy/Install/STM-32/gcc-arm-none-eabi-6-2017-q2-update/arm-none-eabi/include/c++/6.3.1/bits/stl_list.h ****       /**
 730:/home/vdykyy/Install/STM-32/gcc-arm-none-eabi-6-2017-q2-update/arm-none-eabi/include/c++/6.3.1/bits/stl_list.h ****        *  @brief  %List assignment operator.
 731:/home/vdykyy/Install/STM-32/gcc-arm-none-eabi-6-2017-q2-update/arm-none-eabi/include/c++/6.3.1/bits/stl_list.h ****        *  @param  __x  A %list of identical element and allocator types.
 732:/home/vdykyy/Install/STM-32/gcc-arm-none-eabi-6-2017-q2-update/arm-none-eabi/include/c++/6.3.1/bits/stl_list.h ****        *
 733:/home/vdykyy/Install/STM-32/gcc-arm-none-eabi-6-2017-q2-update/arm-none-eabi/include/c++/6.3.1/bits/stl_list.h ****        *  All the elements of @a __x are copied, but unlike the copy
 734:/home/vdykyy/Install/STM-32/gcc-arm-none-eabi-6-2017-q2-update/arm-none-eabi/include/c++/6.3.1/bits/stl_list.h ****        *  constructor, the allocator object is not copied.
 735:/home/vdykyy/Install/STM-32/gcc-arm-none-eabi-6-2017-q2-update/arm-none-eabi/include/c++/6.3.1/bits/stl_list.h ****        */
 736:/home/vdykyy/Install/STM-32/gcc-arm-none-eabi-6-2017-q2-update/arm-none-eabi/include/c++/6.3.1/bits/stl_list.h ****       list&
 737:/home/vdykyy/Install/STM-32/gcc-arm-none-eabi-6-2017-q2-update/arm-none-eabi/include/c++/6.3.1/bits/stl_list.h ****       operator=(const list& __x);
 738:/home/vdykyy/Install/STM-32/gcc-arm-none-eabi-6-2017-q2-update/arm-none-eabi/include/c++/6.3.1/bits/stl_list.h **** 
 739:/home/vdykyy/Install/STM-32/gcc-arm-none-eabi-6-2017-q2-update/arm-none-eabi/include/c++/6.3.1/bits/stl_list.h **** #if __cplusplus >= 201103L
 740:/home/vdykyy/Install/STM-32/gcc-arm-none-eabi-6-2017-q2-update/arm-none-eabi/include/c++/6.3.1/bits/stl_list.h ****       /**
 741:/home/vdykyy/Install/STM-32/gcc-arm-none-eabi-6-2017-q2-update/arm-none-eabi/include/c++/6.3.1/bits/stl_list.h ****        *  @brief  %List move assignment operator.
 742:/home/vdykyy/Install/STM-32/gcc-arm-none-eabi-6-2017-q2-update/arm-none-eabi/include/c++/6.3.1/bits/stl_list.h ****        *  @param  __x  A %list of identical element and allocator types.
 743:/home/vdykyy/Install/STM-32/gcc-arm-none-eabi-6-2017-q2-update/arm-none-eabi/include/c++/6.3.1/bits/stl_list.h ****        *
 744:/home/vdykyy/Install/STM-32/gcc-arm-none-eabi-6-2017-q2-update/arm-none-eabi/include/c++/6.3.1/bits/stl_list.h ****        *  The contents of @a __x are moved into this %list (without copying).
 745:/home/vdykyy/Install/STM-32/gcc-arm-none-eabi-6-2017-q2-update/arm-none-eabi/include/c++/6.3.1/bits/stl_list.h ****        *  @a __x is a valid, but unspecified %list
 746:/home/vdykyy/Install/STM-32/gcc-arm-none-eabi-6-2017-q2-update/arm-none-eabi/include/c++/6.3.1/bits/stl_list.h ****        */
 747:/home/vdykyy/Install/STM-32/gcc-arm-none-eabi-6-2017-q2-update/arm-none-eabi/include/c++/6.3.1/bits/stl_list.h ****       list&
 748:/home/vdykyy/Install/STM-32/gcc-arm-none-eabi-6-2017-q2-update/arm-none-eabi/include/c++/6.3.1/bits/stl_list.h ****       operator=(list&& __x)
 749:/home/vdykyy/Install/STM-32/gcc-arm-none-eabi-6-2017-q2-update/arm-none-eabi/include/c++/6.3.1/bits/stl_list.h ****       noexcept(_Node_alloc_traits::_S_nothrow_move())
 750:/home/vdykyy/Install/STM-32/gcc-arm-none-eabi-6-2017-q2-update/arm-none-eabi/include/c++/6.3.1/bits/stl_list.h ****       {
 751:/home/vdykyy/Install/STM-32/gcc-arm-none-eabi-6-2017-q2-update/arm-none-eabi/include/c++/6.3.1/bits/stl_list.h **** 	constexpr bool __move_storage =
 752:/home/vdykyy/Install/STM-32/gcc-arm-none-eabi-6-2017-q2-update/arm-none-eabi/include/c++/6.3.1/bits/stl_list.h ****           _Node_alloc_traits::_S_propagate_on_move_assign()
 753:/home/vdykyy/Install/STM-32/gcc-arm-none-eabi-6-2017-q2-update/arm-none-eabi/include/c++/6.3.1/bits/stl_list.h ****           || _Node_alloc_traits::_S_always_equal();
 754:/home/vdykyy/Install/STM-32/gcc-arm-none-eabi-6-2017-q2-update/arm-none-eabi/include/c++/6.3.1/bits/stl_list.h ****         _M_move_assign(std::move(__x), __bool_constant<__move_storage>());
 755:/home/vdykyy/Install/STM-32/gcc-arm-none-eabi-6-2017-q2-update/arm-none-eabi/include/c++/6.3.1/bits/stl_list.h **** 	return *this;
 756:/home/vdykyy/Install/STM-32/gcc-arm-none-eabi-6-2017-q2-update/arm-none-eabi/include/c++/6.3.1/bits/stl_list.h ****       }
 757:/home/vdykyy/Install/STM-32/gcc-arm-none-eabi-6-2017-q2-update/arm-none-eabi/include/c++/6.3.1/bits/stl_list.h **** 
 758:/home/vdykyy/Install/STM-32/gcc-arm-none-eabi-6-2017-q2-update/arm-none-eabi/include/c++/6.3.1/bits/stl_list.h ****       /**
 759:/home/vdykyy/Install/STM-32/gcc-arm-none-eabi-6-2017-q2-update/arm-none-eabi/include/c++/6.3.1/bits/stl_list.h ****        *  @brief  %List initializer list assignment operator.
 760:/home/vdykyy/Install/STM-32/gcc-arm-none-eabi-6-2017-q2-update/arm-none-eabi/include/c++/6.3.1/bits/stl_list.h ****        *  @param  __l  An initializer_list of value_type.
 761:/home/vdykyy/Install/STM-32/gcc-arm-none-eabi-6-2017-q2-update/arm-none-eabi/include/c++/6.3.1/bits/stl_list.h ****        *
 762:/home/vdykyy/Install/STM-32/gcc-arm-none-eabi-6-2017-q2-update/arm-none-eabi/include/c++/6.3.1/bits/stl_list.h ****        *  Replace the contents of the %list with copies of the elements
 763:/home/vdykyy/Install/STM-32/gcc-arm-none-eabi-6-2017-q2-update/arm-none-eabi/include/c++/6.3.1/bits/stl_list.h ****        *  in the initializer_list @a __l.  This is linear in l.size().
 764:/home/vdykyy/Install/STM-32/gcc-arm-none-eabi-6-2017-q2-update/arm-none-eabi/include/c++/6.3.1/bits/stl_list.h ****        */
 765:/home/vdykyy/Install/STM-32/gcc-arm-none-eabi-6-2017-q2-update/arm-none-eabi/include/c++/6.3.1/bits/stl_list.h ****       list&
 766:/home/vdykyy/Install/STM-32/gcc-arm-none-eabi-6-2017-q2-update/arm-none-eabi/include/c++/6.3.1/bits/stl_list.h ****       operator=(initializer_list<value_type> __l)
 767:/home/vdykyy/Install/STM-32/gcc-arm-none-eabi-6-2017-q2-update/arm-none-eabi/include/c++/6.3.1/bits/stl_list.h ****       {
 768:/home/vdykyy/Install/STM-32/gcc-arm-none-eabi-6-2017-q2-update/arm-none-eabi/include/c++/6.3.1/bits/stl_list.h **** 	this->assign(__l.begin(), __l.end());
 769:/home/vdykyy/Install/STM-32/gcc-arm-none-eabi-6-2017-q2-update/arm-none-eabi/include/c++/6.3.1/bits/stl_list.h **** 	return *this;
 770:/home/vdykyy/Install/STM-32/gcc-arm-none-eabi-6-2017-q2-update/arm-none-eabi/include/c++/6.3.1/bits/stl_list.h ****       }
 771:/home/vdykyy/Install/STM-32/gcc-arm-none-eabi-6-2017-q2-update/arm-none-eabi/include/c++/6.3.1/bits/stl_list.h **** #endif
ARM GAS  /tmp/ccni6OXp.s 			page 26


 772:/home/vdykyy/Install/STM-32/gcc-arm-none-eabi-6-2017-q2-update/arm-none-eabi/include/c++/6.3.1/bits/stl_list.h **** 
 773:/home/vdykyy/Install/STM-32/gcc-arm-none-eabi-6-2017-q2-update/arm-none-eabi/include/c++/6.3.1/bits/stl_list.h ****       /**
 774:/home/vdykyy/Install/STM-32/gcc-arm-none-eabi-6-2017-q2-update/arm-none-eabi/include/c++/6.3.1/bits/stl_list.h ****        *  @brief  Assigns a given value to a %list.
 775:/home/vdykyy/Install/STM-32/gcc-arm-none-eabi-6-2017-q2-update/arm-none-eabi/include/c++/6.3.1/bits/stl_list.h ****        *  @param  __n  Number of elements to be assigned.
 776:/home/vdykyy/Install/STM-32/gcc-arm-none-eabi-6-2017-q2-update/arm-none-eabi/include/c++/6.3.1/bits/stl_list.h ****        *  @param  __val  Value to be assigned.
 777:/home/vdykyy/Install/STM-32/gcc-arm-none-eabi-6-2017-q2-update/arm-none-eabi/include/c++/6.3.1/bits/stl_list.h ****        *
 778:/home/vdykyy/Install/STM-32/gcc-arm-none-eabi-6-2017-q2-update/arm-none-eabi/include/c++/6.3.1/bits/stl_list.h ****        *  This function fills a %list with @a __n copies of the given
 779:/home/vdykyy/Install/STM-32/gcc-arm-none-eabi-6-2017-q2-update/arm-none-eabi/include/c++/6.3.1/bits/stl_list.h ****        *  value.  Note that the assignment completely changes the %list
 780:/home/vdykyy/Install/STM-32/gcc-arm-none-eabi-6-2017-q2-update/arm-none-eabi/include/c++/6.3.1/bits/stl_list.h ****        *  and that the resulting %list's size is the same as the number
 781:/home/vdykyy/Install/STM-32/gcc-arm-none-eabi-6-2017-q2-update/arm-none-eabi/include/c++/6.3.1/bits/stl_list.h ****        *  of elements assigned.  Old data may be lost.
 782:/home/vdykyy/Install/STM-32/gcc-arm-none-eabi-6-2017-q2-update/arm-none-eabi/include/c++/6.3.1/bits/stl_list.h ****        */
 783:/home/vdykyy/Install/STM-32/gcc-arm-none-eabi-6-2017-q2-update/arm-none-eabi/include/c++/6.3.1/bits/stl_list.h ****       void
 784:/home/vdykyy/Install/STM-32/gcc-arm-none-eabi-6-2017-q2-update/arm-none-eabi/include/c++/6.3.1/bits/stl_list.h ****       assign(size_type __n, const value_type& __val)
 785:/home/vdykyy/Install/STM-32/gcc-arm-none-eabi-6-2017-q2-update/arm-none-eabi/include/c++/6.3.1/bits/stl_list.h ****       { _M_fill_assign(__n, __val); }
 786:/home/vdykyy/Install/STM-32/gcc-arm-none-eabi-6-2017-q2-update/arm-none-eabi/include/c++/6.3.1/bits/stl_list.h **** 
 787:/home/vdykyy/Install/STM-32/gcc-arm-none-eabi-6-2017-q2-update/arm-none-eabi/include/c++/6.3.1/bits/stl_list.h ****       /**
 788:/home/vdykyy/Install/STM-32/gcc-arm-none-eabi-6-2017-q2-update/arm-none-eabi/include/c++/6.3.1/bits/stl_list.h ****        *  @brief  Assigns a range to a %list.
 789:/home/vdykyy/Install/STM-32/gcc-arm-none-eabi-6-2017-q2-update/arm-none-eabi/include/c++/6.3.1/bits/stl_list.h ****        *  @param  __first  An input iterator.
 790:/home/vdykyy/Install/STM-32/gcc-arm-none-eabi-6-2017-q2-update/arm-none-eabi/include/c++/6.3.1/bits/stl_list.h ****        *  @param  __last   An input iterator.
 791:/home/vdykyy/Install/STM-32/gcc-arm-none-eabi-6-2017-q2-update/arm-none-eabi/include/c++/6.3.1/bits/stl_list.h ****        *
 792:/home/vdykyy/Install/STM-32/gcc-arm-none-eabi-6-2017-q2-update/arm-none-eabi/include/c++/6.3.1/bits/stl_list.h ****        *  This function fills a %list with copies of the elements in the
 793:/home/vdykyy/Install/STM-32/gcc-arm-none-eabi-6-2017-q2-update/arm-none-eabi/include/c++/6.3.1/bits/stl_list.h ****        *  range [@a __first,@a __last).
 794:/home/vdykyy/Install/STM-32/gcc-arm-none-eabi-6-2017-q2-update/arm-none-eabi/include/c++/6.3.1/bits/stl_list.h ****        *
 795:/home/vdykyy/Install/STM-32/gcc-arm-none-eabi-6-2017-q2-update/arm-none-eabi/include/c++/6.3.1/bits/stl_list.h ****        *  Note that the assignment completely changes the %list and
 796:/home/vdykyy/Install/STM-32/gcc-arm-none-eabi-6-2017-q2-update/arm-none-eabi/include/c++/6.3.1/bits/stl_list.h ****        *  that the resulting %list's size is the same as the number of
 797:/home/vdykyy/Install/STM-32/gcc-arm-none-eabi-6-2017-q2-update/arm-none-eabi/include/c++/6.3.1/bits/stl_list.h ****        *  elements assigned.  Old data may be lost.
 798:/home/vdykyy/Install/STM-32/gcc-arm-none-eabi-6-2017-q2-update/arm-none-eabi/include/c++/6.3.1/bits/stl_list.h ****        */
 799:/home/vdykyy/Install/STM-32/gcc-arm-none-eabi-6-2017-q2-update/arm-none-eabi/include/c++/6.3.1/bits/stl_list.h **** #if __cplusplus >= 201103L
 800:/home/vdykyy/Install/STM-32/gcc-arm-none-eabi-6-2017-q2-update/arm-none-eabi/include/c++/6.3.1/bits/stl_list.h ****       template<typename _InputIterator,
 801:/home/vdykyy/Install/STM-32/gcc-arm-none-eabi-6-2017-q2-update/arm-none-eabi/include/c++/6.3.1/bits/stl_list.h **** 	       typename = std::_RequireInputIter<_InputIterator>>
 802:/home/vdykyy/Install/STM-32/gcc-arm-none-eabi-6-2017-q2-update/arm-none-eabi/include/c++/6.3.1/bits/stl_list.h ****         void
 803:/home/vdykyy/Install/STM-32/gcc-arm-none-eabi-6-2017-q2-update/arm-none-eabi/include/c++/6.3.1/bits/stl_list.h ****         assign(_InputIterator __first, _InputIterator __last)
 804:/home/vdykyy/Install/STM-32/gcc-arm-none-eabi-6-2017-q2-update/arm-none-eabi/include/c++/6.3.1/bits/stl_list.h ****         { _M_assign_dispatch(__first, __last, __false_type()); }
 805:/home/vdykyy/Install/STM-32/gcc-arm-none-eabi-6-2017-q2-update/arm-none-eabi/include/c++/6.3.1/bits/stl_list.h **** #else
 806:/home/vdykyy/Install/STM-32/gcc-arm-none-eabi-6-2017-q2-update/arm-none-eabi/include/c++/6.3.1/bits/stl_list.h ****       template<typename _InputIterator>
 807:/home/vdykyy/Install/STM-32/gcc-arm-none-eabi-6-2017-q2-update/arm-none-eabi/include/c++/6.3.1/bits/stl_list.h ****         void
 808:/home/vdykyy/Install/STM-32/gcc-arm-none-eabi-6-2017-q2-update/arm-none-eabi/include/c++/6.3.1/bits/stl_list.h ****         assign(_InputIterator __first, _InputIterator __last)
 809:/home/vdykyy/Install/STM-32/gcc-arm-none-eabi-6-2017-q2-update/arm-none-eabi/include/c++/6.3.1/bits/stl_list.h ****         {
 810:/home/vdykyy/Install/STM-32/gcc-arm-none-eabi-6-2017-q2-update/arm-none-eabi/include/c++/6.3.1/bits/stl_list.h **** 	  // Check whether it's an integral type.  If so, it's not an iterator.
 811:/home/vdykyy/Install/STM-32/gcc-arm-none-eabi-6-2017-q2-update/arm-none-eabi/include/c++/6.3.1/bits/stl_list.h **** 	  typedef typename std::__is_integer<_InputIterator>::__type _Integral;
 812:/home/vdykyy/Install/STM-32/gcc-arm-none-eabi-6-2017-q2-update/arm-none-eabi/include/c++/6.3.1/bits/stl_list.h **** 	  _M_assign_dispatch(__first, __last, _Integral());
 813:/home/vdykyy/Install/STM-32/gcc-arm-none-eabi-6-2017-q2-update/arm-none-eabi/include/c++/6.3.1/bits/stl_list.h **** 	}
 814:/home/vdykyy/Install/STM-32/gcc-arm-none-eabi-6-2017-q2-update/arm-none-eabi/include/c++/6.3.1/bits/stl_list.h **** #endif
 815:/home/vdykyy/Install/STM-32/gcc-arm-none-eabi-6-2017-q2-update/arm-none-eabi/include/c++/6.3.1/bits/stl_list.h **** 
 816:/home/vdykyy/Install/STM-32/gcc-arm-none-eabi-6-2017-q2-update/arm-none-eabi/include/c++/6.3.1/bits/stl_list.h **** #if __cplusplus >= 201103L
 817:/home/vdykyy/Install/STM-32/gcc-arm-none-eabi-6-2017-q2-update/arm-none-eabi/include/c++/6.3.1/bits/stl_list.h ****       /**
 818:/home/vdykyy/Install/STM-32/gcc-arm-none-eabi-6-2017-q2-update/arm-none-eabi/include/c++/6.3.1/bits/stl_list.h ****        *  @brief  Assigns an initializer_list to a %list.
 819:/home/vdykyy/Install/STM-32/gcc-arm-none-eabi-6-2017-q2-update/arm-none-eabi/include/c++/6.3.1/bits/stl_list.h ****        *  @param  __l  An initializer_list of value_type.
 820:/home/vdykyy/Install/STM-32/gcc-arm-none-eabi-6-2017-q2-update/arm-none-eabi/include/c++/6.3.1/bits/stl_list.h ****        *
 821:/home/vdykyy/Install/STM-32/gcc-arm-none-eabi-6-2017-q2-update/arm-none-eabi/include/c++/6.3.1/bits/stl_list.h ****        *  Replace the contents of the %list with copies of the elements
 822:/home/vdykyy/Install/STM-32/gcc-arm-none-eabi-6-2017-q2-update/arm-none-eabi/include/c++/6.3.1/bits/stl_list.h ****        *  in the initializer_list @a __l.  This is linear in __l.size().
 823:/home/vdykyy/Install/STM-32/gcc-arm-none-eabi-6-2017-q2-update/arm-none-eabi/include/c++/6.3.1/bits/stl_list.h ****        */
 824:/home/vdykyy/Install/STM-32/gcc-arm-none-eabi-6-2017-q2-update/arm-none-eabi/include/c++/6.3.1/bits/stl_list.h ****       void
 825:/home/vdykyy/Install/STM-32/gcc-arm-none-eabi-6-2017-q2-update/arm-none-eabi/include/c++/6.3.1/bits/stl_list.h ****       assign(initializer_list<value_type> __l)
 826:/home/vdykyy/Install/STM-32/gcc-arm-none-eabi-6-2017-q2-update/arm-none-eabi/include/c++/6.3.1/bits/stl_list.h ****       { this->assign(__l.begin(), __l.end()); }
 827:/home/vdykyy/Install/STM-32/gcc-arm-none-eabi-6-2017-q2-update/arm-none-eabi/include/c++/6.3.1/bits/stl_list.h **** #endif
 828:/home/vdykyy/Install/STM-32/gcc-arm-none-eabi-6-2017-q2-update/arm-none-eabi/include/c++/6.3.1/bits/stl_list.h **** 
ARM GAS  /tmp/ccni6OXp.s 			page 27


 829:/home/vdykyy/Install/STM-32/gcc-arm-none-eabi-6-2017-q2-update/arm-none-eabi/include/c++/6.3.1/bits/stl_list.h ****       /// Get a copy of the memory allocation object.
 830:/home/vdykyy/Install/STM-32/gcc-arm-none-eabi-6-2017-q2-update/arm-none-eabi/include/c++/6.3.1/bits/stl_list.h ****       allocator_type
 831:/home/vdykyy/Install/STM-32/gcc-arm-none-eabi-6-2017-q2-update/arm-none-eabi/include/c++/6.3.1/bits/stl_list.h ****       get_allocator() const _GLIBCXX_NOEXCEPT
 832:/home/vdykyy/Install/STM-32/gcc-arm-none-eabi-6-2017-q2-update/arm-none-eabi/include/c++/6.3.1/bits/stl_list.h ****       { return allocator_type(_Base::_M_get_Node_allocator()); }
 833:/home/vdykyy/Install/STM-32/gcc-arm-none-eabi-6-2017-q2-update/arm-none-eabi/include/c++/6.3.1/bits/stl_list.h **** 
 834:/home/vdykyy/Install/STM-32/gcc-arm-none-eabi-6-2017-q2-update/arm-none-eabi/include/c++/6.3.1/bits/stl_list.h ****       // iterators
 835:/home/vdykyy/Install/STM-32/gcc-arm-none-eabi-6-2017-q2-update/arm-none-eabi/include/c++/6.3.1/bits/stl_list.h ****       /**
 836:/home/vdykyy/Install/STM-32/gcc-arm-none-eabi-6-2017-q2-update/arm-none-eabi/include/c++/6.3.1/bits/stl_list.h ****        *  Returns a read/write iterator that points to the first element in the
 837:/home/vdykyy/Install/STM-32/gcc-arm-none-eabi-6-2017-q2-update/arm-none-eabi/include/c++/6.3.1/bits/stl_list.h ****        *  %list.  Iteration is done in ordinary element order.
 838:/home/vdykyy/Install/STM-32/gcc-arm-none-eabi-6-2017-q2-update/arm-none-eabi/include/c++/6.3.1/bits/stl_list.h ****        */
 839:/home/vdykyy/Install/STM-32/gcc-arm-none-eabi-6-2017-q2-update/arm-none-eabi/include/c++/6.3.1/bits/stl_list.h ****       iterator
 840:/home/vdykyy/Install/STM-32/gcc-arm-none-eabi-6-2017-q2-update/arm-none-eabi/include/c++/6.3.1/bits/stl_list.h ****       begin() _GLIBCXX_NOEXCEPT
 841:/home/vdykyy/Install/STM-32/gcc-arm-none-eabi-6-2017-q2-update/arm-none-eabi/include/c++/6.3.1/bits/stl_list.h ****       { return iterator(this->_M_impl._M_node._M_next); }
 842:/home/vdykyy/Install/STM-32/gcc-arm-none-eabi-6-2017-q2-update/arm-none-eabi/include/c++/6.3.1/bits/stl_list.h **** 
 843:/home/vdykyy/Install/STM-32/gcc-arm-none-eabi-6-2017-q2-update/arm-none-eabi/include/c++/6.3.1/bits/stl_list.h ****       /**
 844:/home/vdykyy/Install/STM-32/gcc-arm-none-eabi-6-2017-q2-update/arm-none-eabi/include/c++/6.3.1/bits/stl_list.h ****        *  Returns a read-only (constant) iterator that points to the
 845:/home/vdykyy/Install/STM-32/gcc-arm-none-eabi-6-2017-q2-update/arm-none-eabi/include/c++/6.3.1/bits/stl_list.h ****        *  first element in the %list.  Iteration is done in ordinary
 846:/home/vdykyy/Install/STM-32/gcc-arm-none-eabi-6-2017-q2-update/arm-none-eabi/include/c++/6.3.1/bits/stl_list.h ****        *  element order.
 847:/home/vdykyy/Install/STM-32/gcc-arm-none-eabi-6-2017-q2-update/arm-none-eabi/include/c++/6.3.1/bits/stl_list.h ****        */
 848:/home/vdykyy/Install/STM-32/gcc-arm-none-eabi-6-2017-q2-update/arm-none-eabi/include/c++/6.3.1/bits/stl_list.h ****       const_iterator
 849:/home/vdykyy/Install/STM-32/gcc-arm-none-eabi-6-2017-q2-update/arm-none-eabi/include/c++/6.3.1/bits/stl_list.h ****       begin() const _GLIBCXX_NOEXCEPT
 850:/home/vdykyy/Install/STM-32/gcc-arm-none-eabi-6-2017-q2-update/arm-none-eabi/include/c++/6.3.1/bits/stl_list.h ****       { return const_iterator(this->_M_impl._M_node._M_next); }
 851:/home/vdykyy/Install/STM-32/gcc-arm-none-eabi-6-2017-q2-update/arm-none-eabi/include/c++/6.3.1/bits/stl_list.h **** 
 852:/home/vdykyy/Install/STM-32/gcc-arm-none-eabi-6-2017-q2-update/arm-none-eabi/include/c++/6.3.1/bits/stl_list.h ****       /**
 853:/home/vdykyy/Install/STM-32/gcc-arm-none-eabi-6-2017-q2-update/arm-none-eabi/include/c++/6.3.1/bits/stl_list.h ****        *  Returns a read/write iterator that points one past the last
 854:/home/vdykyy/Install/STM-32/gcc-arm-none-eabi-6-2017-q2-update/arm-none-eabi/include/c++/6.3.1/bits/stl_list.h ****        *  element in the %list.  Iteration is done in ordinary element
 855:/home/vdykyy/Install/STM-32/gcc-arm-none-eabi-6-2017-q2-update/arm-none-eabi/include/c++/6.3.1/bits/stl_list.h ****        *  order.
 856:/home/vdykyy/Install/STM-32/gcc-arm-none-eabi-6-2017-q2-update/arm-none-eabi/include/c++/6.3.1/bits/stl_list.h ****        */
 857:/home/vdykyy/Install/STM-32/gcc-arm-none-eabi-6-2017-q2-update/arm-none-eabi/include/c++/6.3.1/bits/stl_list.h ****       iterator
 858:/home/vdykyy/Install/STM-32/gcc-arm-none-eabi-6-2017-q2-update/arm-none-eabi/include/c++/6.3.1/bits/stl_list.h ****       end() _GLIBCXX_NOEXCEPT
 859:/home/vdykyy/Install/STM-32/gcc-arm-none-eabi-6-2017-q2-update/arm-none-eabi/include/c++/6.3.1/bits/stl_list.h ****       { return iterator(&this->_M_impl._M_node); }
 860:/home/vdykyy/Install/STM-32/gcc-arm-none-eabi-6-2017-q2-update/arm-none-eabi/include/c++/6.3.1/bits/stl_list.h **** 
 861:/home/vdykyy/Install/STM-32/gcc-arm-none-eabi-6-2017-q2-update/arm-none-eabi/include/c++/6.3.1/bits/stl_list.h ****       /**
 862:/home/vdykyy/Install/STM-32/gcc-arm-none-eabi-6-2017-q2-update/arm-none-eabi/include/c++/6.3.1/bits/stl_list.h ****        *  Returns a read-only (constant) iterator that points one past
 863:/home/vdykyy/Install/STM-32/gcc-arm-none-eabi-6-2017-q2-update/arm-none-eabi/include/c++/6.3.1/bits/stl_list.h ****        *  the last element in the %list.  Iteration is done in ordinary
 864:/home/vdykyy/Install/STM-32/gcc-arm-none-eabi-6-2017-q2-update/arm-none-eabi/include/c++/6.3.1/bits/stl_list.h ****        *  element order.
 865:/home/vdykyy/Install/STM-32/gcc-arm-none-eabi-6-2017-q2-update/arm-none-eabi/include/c++/6.3.1/bits/stl_list.h ****        */
 866:/home/vdykyy/Install/STM-32/gcc-arm-none-eabi-6-2017-q2-update/arm-none-eabi/include/c++/6.3.1/bits/stl_list.h ****       const_iterator
 867:/home/vdykyy/Install/STM-32/gcc-arm-none-eabi-6-2017-q2-update/arm-none-eabi/include/c++/6.3.1/bits/stl_list.h ****       end() const _GLIBCXX_NOEXCEPT
 868:/home/vdykyy/Install/STM-32/gcc-arm-none-eabi-6-2017-q2-update/arm-none-eabi/include/c++/6.3.1/bits/stl_list.h ****       { return const_iterator(&this->_M_impl._M_node); }
 869:/home/vdykyy/Install/STM-32/gcc-arm-none-eabi-6-2017-q2-update/arm-none-eabi/include/c++/6.3.1/bits/stl_list.h **** 
 870:/home/vdykyy/Install/STM-32/gcc-arm-none-eabi-6-2017-q2-update/arm-none-eabi/include/c++/6.3.1/bits/stl_list.h ****       /**
 871:/home/vdykyy/Install/STM-32/gcc-arm-none-eabi-6-2017-q2-update/arm-none-eabi/include/c++/6.3.1/bits/stl_list.h ****        *  Returns a read/write reverse iterator that points to the last
 872:/home/vdykyy/Install/STM-32/gcc-arm-none-eabi-6-2017-q2-update/arm-none-eabi/include/c++/6.3.1/bits/stl_list.h ****        *  element in the %list.  Iteration is done in reverse element
 873:/home/vdykyy/Install/STM-32/gcc-arm-none-eabi-6-2017-q2-update/arm-none-eabi/include/c++/6.3.1/bits/stl_list.h ****        *  order.
 874:/home/vdykyy/Install/STM-32/gcc-arm-none-eabi-6-2017-q2-update/arm-none-eabi/include/c++/6.3.1/bits/stl_list.h ****        */
 875:/home/vdykyy/Install/STM-32/gcc-arm-none-eabi-6-2017-q2-update/arm-none-eabi/include/c++/6.3.1/bits/stl_list.h ****       reverse_iterator
 876:/home/vdykyy/Install/STM-32/gcc-arm-none-eabi-6-2017-q2-update/arm-none-eabi/include/c++/6.3.1/bits/stl_list.h ****       rbegin() _GLIBCXX_NOEXCEPT
 877:/home/vdykyy/Install/STM-32/gcc-arm-none-eabi-6-2017-q2-update/arm-none-eabi/include/c++/6.3.1/bits/stl_list.h ****       { return reverse_iterator(end()); }
 878:/home/vdykyy/Install/STM-32/gcc-arm-none-eabi-6-2017-q2-update/arm-none-eabi/include/c++/6.3.1/bits/stl_list.h **** 
 879:/home/vdykyy/Install/STM-32/gcc-arm-none-eabi-6-2017-q2-update/arm-none-eabi/include/c++/6.3.1/bits/stl_list.h ****       /**
 880:/home/vdykyy/Install/STM-32/gcc-arm-none-eabi-6-2017-q2-update/arm-none-eabi/include/c++/6.3.1/bits/stl_list.h ****        *  Returns a read-only (constant) reverse iterator that points to
 881:/home/vdykyy/Install/STM-32/gcc-arm-none-eabi-6-2017-q2-update/arm-none-eabi/include/c++/6.3.1/bits/stl_list.h ****        *  the last element in the %list.  Iteration is done in reverse
 882:/home/vdykyy/Install/STM-32/gcc-arm-none-eabi-6-2017-q2-update/arm-none-eabi/include/c++/6.3.1/bits/stl_list.h ****        *  element order.
 883:/home/vdykyy/Install/STM-32/gcc-arm-none-eabi-6-2017-q2-update/arm-none-eabi/include/c++/6.3.1/bits/stl_list.h ****        */
 884:/home/vdykyy/Install/STM-32/gcc-arm-none-eabi-6-2017-q2-update/arm-none-eabi/include/c++/6.3.1/bits/stl_list.h ****       const_reverse_iterator
 885:/home/vdykyy/Install/STM-32/gcc-arm-none-eabi-6-2017-q2-update/arm-none-eabi/include/c++/6.3.1/bits/stl_list.h ****       rbegin() const _GLIBCXX_NOEXCEPT
ARM GAS  /tmp/ccni6OXp.s 			page 28


 886:/home/vdykyy/Install/STM-32/gcc-arm-none-eabi-6-2017-q2-update/arm-none-eabi/include/c++/6.3.1/bits/stl_list.h ****       { return const_reverse_iterator(end()); }
 887:/home/vdykyy/Install/STM-32/gcc-arm-none-eabi-6-2017-q2-update/arm-none-eabi/include/c++/6.3.1/bits/stl_list.h **** 
 888:/home/vdykyy/Install/STM-32/gcc-arm-none-eabi-6-2017-q2-update/arm-none-eabi/include/c++/6.3.1/bits/stl_list.h ****       /**
 889:/home/vdykyy/Install/STM-32/gcc-arm-none-eabi-6-2017-q2-update/arm-none-eabi/include/c++/6.3.1/bits/stl_list.h ****        *  Returns a read/write reverse iterator that points to one
 890:/home/vdykyy/Install/STM-32/gcc-arm-none-eabi-6-2017-q2-update/arm-none-eabi/include/c++/6.3.1/bits/stl_list.h ****        *  before the first element in the %list.  Iteration is done in
 891:/home/vdykyy/Install/STM-32/gcc-arm-none-eabi-6-2017-q2-update/arm-none-eabi/include/c++/6.3.1/bits/stl_list.h ****        *  reverse element order.
 892:/home/vdykyy/Install/STM-32/gcc-arm-none-eabi-6-2017-q2-update/arm-none-eabi/include/c++/6.3.1/bits/stl_list.h ****        */
 893:/home/vdykyy/Install/STM-32/gcc-arm-none-eabi-6-2017-q2-update/arm-none-eabi/include/c++/6.3.1/bits/stl_list.h ****       reverse_iterator
 894:/home/vdykyy/Install/STM-32/gcc-arm-none-eabi-6-2017-q2-update/arm-none-eabi/include/c++/6.3.1/bits/stl_list.h ****       rend() _GLIBCXX_NOEXCEPT
 895:/home/vdykyy/Install/STM-32/gcc-arm-none-eabi-6-2017-q2-update/arm-none-eabi/include/c++/6.3.1/bits/stl_list.h ****       { return reverse_iterator(begin()); }
 896:/home/vdykyy/Install/STM-32/gcc-arm-none-eabi-6-2017-q2-update/arm-none-eabi/include/c++/6.3.1/bits/stl_list.h **** 
 897:/home/vdykyy/Install/STM-32/gcc-arm-none-eabi-6-2017-q2-update/arm-none-eabi/include/c++/6.3.1/bits/stl_list.h ****       /**
 898:/home/vdykyy/Install/STM-32/gcc-arm-none-eabi-6-2017-q2-update/arm-none-eabi/include/c++/6.3.1/bits/stl_list.h ****        *  Returns a read-only (constant) reverse iterator that points to one
 899:/home/vdykyy/Install/STM-32/gcc-arm-none-eabi-6-2017-q2-update/arm-none-eabi/include/c++/6.3.1/bits/stl_list.h ****        *  before the first element in the %list.  Iteration is done in reverse
 900:/home/vdykyy/Install/STM-32/gcc-arm-none-eabi-6-2017-q2-update/arm-none-eabi/include/c++/6.3.1/bits/stl_list.h ****        *  element order.
 901:/home/vdykyy/Install/STM-32/gcc-arm-none-eabi-6-2017-q2-update/arm-none-eabi/include/c++/6.3.1/bits/stl_list.h ****        */
 902:/home/vdykyy/Install/STM-32/gcc-arm-none-eabi-6-2017-q2-update/arm-none-eabi/include/c++/6.3.1/bits/stl_list.h ****       const_reverse_iterator
 903:/home/vdykyy/Install/STM-32/gcc-arm-none-eabi-6-2017-q2-update/arm-none-eabi/include/c++/6.3.1/bits/stl_list.h ****       rend() const _GLIBCXX_NOEXCEPT
 904:/home/vdykyy/Install/STM-32/gcc-arm-none-eabi-6-2017-q2-update/arm-none-eabi/include/c++/6.3.1/bits/stl_list.h ****       { return const_reverse_iterator(begin()); }
 905:/home/vdykyy/Install/STM-32/gcc-arm-none-eabi-6-2017-q2-update/arm-none-eabi/include/c++/6.3.1/bits/stl_list.h **** 
 906:/home/vdykyy/Install/STM-32/gcc-arm-none-eabi-6-2017-q2-update/arm-none-eabi/include/c++/6.3.1/bits/stl_list.h **** #if __cplusplus >= 201103L
 907:/home/vdykyy/Install/STM-32/gcc-arm-none-eabi-6-2017-q2-update/arm-none-eabi/include/c++/6.3.1/bits/stl_list.h ****       /**
 908:/home/vdykyy/Install/STM-32/gcc-arm-none-eabi-6-2017-q2-update/arm-none-eabi/include/c++/6.3.1/bits/stl_list.h ****        *  Returns a read-only (constant) iterator that points to the
 909:/home/vdykyy/Install/STM-32/gcc-arm-none-eabi-6-2017-q2-update/arm-none-eabi/include/c++/6.3.1/bits/stl_list.h ****        *  first element in the %list.  Iteration is done in ordinary
 910:/home/vdykyy/Install/STM-32/gcc-arm-none-eabi-6-2017-q2-update/arm-none-eabi/include/c++/6.3.1/bits/stl_list.h ****        *  element order.
 911:/home/vdykyy/Install/STM-32/gcc-arm-none-eabi-6-2017-q2-update/arm-none-eabi/include/c++/6.3.1/bits/stl_list.h ****        */
 912:/home/vdykyy/Install/STM-32/gcc-arm-none-eabi-6-2017-q2-update/arm-none-eabi/include/c++/6.3.1/bits/stl_list.h ****       const_iterator
 913:/home/vdykyy/Install/STM-32/gcc-arm-none-eabi-6-2017-q2-update/arm-none-eabi/include/c++/6.3.1/bits/stl_list.h ****       cbegin() const noexcept
 914:/home/vdykyy/Install/STM-32/gcc-arm-none-eabi-6-2017-q2-update/arm-none-eabi/include/c++/6.3.1/bits/stl_list.h ****       { return const_iterator(this->_M_impl._M_node._M_next); }
 915:/home/vdykyy/Install/STM-32/gcc-arm-none-eabi-6-2017-q2-update/arm-none-eabi/include/c++/6.3.1/bits/stl_list.h **** 
 916:/home/vdykyy/Install/STM-32/gcc-arm-none-eabi-6-2017-q2-update/arm-none-eabi/include/c++/6.3.1/bits/stl_list.h ****       /**
 917:/home/vdykyy/Install/STM-32/gcc-arm-none-eabi-6-2017-q2-update/arm-none-eabi/include/c++/6.3.1/bits/stl_list.h ****        *  Returns a read-only (constant) iterator that points one past
 918:/home/vdykyy/Install/STM-32/gcc-arm-none-eabi-6-2017-q2-update/arm-none-eabi/include/c++/6.3.1/bits/stl_list.h ****        *  the last element in the %list.  Iteration is done in ordinary
 919:/home/vdykyy/Install/STM-32/gcc-arm-none-eabi-6-2017-q2-update/arm-none-eabi/include/c++/6.3.1/bits/stl_list.h ****        *  element order.
 920:/home/vdykyy/Install/STM-32/gcc-arm-none-eabi-6-2017-q2-update/arm-none-eabi/include/c++/6.3.1/bits/stl_list.h ****        */
 921:/home/vdykyy/Install/STM-32/gcc-arm-none-eabi-6-2017-q2-update/arm-none-eabi/include/c++/6.3.1/bits/stl_list.h ****       const_iterator
 922:/home/vdykyy/Install/STM-32/gcc-arm-none-eabi-6-2017-q2-update/arm-none-eabi/include/c++/6.3.1/bits/stl_list.h ****       cend() const noexcept
 923:/home/vdykyy/Install/STM-32/gcc-arm-none-eabi-6-2017-q2-update/arm-none-eabi/include/c++/6.3.1/bits/stl_list.h ****       { return const_iterator(&this->_M_impl._M_node); }
 924:/home/vdykyy/Install/STM-32/gcc-arm-none-eabi-6-2017-q2-update/arm-none-eabi/include/c++/6.3.1/bits/stl_list.h **** 
 925:/home/vdykyy/Install/STM-32/gcc-arm-none-eabi-6-2017-q2-update/arm-none-eabi/include/c++/6.3.1/bits/stl_list.h ****       /**
 926:/home/vdykyy/Install/STM-32/gcc-arm-none-eabi-6-2017-q2-update/arm-none-eabi/include/c++/6.3.1/bits/stl_list.h ****        *  Returns a read-only (constant) reverse iterator that points to
 927:/home/vdykyy/Install/STM-32/gcc-arm-none-eabi-6-2017-q2-update/arm-none-eabi/include/c++/6.3.1/bits/stl_list.h ****        *  the last element in the %list.  Iteration is done in reverse
 928:/home/vdykyy/Install/STM-32/gcc-arm-none-eabi-6-2017-q2-update/arm-none-eabi/include/c++/6.3.1/bits/stl_list.h ****        *  element order.
 929:/home/vdykyy/Install/STM-32/gcc-arm-none-eabi-6-2017-q2-update/arm-none-eabi/include/c++/6.3.1/bits/stl_list.h ****        */
 930:/home/vdykyy/Install/STM-32/gcc-arm-none-eabi-6-2017-q2-update/arm-none-eabi/include/c++/6.3.1/bits/stl_list.h ****       const_reverse_iterator
 931:/home/vdykyy/Install/STM-32/gcc-arm-none-eabi-6-2017-q2-update/arm-none-eabi/include/c++/6.3.1/bits/stl_list.h ****       crbegin() const noexcept
 932:/home/vdykyy/Install/STM-32/gcc-arm-none-eabi-6-2017-q2-update/arm-none-eabi/include/c++/6.3.1/bits/stl_list.h ****       { return const_reverse_iterator(end()); }
 933:/home/vdykyy/Install/STM-32/gcc-arm-none-eabi-6-2017-q2-update/arm-none-eabi/include/c++/6.3.1/bits/stl_list.h **** 
 934:/home/vdykyy/Install/STM-32/gcc-arm-none-eabi-6-2017-q2-update/arm-none-eabi/include/c++/6.3.1/bits/stl_list.h ****       /**
 935:/home/vdykyy/Install/STM-32/gcc-arm-none-eabi-6-2017-q2-update/arm-none-eabi/include/c++/6.3.1/bits/stl_list.h ****        *  Returns a read-only (constant) reverse iterator that points to one
 936:/home/vdykyy/Install/STM-32/gcc-arm-none-eabi-6-2017-q2-update/arm-none-eabi/include/c++/6.3.1/bits/stl_list.h ****        *  before the first element in the %list.  Iteration is done in reverse
 937:/home/vdykyy/Install/STM-32/gcc-arm-none-eabi-6-2017-q2-update/arm-none-eabi/include/c++/6.3.1/bits/stl_list.h ****        *  element order.
 938:/home/vdykyy/Install/STM-32/gcc-arm-none-eabi-6-2017-q2-update/arm-none-eabi/include/c++/6.3.1/bits/stl_list.h ****        */
 939:/home/vdykyy/Install/STM-32/gcc-arm-none-eabi-6-2017-q2-update/arm-none-eabi/include/c++/6.3.1/bits/stl_list.h ****       const_reverse_iterator
 940:/home/vdykyy/Install/STM-32/gcc-arm-none-eabi-6-2017-q2-update/arm-none-eabi/include/c++/6.3.1/bits/stl_list.h ****       crend() const noexcept
 941:/home/vdykyy/Install/STM-32/gcc-arm-none-eabi-6-2017-q2-update/arm-none-eabi/include/c++/6.3.1/bits/stl_list.h ****       { return const_reverse_iterator(begin()); }
 942:/home/vdykyy/Install/STM-32/gcc-arm-none-eabi-6-2017-q2-update/arm-none-eabi/include/c++/6.3.1/bits/stl_list.h **** #endif
ARM GAS  /tmp/ccni6OXp.s 			page 29


 943:/home/vdykyy/Install/STM-32/gcc-arm-none-eabi-6-2017-q2-update/arm-none-eabi/include/c++/6.3.1/bits/stl_list.h **** 
 944:/home/vdykyy/Install/STM-32/gcc-arm-none-eabi-6-2017-q2-update/arm-none-eabi/include/c++/6.3.1/bits/stl_list.h ****       // [23.2.2.2] capacity
 945:/home/vdykyy/Install/STM-32/gcc-arm-none-eabi-6-2017-q2-update/arm-none-eabi/include/c++/6.3.1/bits/stl_list.h ****       /**
 946:/home/vdykyy/Install/STM-32/gcc-arm-none-eabi-6-2017-q2-update/arm-none-eabi/include/c++/6.3.1/bits/stl_list.h ****        *  Returns true if the %list is empty.  (Thus begin() would equal
 947:/home/vdykyy/Install/STM-32/gcc-arm-none-eabi-6-2017-q2-update/arm-none-eabi/include/c++/6.3.1/bits/stl_list.h ****        *  end().)
 948:/home/vdykyy/Install/STM-32/gcc-arm-none-eabi-6-2017-q2-update/arm-none-eabi/include/c++/6.3.1/bits/stl_list.h ****        */
 949:/home/vdykyy/Install/STM-32/gcc-arm-none-eabi-6-2017-q2-update/arm-none-eabi/include/c++/6.3.1/bits/stl_list.h ****       bool
 950:/home/vdykyy/Install/STM-32/gcc-arm-none-eabi-6-2017-q2-update/arm-none-eabi/include/c++/6.3.1/bits/stl_list.h ****       empty() const _GLIBCXX_NOEXCEPT
 951:/home/vdykyy/Install/STM-32/gcc-arm-none-eabi-6-2017-q2-update/arm-none-eabi/include/c++/6.3.1/bits/stl_list.h ****       { return this->_M_impl._M_node._M_next == &this->_M_impl._M_node; }
 952:/home/vdykyy/Install/STM-32/gcc-arm-none-eabi-6-2017-q2-update/arm-none-eabi/include/c++/6.3.1/bits/stl_list.h **** 
 953:/home/vdykyy/Install/STM-32/gcc-arm-none-eabi-6-2017-q2-update/arm-none-eabi/include/c++/6.3.1/bits/stl_list.h ****       /**  Returns the number of elements in the %list.  */
 954:/home/vdykyy/Install/STM-32/gcc-arm-none-eabi-6-2017-q2-update/arm-none-eabi/include/c++/6.3.1/bits/stl_list.h ****       size_type
 955:/home/vdykyy/Install/STM-32/gcc-arm-none-eabi-6-2017-q2-update/arm-none-eabi/include/c++/6.3.1/bits/stl_list.h ****       size() const _GLIBCXX_NOEXCEPT
 956:/home/vdykyy/Install/STM-32/gcc-arm-none-eabi-6-2017-q2-update/arm-none-eabi/include/c++/6.3.1/bits/stl_list.h ****       { return this->_M_node_count(); }
 957:/home/vdykyy/Install/STM-32/gcc-arm-none-eabi-6-2017-q2-update/arm-none-eabi/include/c++/6.3.1/bits/stl_list.h **** 
 958:/home/vdykyy/Install/STM-32/gcc-arm-none-eabi-6-2017-q2-update/arm-none-eabi/include/c++/6.3.1/bits/stl_list.h ****       /**  Returns the size() of the largest possible %list.  */
 959:/home/vdykyy/Install/STM-32/gcc-arm-none-eabi-6-2017-q2-update/arm-none-eabi/include/c++/6.3.1/bits/stl_list.h ****       size_type
 960:/home/vdykyy/Install/STM-32/gcc-arm-none-eabi-6-2017-q2-update/arm-none-eabi/include/c++/6.3.1/bits/stl_list.h ****       max_size() const _GLIBCXX_NOEXCEPT
 961:/home/vdykyy/Install/STM-32/gcc-arm-none-eabi-6-2017-q2-update/arm-none-eabi/include/c++/6.3.1/bits/stl_list.h ****       { return _Node_alloc_traits::max_size(_M_get_Node_allocator()); }
 962:/home/vdykyy/Install/STM-32/gcc-arm-none-eabi-6-2017-q2-update/arm-none-eabi/include/c++/6.3.1/bits/stl_list.h **** 
 963:/home/vdykyy/Install/STM-32/gcc-arm-none-eabi-6-2017-q2-update/arm-none-eabi/include/c++/6.3.1/bits/stl_list.h **** #if __cplusplus >= 201103L
 964:/home/vdykyy/Install/STM-32/gcc-arm-none-eabi-6-2017-q2-update/arm-none-eabi/include/c++/6.3.1/bits/stl_list.h ****       /**
 965:/home/vdykyy/Install/STM-32/gcc-arm-none-eabi-6-2017-q2-update/arm-none-eabi/include/c++/6.3.1/bits/stl_list.h ****        *  @brief Resizes the %list to the specified number of elements.
 966:/home/vdykyy/Install/STM-32/gcc-arm-none-eabi-6-2017-q2-update/arm-none-eabi/include/c++/6.3.1/bits/stl_list.h ****        *  @param __new_size Number of elements the %list should contain.
 967:/home/vdykyy/Install/STM-32/gcc-arm-none-eabi-6-2017-q2-update/arm-none-eabi/include/c++/6.3.1/bits/stl_list.h ****        *
 968:/home/vdykyy/Install/STM-32/gcc-arm-none-eabi-6-2017-q2-update/arm-none-eabi/include/c++/6.3.1/bits/stl_list.h ****        *  This function will %resize the %list to the specified number
 969:/home/vdykyy/Install/STM-32/gcc-arm-none-eabi-6-2017-q2-update/arm-none-eabi/include/c++/6.3.1/bits/stl_list.h ****        *  of elements.  If the number is smaller than the %list's
 970:/home/vdykyy/Install/STM-32/gcc-arm-none-eabi-6-2017-q2-update/arm-none-eabi/include/c++/6.3.1/bits/stl_list.h ****        *  current size the %list is truncated, otherwise default
 971:/home/vdykyy/Install/STM-32/gcc-arm-none-eabi-6-2017-q2-update/arm-none-eabi/include/c++/6.3.1/bits/stl_list.h ****        *  constructed elements are appended.
 972:/home/vdykyy/Install/STM-32/gcc-arm-none-eabi-6-2017-q2-update/arm-none-eabi/include/c++/6.3.1/bits/stl_list.h ****        */
 973:/home/vdykyy/Install/STM-32/gcc-arm-none-eabi-6-2017-q2-update/arm-none-eabi/include/c++/6.3.1/bits/stl_list.h ****       void
 974:/home/vdykyy/Install/STM-32/gcc-arm-none-eabi-6-2017-q2-update/arm-none-eabi/include/c++/6.3.1/bits/stl_list.h ****       resize(size_type __new_size);
 975:/home/vdykyy/Install/STM-32/gcc-arm-none-eabi-6-2017-q2-update/arm-none-eabi/include/c++/6.3.1/bits/stl_list.h **** 
 976:/home/vdykyy/Install/STM-32/gcc-arm-none-eabi-6-2017-q2-update/arm-none-eabi/include/c++/6.3.1/bits/stl_list.h ****       /**
 977:/home/vdykyy/Install/STM-32/gcc-arm-none-eabi-6-2017-q2-update/arm-none-eabi/include/c++/6.3.1/bits/stl_list.h ****        *  @brief Resizes the %list to the specified number of elements.
 978:/home/vdykyy/Install/STM-32/gcc-arm-none-eabi-6-2017-q2-update/arm-none-eabi/include/c++/6.3.1/bits/stl_list.h ****        *  @param __new_size Number of elements the %list should contain.
 979:/home/vdykyy/Install/STM-32/gcc-arm-none-eabi-6-2017-q2-update/arm-none-eabi/include/c++/6.3.1/bits/stl_list.h ****        *  @param __x Data with which new elements should be populated.
 980:/home/vdykyy/Install/STM-32/gcc-arm-none-eabi-6-2017-q2-update/arm-none-eabi/include/c++/6.3.1/bits/stl_list.h ****        *
 981:/home/vdykyy/Install/STM-32/gcc-arm-none-eabi-6-2017-q2-update/arm-none-eabi/include/c++/6.3.1/bits/stl_list.h ****        *  This function will %resize the %list to the specified number
 982:/home/vdykyy/Install/STM-32/gcc-arm-none-eabi-6-2017-q2-update/arm-none-eabi/include/c++/6.3.1/bits/stl_list.h ****        *  of elements.  If the number is smaller than the %list's
 983:/home/vdykyy/Install/STM-32/gcc-arm-none-eabi-6-2017-q2-update/arm-none-eabi/include/c++/6.3.1/bits/stl_list.h ****        *  current size the %list is truncated, otherwise the %list is
 984:/home/vdykyy/Install/STM-32/gcc-arm-none-eabi-6-2017-q2-update/arm-none-eabi/include/c++/6.3.1/bits/stl_list.h ****        *  extended and new elements are populated with given data.
 985:/home/vdykyy/Install/STM-32/gcc-arm-none-eabi-6-2017-q2-update/arm-none-eabi/include/c++/6.3.1/bits/stl_list.h ****        */
 986:/home/vdykyy/Install/STM-32/gcc-arm-none-eabi-6-2017-q2-update/arm-none-eabi/include/c++/6.3.1/bits/stl_list.h ****       void
 987:/home/vdykyy/Install/STM-32/gcc-arm-none-eabi-6-2017-q2-update/arm-none-eabi/include/c++/6.3.1/bits/stl_list.h ****       resize(size_type __new_size, const value_type& __x);
 988:/home/vdykyy/Install/STM-32/gcc-arm-none-eabi-6-2017-q2-update/arm-none-eabi/include/c++/6.3.1/bits/stl_list.h **** #else
 989:/home/vdykyy/Install/STM-32/gcc-arm-none-eabi-6-2017-q2-update/arm-none-eabi/include/c++/6.3.1/bits/stl_list.h ****       /**
 990:/home/vdykyy/Install/STM-32/gcc-arm-none-eabi-6-2017-q2-update/arm-none-eabi/include/c++/6.3.1/bits/stl_list.h ****        *  @brief Resizes the %list to the specified number of elements.
 991:/home/vdykyy/Install/STM-32/gcc-arm-none-eabi-6-2017-q2-update/arm-none-eabi/include/c++/6.3.1/bits/stl_list.h ****        *  @param __new_size Number of elements the %list should contain.
 992:/home/vdykyy/Install/STM-32/gcc-arm-none-eabi-6-2017-q2-update/arm-none-eabi/include/c++/6.3.1/bits/stl_list.h ****        *  @param __x Data with which new elements should be populated.
 993:/home/vdykyy/Install/STM-32/gcc-arm-none-eabi-6-2017-q2-update/arm-none-eabi/include/c++/6.3.1/bits/stl_list.h ****        *
 994:/home/vdykyy/Install/STM-32/gcc-arm-none-eabi-6-2017-q2-update/arm-none-eabi/include/c++/6.3.1/bits/stl_list.h ****        *  This function will %resize the %list to the specified number
 995:/home/vdykyy/Install/STM-32/gcc-arm-none-eabi-6-2017-q2-update/arm-none-eabi/include/c++/6.3.1/bits/stl_list.h ****        *  of elements.  If the number is smaller than the %list's
 996:/home/vdykyy/Install/STM-32/gcc-arm-none-eabi-6-2017-q2-update/arm-none-eabi/include/c++/6.3.1/bits/stl_list.h ****        *  current size the %list is truncated, otherwise the %list is
 997:/home/vdykyy/Install/STM-32/gcc-arm-none-eabi-6-2017-q2-update/arm-none-eabi/include/c++/6.3.1/bits/stl_list.h ****        *  extended and new elements are populated with given data.
 998:/home/vdykyy/Install/STM-32/gcc-arm-none-eabi-6-2017-q2-update/arm-none-eabi/include/c++/6.3.1/bits/stl_list.h ****        */
 999:/home/vdykyy/Install/STM-32/gcc-arm-none-eabi-6-2017-q2-update/arm-none-eabi/include/c++/6.3.1/bits/stl_list.h ****       void
ARM GAS  /tmp/ccni6OXp.s 			page 30


1000:/home/vdykyy/Install/STM-32/gcc-arm-none-eabi-6-2017-q2-update/arm-none-eabi/include/c++/6.3.1/bits/stl_list.h ****       resize(size_type __new_size, value_type __x = value_type());
1001:/home/vdykyy/Install/STM-32/gcc-arm-none-eabi-6-2017-q2-update/arm-none-eabi/include/c++/6.3.1/bits/stl_list.h **** #endif
1002:/home/vdykyy/Install/STM-32/gcc-arm-none-eabi-6-2017-q2-update/arm-none-eabi/include/c++/6.3.1/bits/stl_list.h **** 
1003:/home/vdykyy/Install/STM-32/gcc-arm-none-eabi-6-2017-q2-update/arm-none-eabi/include/c++/6.3.1/bits/stl_list.h ****       // element access
1004:/home/vdykyy/Install/STM-32/gcc-arm-none-eabi-6-2017-q2-update/arm-none-eabi/include/c++/6.3.1/bits/stl_list.h ****       /**
1005:/home/vdykyy/Install/STM-32/gcc-arm-none-eabi-6-2017-q2-update/arm-none-eabi/include/c++/6.3.1/bits/stl_list.h ****        *  Returns a read/write reference to the data at the first
1006:/home/vdykyy/Install/STM-32/gcc-arm-none-eabi-6-2017-q2-update/arm-none-eabi/include/c++/6.3.1/bits/stl_list.h ****        *  element of the %list.
1007:/home/vdykyy/Install/STM-32/gcc-arm-none-eabi-6-2017-q2-update/arm-none-eabi/include/c++/6.3.1/bits/stl_list.h ****        */
1008:/home/vdykyy/Install/STM-32/gcc-arm-none-eabi-6-2017-q2-update/arm-none-eabi/include/c++/6.3.1/bits/stl_list.h ****       reference
1009:/home/vdykyy/Install/STM-32/gcc-arm-none-eabi-6-2017-q2-update/arm-none-eabi/include/c++/6.3.1/bits/stl_list.h ****       front() _GLIBCXX_NOEXCEPT
1010:/home/vdykyy/Install/STM-32/gcc-arm-none-eabi-6-2017-q2-update/arm-none-eabi/include/c++/6.3.1/bits/stl_list.h ****       { return *begin(); }
1011:/home/vdykyy/Install/STM-32/gcc-arm-none-eabi-6-2017-q2-update/arm-none-eabi/include/c++/6.3.1/bits/stl_list.h **** 
1012:/home/vdykyy/Install/STM-32/gcc-arm-none-eabi-6-2017-q2-update/arm-none-eabi/include/c++/6.3.1/bits/stl_list.h ****       /**
1013:/home/vdykyy/Install/STM-32/gcc-arm-none-eabi-6-2017-q2-update/arm-none-eabi/include/c++/6.3.1/bits/stl_list.h ****        *  Returns a read-only (constant) reference to the data at the first
1014:/home/vdykyy/Install/STM-32/gcc-arm-none-eabi-6-2017-q2-update/arm-none-eabi/include/c++/6.3.1/bits/stl_list.h ****        *  element of the %list.
1015:/home/vdykyy/Install/STM-32/gcc-arm-none-eabi-6-2017-q2-update/arm-none-eabi/include/c++/6.3.1/bits/stl_list.h ****        */
1016:/home/vdykyy/Install/STM-32/gcc-arm-none-eabi-6-2017-q2-update/arm-none-eabi/include/c++/6.3.1/bits/stl_list.h ****       const_reference
1017:/home/vdykyy/Install/STM-32/gcc-arm-none-eabi-6-2017-q2-update/arm-none-eabi/include/c++/6.3.1/bits/stl_list.h ****       front() const _GLIBCXX_NOEXCEPT
1018:/home/vdykyy/Install/STM-32/gcc-arm-none-eabi-6-2017-q2-update/arm-none-eabi/include/c++/6.3.1/bits/stl_list.h ****       { return *begin(); }
1019:/home/vdykyy/Install/STM-32/gcc-arm-none-eabi-6-2017-q2-update/arm-none-eabi/include/c++/6.3.1/bits/stl_list.h **** 
1020:/home/vdykyy/Install/STM-32/gcc-arm-none-eabi-6-2017-q2-update/arm-none-eabi/include/c++/6.3.1/bits/stl_list.h ****       /**
1021:/home/vdykyy/Install/STM-32/gcc-arm-none-eabi-6-2017-q2-update/arm-none-eabi/include/c++/6.3.1/bits/stl_list.h ****        *  Returns a read/write reference to the data at the last element
1022:/home/vdykyy/Install/STM-32/gcc-arm-none-eabi-6-2017-q2-update/arm-none-eabi/include/c++/6.3.1/bits/stl_list.h ****        *  of the %list.
1023:/home/vdykyy/Install/STM-32/gcc-arm-none-eabi-6-2017-q2-update/arm-none-eabi/include/c++/6.3.1/bits/stl_list.h ****        */
1024:/home/vdykyy/Install/STM-32/gcc-arm-none-eabi-6-2017-q2-update/arm-none-eabi/include/c++/6.3.1/bits/stl_list.h ****       reference
1025:/home/vdykyy/Install/STM-32/gcc-arm-none-eabi-6-2017-q2-update/arm-none-eabi/include/c++/6.3.1/bits/stl_list.h ****       back() _GLIBCXX_NOEXCEPT
1026:/home/vdykyy/Install/STM-32/gcc-arm-none-eabi-6-2017-q2-update/arm-none-eabi/include/c++/6.3.1/bits/stl_list.h ****       { 
1027:/home/vdykyy/Install/STM-32/gcc-arm-none-eabi-6-2017-q2-update/arm-none-eabi/include/c++/6.3.1/bits/stl_list.h **** 	iterator __tmp = end();
1028:/home/vdykyy/Install/STM-32/gcc-arm-none-eabi-6-2017-q2-update/arm-none-eabi/include/c++/6.3.1/bits/stl_list.h **** 	--__tmp;
1029:/home/vdykyy/Install/STM-32/gcc-arm-none-eabi-6-2017-q2-update/arm-none-eabi/include/c++/6.3.1/bits/stl_list.h **** 	return *__tmp;
1030:/home/vdykyy/Install/STM-32/gcc-arm-none-eabi-6-2017-q2-update/arm-none-eabi/include/c++/6.3.1/bits/stl_list.h ****       }
1031:/home/vdykyy/Install/STM-32/gcc-arm-none-eabi-6-2017-q2-update/arm-none-eabi/include/c++/6.3.1/bits/stl_list.h **** 
1032:/home/vdykyy/Install/STM-32/gcc-arm-none-eabi-6-2017-q2-update/arm-none-eabi/include/c++/6.3.1/bits/stl_list.h ****       /**
1033:/home/vdykyy/Install/STM-32/gcc-arm-none-eabi-6-2017-q2-update/arm-none-eabi/include/c++/6.3.1/bits/stl_list.h ****        *  Returns a read-only (constant) reference to the data at the last
1034:/home/vdykyy/Install/STM-32/gcc-arm-none-eabi-6-2017-q2-update/arm-none-eabi/include/c++/6.3.1/bits/stl_list.h ****        *  element of the %list.
1035:/home/vdykyy/Install/STM-32/gcc-arm-none-eabi-6-2017-q2-update/arm-none-eabi/include/c++/6.3.1/bits/stl_list.h ****        */
1036:/home/vdykyy/Install/STM-32/gcc-arm-none-eabi-6-2017-q2-update/arm-none-eabi/include/c++/6.3.1/bits/stl_list.h ****       const_reference
1037:/home/vdykyy/Install/STM-32/gcc-arm-none-eabi-6-2017-q2-update/arm-none-eabi/include/c++/6.3.1/bits/stl_list.h ****       back() const _GLIBCXX_NOEXCEPT
1038:/home/vdykyy/Install/STM-32/gcc-arm-none-eabi-6-2017-q2-update/arm-none-eabi/include/c++/6.3.1/bits/stl_list.h ****       { 
1039:/home/vdykyy/Install/STM-32/gcc-arm-none-eabi-6-2017-q2-update/arm-none-eabi/include/c++/6.3.1/bits/stl_list.h **** 	const_iterator __tmp = end();
1040:/home/vdykyy/Install/STM-32/gcc-arm-none-eabi-6-2017-q2-update/arm-none-eabi/include/c++/6.3.1/bits/stl_list.h **** 	--__tmp;
1041:/home/vdykyy/Install/STM-32/gcc-arm-none-eabi-6-2017-q2-update/arm-none-eabi/include/c++/6.3.1/bits/stl_list.h **** 	return *__tmp;
1042:/home/vdykyy/Install/STM-32/gcc-arm-none-eabi-6-2017-q2-update/arm-none-eabi/include/c++/6.3.1/bits/stl_list.h ****       }
1043:/home/vdykyy/Install/STM-32/gcc-arm-none-eabi-6-2017-q2-update/arm-none-eabi/include/c++/6.3.1/bits/stl_list.h **** 
1044:/home/vdykyy/Install/STM-32/gcc-arm-none-eabi-6-2017-q2-update/arm-none-eabi/include/c++/6.3.1/bits/stl_list.h ****       // [23.2.2.3] modifiers
1045:/home/vdykyy/Install/STM-32/gcc-arm-none-eabi-6-2017-q2-update/arm-none-eabi/include/c++/6.3.1/bits/stl_list.h ****       /**
1046:/home/vdykyy/Install/STM-32/gcc-arm-none-eabi-6-2017-q2-update/arm-none-eabi/include/c++/6.3.1/bits/stl_list.h ****        *  @brief  Add data to the front of the %list.
1047:/home/vdykyy/Install/STM-32/gcc-arm-none-eabi-6-2017-q2-update/arm-none-eabi/include/c++/6.3.1/bits/stl_list.h ****        *  @param  __x  Data to be added.
1048:/home/vdykyy/Install/STM-32/gcc-arm-none-eabi-6-2017-q2-update/arm-none-eabi/include/c++/6.3.1/bits/stl_list.h ****        *
1049:/home/vdykyy/Install/STM-32/gcc-arm-none-eabi-6-2017-q2-update/arm-none-eabi/include/c++/6.3.1/bits/stl_list.h ****        *  This is a typical stack operation.  The function creates an
1050:/home/vdykyy/Install/STM-32/gcc-arm-none-eabi-6-2017-q2-update/arm-none-eabi/include/c++/6.3.1/bits/stl_list.h ****        *  element at the front of the %list and assigns the given data
1051:/home/vdykyy/Install/STM-32/gcc-arm-none-eabi-6-2017-q2-update/arm-none-eabi/include/c++/6.3.1/bits/stl_list.h ****        *  to it.  Due to the nature of a %list this operation can be
1052:/home/vdykyy/Install/STM-32/gcc-arm-none-eabi-6-2017-q2-update/arm-none-eabi/include/c++/6.3.1/bits/stl_list.h ****        *  done in constant time, and does not invalidate iterators and
1053:/home/vdykyy/Install/STM-32/gcc-arm-none-eabi-6-2017-q2-update/arm-none-eabi/include/c++/6.3.1/bits/stl_list.h ****        *  references.
1054:/home/vdykyy/Install/STM-32/gcc-arm-none-eabi-6-2017-q2-update/arm-none-eabi/include/c++/6.3.1/bits/stl_list.h ****        */
1055:/home/vdykyy/Install/STM-32/gcc-arm-none-eabi-6-2017-q2-update/arm-none-eabi/include/c++/6.3.1/bits/stl_list.h ****       void
1056:/home/vdykyy/Install/STM-32/gcc-arm-none-eabi-6-2017-q2-update/arm-none-eabi/include/c++/6.3.1/bits/stl_list.h ****       push_front(const value_type& __x)
ARM GAS  /tmp/ccni6OXp.s 			page 31


1057:/home/vdykyy/Install/STM-32/gcc-arm-none-eabi-6-2017-q2-update/arm-none-eabi/include/c++/6.3.1/bits/stl_list.h ****       { this->_M_insert(begin(), __x); }
1058:/home/vdykyy/Install/STM-32/gcc-arm-none-eabi-6-2017-q2-update/arm-none-eabi/include/c++/6.3.1/bits/stl_list.h **** 
1059:/home/vdykyy/Install/STM-32/gcc-arm-none-eabi-6-2017-q2-update/arm-none-eabi/include/c++/6.3.1/bits/stl_list.h **** #if __cplusplus >= 201103L
1060:/home/vdykyy/Install/STM-32/gcc-arm-none-eabi-6-2017-q2-update/arm-none-eabi/include/c++/6.3.1/bits/stl_list.h ****       void
1061:/home/vdykyy/Install/STM-32/gcc-arm-none-eabi-6-2017-q2-update/arm-none-eabi/include/c++/6.3.1/bits/stl_list.h ****       push_front(value_type&& __x)
1062:/home/vdykyy/Install/STM-32/gcc-arm-none-eabi-6-2017-q2-update/arm-none-eabi/include/c++/6.3.1/bits/stl_list.h ****       { this->_M_insert(begin(), std::move(__x)); }
1063:/home/vdykyy/Install/STM-32/gcc-arm-none-eabi-6-2017-q2-update/arm-none-eabi/include/c++/6.3.1/bits/stl_list.h **** 
1064:/home/vdykyy/Install/STM-32/gcc-arm-none-eabi-6-2017-q2-update/arm-none-eabi/include/c++/6.3.1/bits/stl_list.h ****       template<typename... _Args>
1065:/home/vdykyy/Install/STM-32/gcc-arm-none-eabi-6-2017-q2-update/arm-none-eabi/include/c++/6.3.1/bits/stl_list.h ****         void
1066:/home/vdykyy/Install/STM-32/gcc-arm-none-eabi-6-2017-q2-update/arm-none-eabi/include/c++/6.3.1/bits/stl_list.h ****         emplace_front(_Args&&... __args)
1067:/home/vdykyy/Install/STM-32/gcc-arm-none-eabi-6-2017-q2-update/arm-none-eabi/include/c++/6.3.1/bits/stl_list.h ****         { this->_M_insert(begin(), std::forward<_Args>(__args)...); }
1068:/home/vdykyy/Install/STM-32/gcc-arm-none-eabi-6-2017-q2-update/arm-none-eabi/include/c++/6.3.1/bits/stl_list.h **** #endif
1069:/home/vdykyy/Install/STM-32/gcc-arm-none-eabi-6-2017-q2-update/arm-none-eabi/include/c++/6.3.1/bits/stl_list.h **** 
1070:/home/vdykyy/Install/STM-32/gcc-arm-none-eabi-6-2017-q2-update/arm-none-eabi/include/c++/6.3.1/bits/stl_list.h ****       /**
1071:/home/vdykyy/Install/STM-32/gcc-arm-none-eabi-6-2017-q2-update/arm-none-eabi/include/c++/6.3.1/bits/stl_list.h ****        *  @brief  Removes first element.
1072:/home/vdykyy/Install/STM-32/gcc-arm-none-eabi-6-2017-q2-update/arm-none-eabi/include/c++/6.3.1/bits/stl_list.h ****        *
1073:/home/vdykyy/Install/STM-32/gcc-arm-none-eabi-6-2017-q2-update/arm-none-eabi/include/c++/6.3.1/bits/stl_list.h ****        *  This is a typical stack operation.  It shrinks the %list by
1074:/home/vdykyy/Install/STM-32/gcc-arm-none-eabi-6-2017-q2-update/arm-none-eabi/include/c++/6.3.1/bits/stl_list.h ****        *  one.  Due to the nature of a %list this operation can be done
1075:/home/vdykyy/Install/STM-32/gcc-arm-none-eabi-6-2017-q2-update/arm-none-eabi/include/c++/6.3.1/bits/stl_list.h ****        *  in constant time, and only invalidates iterators/references to
1076:/home/vdykyy/Install/STM-32/gcc-arm-none-eabi-6-2017-q2-update/arm-none-eabi/include/c++/6.3.1/bits/stl_list.h ****        *  the element being removed.
1077:/home/vdykyy/Install/STM-32/gcc-arm-none-eabi-6-2017-q2-update/arm-none-eabi/include/c++/6.3.1/bits/stl_list.h ****        *
1078:/home/vdykyy/Install/STM-32/gcc-arm-none-eabi-6-2017-q2-update/arm-none-eabi/include/c++/6.3.1/bits/stl_list.h ****        *  Note that no data is returned, and if the first element's data
1079:/home/vdykyy/Install/STM-32/gcc-arm-none-eabi-6-2017-q2-update/arm-none-eabi/include/c++/6.3.1/bits/stl_list.h ****        *  is needed, it should be retrieved before pop_front() is
1080:/home/vdykyy/Install/STM-32/gcc-arm-none-eabi-6-2017-q2-update/arm-none-eabi/include/c++/6.3.1/bits/stl_list.h ****        *  called.
1081:/home/vdykyy/Install/STM-32/gcc-arm-none-eabi-6-2017-q2-update/arm-none-eabi/include/c++/6.3.1/bits/stl_list.h ****        */
1082:/home/vdykyy/Install/STM-32/gcc-arm-none-eabi-6-2017-q2-update/arm-none-eabi/include/c++/6.3.1/bits/stl_list.h ****       void
1083:/home/vdykyy/Install/STM-32/gcc-arm-none-eabi-6-2017-q2-update/arm-none-eabi/include/c++/6.3.1/bits/stl_list.h ****       pop_front() _GLIBCXX_NOEXCEPT
1084:/home/vdykyy/Install/STM-32/gcc-arm-none-eabi-6-2017-q2-update/arm-none-eabi/include/c++/6.3.1/bits/stl_list.h ****       { this->_M_erase(begin()); }
1085:/home/vdykyy/Install/STM-32/gcc-arm-none-eabi-6-2017-q2-update/arm-none-eabi/include/c++/6.3.1/bits/stl_list.h **** 
1086:/home/vdykyy/Install/STM-32/gcc-arm-none-eabi-6-2017-q2-update/arm-none-eabi/include/c++/6.3.1/bits/stl_list.h ****       /**
1087:/home/vdykyy/Install/STM-32/gcc-arm-none-eabi-6-2017-q2-update/arm-none-eabi/include/c++/6.3.1/bits/stl_list.h ****        *  @brief  Add data to the end of the %list.
1088:/home/vdykyy/Install/STM-32/gcc-arm-none-eabi-6-2017-q2-update/arm-none-eabi/include/c++/6.3.1/bits/stl_list.h ****        *  @param  __x  Data to be added.
1089:/home/vdykyy/Install/STM-32/gcc-arm-none-eabi-6-2017-q2-update/arm-none-eabi/include/c++/6.3.1/bits/stl_list.h ****        *
1090:/home/vdykyy/Install/STM-32/gcc-arm-none-eabi-6-2017-q2-update/arm-none-eabi/include/c++/6.3.1/bits/stl_list.h ****        *  This is a typical stack operation.  The function creates an
1091:/home/vdykyy/Install/STM-32/gcc-arm-none-eabi-6-2017-q2-update/arm-none-eabi/include/c++/6.3.1/bits/stl_list.h ****        *  element at the end of the %list and assigns the given data to
1092:/home/vdykyy/Install/STM-32/gcc-arm-none-eabi-6-2017-q2-update/arm-none-eabi/include/c++/6.3.1/bits/stl_list.h ****        *  it.  Due to the nature of a %list this operation can be done
1093:/home/vdykyy/Install/STM-32/gcc-arm-none-eabi-6-2017-q2-update/arm-none-eabi/include/c++/6.3.1/bits/stl_list.h ****        *  in constant time, and does not invalidate iterators and
1094:/home/vdykyy/Install/STM-32/gcc-arm-none-eabi-6-2017-q2-update/arm-none-eabi/include/c++/6.3.1/bits/stl_list.h ****        *  references.
1095:/home/vdykyy/Install/STM-32/gcc-arm-none-eabi-6-2017-q2-update/arm-none-eabi/include/c++/6.3.1/bits/stl_list.h ****        */
1096:/home/vdykyy/Install/STM-32/gcc-arm-none-eabi-6-2017-q2-update/arm-none-eabi/include/c++/6.3.1/bits/stl_list.h ****       void
1097:/home/vdykyy/Install/STM-32/gcc-arm-none-eabi-6-2017-q2-update/arm-none-eabi/include/c++/6.3.1/bits/stl_list.h ****       push_back(const value_type& __x)
1098:/home/vdykyy/Install/STM-32/gcc-arm-none-eabi-6-2017-q2-update/arm-none-eabi/include/c++/6.3.1/bits/stl_list.h ****       { this->_M_insert(end(), __x); }
1099:/home/vdykyy/Install/STM-32/gcc-arm-none-eabi-6-2017-q2-update/arm-none-eabi/include/c++/6.3.1/bits/stl_list.h **** 
1100:/home/vdykyy/Install/STM-32/gcc-arm-none-eabi-6-2017-q2-update/arm-none-eabi/include/c++/6.3.1/bits/stl_list.h **** #if __cplusplus >= 201103L
1101:/home/vdykyy/Install/STM-32/gcc-arm-none-eabi-6-2017-q2-update/arm-none-eabi/include/c++/6.3.1/bits/stl_list.h ****       void
1102:/home/vdykyy/Install/STM-32/gcc-arm-none-eabi-6-2017-q2-update/arm-none-eabi/include/c++/6.3.1/bits/stl_list.h ****       push_back(value_type&& __x)
1103:/home/vdykyy/Install/STM-32/gcc-arm-none-eabi-6-2017-q2-update/arm-none-eabi/include/c++/6.3.1/bits/stl_list.h ****       { this->_M_insert(end(), std::move(__x)); }
1104:/home/vdykyy/Install/STM-32/gcc-arm-none-eabi-6-2017-q2-update/arm-none-eabi/include/c++/6.3.1/bits/stl_list.h **** 
1105:/home/vdykyy/Install/STM-32/gcc-arm-none-eabi-6-2017-q2-update/arm-none-eabi/include/c++/6.3.1/bits/stl_list.h ****       template<typename... _Args>
1106:/home/vdykyy/Install/STM-32/gcc-arm-none-eabi-6-2017-q2-update/arm-none-eabi/include/c++/6.3.1/bits/stl_list.h ****         void
1107:/home/vdykyy/Install/STM-32/gcc-arm-none-eabi-6-2017-q2-update/arm-none-eabi/include/c++/6.3.1/bits/stl_list.h ****         emplace_back(_Args&&... __args)
1108:/home/vdykyy/Install/STM-32/gcc-arm-none-eabi-6-2017-q2-update/arm-none-eabi/include/c++/6.3.1/bits/stl_list.h ****         { this->_M_insert(end(), std::forward<_Args>(__args)...); }
1109:/home/vdykyy/Install/STM-32/gcc-arm-none-eabi-6-2017-q2-update/arm-none-eabi/include/c++/6.3.1/bits/stl_list.h **** #endif
1110:/home/vdykyy/Install/STM-32/gcc-arm-none-eabi-6-2017-q2-update/arm-none-eabi/include/c++/6.3.1/bits/stl_list.h **** 
1111:/home/vdykyy/Install/STM-32/gcc-arm-none-eabi-6-2017-q2-update/arm-none-eabi/include/c++/6.3.1/bits/stl_list.h ****       /**
1112:/home/vdykyy/Install/STM-32/gcc-arm-none-eabi-6-2017-q2-update/arm-none-eabi/include/c++/6.3.1/bits/stl_list.h ****        *  @brief  Removes last element.
1113:/home/vdykyy/Install/STM-32/gcc-arm-none-eabi-6-2017-q2-update/arm-none-eabi/include/c++/6.3.1/bits/stl_list.h ****        *
ARM GAS  /tmp/ccni6OXp.s 			page 32


1114:/home/vdykyy/Install/STM-32/gcc-arm-none-eabi-6-2017-q2-update/arm-none-eabi/include/c++/6.3.1/bits/stl_list.h ****        *  This is a typical stack operation.  It shrinks the %list by
1115:/home/vdykyy/Install/STM-32/gcc-arm-none-eabi-6-2017-q2-update/arm-none-eabi/include/c++/6.3.1/bits/stl_list.h ****        *  one.  Due to the nature of a %list this operation can be done
1116:/home/vdykyy/Install/STM-32/gcc-arm-none-eabi-6-2017-q2-update/arm-none-eabi/include/c++/6.3.1/bits/stl_list.h ****        *  in constant time, and only invalidates iterators/references to
1117:/home/vdykyy/Install/STM-32/gcc-arm-none-eabi-6-2017-q2-update/arm-none-eabi/include/c++/6.3.1/bits/stl_list.h ****        *  the element being removed.
1118:/home/vdykyy/Install/STM-32/gcc-arm-none-eabi-6-2017-q2-update/arm-none-eabi/include/c++/6.3.1/bits/stl_list.h ****        *
1119:/home/vdykyy/Install/STM-32/gcc-arm-none-eabi-6-2017-q2-update/arm-none-eabi/include/c++/6.3.1/bits/stl_list.h ****        *  Note that no data is returned, and if the last element's data
1120:/home/vdykyy/Install/STM-32/gcc-arm-none-eabi-6-2017-q2-update/arm-none-eabi/include/c++/6.3.1/bits/stl_list.h ****        *  is needed, it should be retrieved before pop_back() is called.
1121:/home/vdykyy/Install/STM-32/gcc-arm-none-eabi-6-2017-q2-update/arm-none-eabi/include/c++/6.3.1/bits/stl_list.h ****        */
1122:/home/vdykyy/Install/STM-32/gcc-arm-none-eabi-6-2017-q2-update/arm-none-eabi/include/c++/6.3.1/bits/stl_list.h ****       void
1123:/home/vdykyy/Install/STM-32/gcc-arm-none-eabi-6-2017-q2-update/arm-none-eabi/include/c++/6.3.1/bits/stl_list.h ****       pop_back() _GLIBCXX_NOEXCEPT
1124:/home/vdykyy/Install/STM-32/gcc-arm-none-eabi-6-2017-q2-update/arm-none-eabi/include/c++/6.3.1/bits/stl_list.h ****       { this->_M_erase(iterator(this->_M_impl._M_node._M_prev)); }
1125:/home/vdykyy/Install/STM-32/gcc-arm-none-eabi-6-2017-q2-update/arm-none-eabi/include/c++/6.3.1/bits/stl_list.h **** 
1126:/home/vdykyy/Install/STM-32/gcc-arm-none-eabi-6-2017-q2-update/arm-none-eabi/include/c++/6.3.1/bits/stl_list.h **** #if __cplusplus >= 201103L
1127:/home/vdykyy/Install/STM-32/gcc-arm-none-eabi-6-2017-q2-update/arm-none-eabi/include/c++/6.3.1/bits/stl_list.h ****       /**
1128:/home/vdykyy/Install/STM-32/gcc-arm-none-eabi-6-2017-q2-update/arm-none-eabi/include/c++/6.3.1/bits/stl_list.h ****        *  @brief  Constructs object in %list before specified iterator.
1129:/home/vdykyy/Install/STM-32/gcc-arm-none-eabi-6-2017-q2-update/arm-none-eabi/include/c++/6.3.1/bits/stl_list.h ****        *  @param  __position  A const_iterator into the %list.
1130:/home/vdykyy/Install/STM-32/gcc-arm-none-eabi-6-2017-q2-update/arm-none-eabi/include/c++/6.3.1/bits/stl_list.h ****        *  @param  __args  Arguments.
1131:/home/vdykyy/Install/STM-32/gcc-arm-none-eabi-6-2017-q2-update/arm-none-eabi/include/c++/6.3.1/bits/stl_list.h ****        *  @return  An iterator that points to the inserted data.
1132:/home/vdykyy/Install/STM-32/gcc-arm-none-eabi-6-2017-q2-update/arm-none-eabi/include/c++/6.3.1/bits/stl_list.h ****        *
1133:/home/vdykyy/Install/STM-32/gcc-arm-none-eabi-6-2017-q2-update/arm-none-eabi/include/c++/6.3.1/bits/stl_list.h ****        *  This function will insert an object of type T constructed
1134:/home/vdykyy/Install/STM-32/gcc-arm-none-eabi-6-2017-q2-update/arm-none-eabi/include/c++/6.3.1/bits/stl_list.h ****        *  with T(std::forward<Args>(args)...) before the specified
1135:/home/vdykyy/Install/STM-32/gcc-arm-none-eabi-6-2017-q2-update/arm-none-eabi/include/c++/6.3.1/bits/stl_list.h ****        *  location.  Due to the nature of a %list this operation can
1136:/home/vdykyy/Install/STM-32/gcc-arm-none-eabi-6-2017-q2-update/arm-none-eabi/include/c++/6.3.1/bits/stl_list.h ****        *  be done in constant time, and does not invalidate iterators
1137:/home/vdykyy/Install/STM-32/gcc-arm-none-eabi-6-2017-q2-update/arm-none-eabi/include/c++/6.3.1/bits/stl_list.h ****        *  and references.
1138:/home/vdykyy/Install/STM-32/gcc-arm-none-eabi-6-2017-q2-update/arm-none-eabi/include/c++/6.3.1/bits/stl_list.h ****        */
1139:/home/vdykyy/Install/STM-32/gcc-arm-none-eabi-6-2017-q2-update/arm-none-eabi/include/c++/6.3.1/bits/stl_list.h ****       template<typename... _Args>
1140:/home/vdykyy/Install/STM-32/gcc-arm-none-eabi-6-2017-q2-update/arm-none-eabi/include/c++/6.3.1/bits/stl_list.h ****         iterator
1141:/home/vdykyy/Install/STM-32/gcc-arm-none-eabi-6-2017-q2-update/arm-none-eabi/include/c++/6.3.1/bits/stl_list.h ****         emplace(const_iterator __position, _Args&&... __args);
1142:/home/vdykyy/Install/STM-32/gcc-arm-none-eabi-6-2017-q2-update/arm-none-eabi/include/c++/6.3.1/bits/stl_list.h **** 
1143:/home/vdykyy/Install/STM-32/gcc-arm-none-eabi-6-2017-q2-update/arm-none-eabi/include/c++/6.3.1/bits/stl_list.h ****       /**
1144:/home/vdykyy/Install/STM-32/gcc-arm-none-eabi-6-2017-q2-update/arm-none-eabi/include/c++/6.3.1/bits/stl_list.h ****        *  @brief  Inserts given value into %list before specified iterator.
1145:/home/vdykyy/Install/STM-32/gcc-arm-none-eabi-6-2017-q2-update/arm-none-eabi/include/c++/6.3.1/bits/stl_list.h ****        *  @param  __position  A const_iterator into the %list.
1146:/home/vdykyy/Install/STM-32/gcc-arm-none-eabi-6-2017-q2-update/arm-none-eabi/include/c++/6.3.1/bits/stl_list.h ****        *  @param  __x  Data to be inserted.
1147:/home/vdykyy/Install/STM-32/gcc-arm-none-eabi-6-2017-q2-update/arm-none-eabi/include/c++/6.3.1/bits/stl_list.h ****        *  @return  An iterator that points to the inserted data.
1148:/home/vdykyy/Install/STM-32/gcc-arm-none-eabi-6-2017-q2-update/arm-none-eabi/include/c++/6.3.1/bits/stl_list.h ****        *
1149:/home/vdykyy/Install/STM-32/gcc-arm-none-eabi-6-2017-q2-update/arm-none-eabi/include/c++/6.3.1/bits/stl_list.h ****        *  This function will insert a copy of the given value before
1150:/home/vdykyy/Install/STM-32/gcc-arm-none-eabi-6-2017-q2-update/arm-none-eabi/include/c++/6.3.1/bits/stl_list.h ****        *  the specified location.  Due to the nature of a %list this
1151:/home/vdykyy/Install/STM-32/gcc-arm-none-eabi-6-2017-q2-update/arm-none-eabi/include/c++/6.3.1/bits/stl_list.h ****        *  operation can be done in constant time, and does not
1152:/home/vdykyy/Install/STM-32/gcc-arm-none-eabi-6-2017-q2-update/arm-none-eabi/include/c++/6.3.1/bits/stl_list.h ****        *  invalidate iterators and references.
1153:/home/vdykyy/Install/STM-32/gcc-arm-none-eabi-6-2017-q2-update/arm-none-eabi/include/c++/6.3.1/bits/stl_list.h ****        */
1154:/home/vdykyy/Install/STM-32/gcc-arm-none-eabi-6-2017-q2-update/arm-none-eabi/include/c++/6.3.1/bits/stl_list.h ****       iterator
1155:/home/vdykyy/Install/STM-32/gcc-arm-none-eabi-6-2017-q2-update/arm-none-eabi/include/c++/6.3.1/bits/stl_list.h ****       insert(const_iterator __position, const value_type& __x);
1156:/home/vdykyy/Install/STM-32/gcc-arm-none-eabi-6-2017-q2-update/arm-none-eabi/include/c++/6.3.1/bits/stl_list.h **** #else
1157:/home/vdykyy/Install/STM-32/gcc-arm-none-eabi-6-2017-q2-update/arm-none-eabi/include/c++/6.3.1/bits/stl_list.h ****       /**
1158:/home/vdykyy/Install/STM-32/gcc-arm-none-eabi-6-2017-q2-update/arm-none-eabi/include/c++/6.3.1/bits/stl_list.h ****        *  @brief  Inserts given value into %list before specified iterator.
1159:/home/vdykyy/Install/STM-32/gcc-arm-none-eabi-6-2017-q2-update/arm-none-eabi/include/c++/6.3.1/bits/stl_list.h ****        *  @param  __position  An iterator into the %list.
1160:/home/vdykyy/Install/STM-32/gcc-arm-none-eabi-6-2017-q2-update/arm-none-eabi/include/c++/6.3.1/bits/stl_list.h ****        *  @param  __x  Data to be inserted.
1161:/home/vdykyy/Install/STM-32/gcc-arm-none-eabi-6-2017-q2-update/arm-none-eabi/include/c++/6.3.1/bits/stl_list.h ****        *  @return  An iterator that points to the inserted data.
1162:/home/vdykyy/Install/STM-32/gcc-arm-none-eabi-6-2017-q2-update/arm-none-eabi/include/c++/6.3.1/bits/stl_list.h ****        *
1163:/home/vdykyy/Install/STM-32/gcc-arm-none-eabi-6-2017-q2-update/arm-none-eabi/include/c++/6.3.1/bits/stl_list.h ****        *  This function will insert a copy of the given value before
1164:/home/vdykyy/Install/STM-32/gcc-arm-none-eabi-6-2017-q2-update/arm-none-eabi/include/c++/6.3.1/bits/stl_list.h ****        *  the specified location.  Due to the nature of a %list this
1165:/home/vdykyy/Install/STM-32/gcc-arm-none-eabi-6-2017-q2-update/arm-none-eabi/include/c++/6.3.1/bits/stl_list.h ****        *  operation can be done in constant time, and does not
1166:/home/vdykyy/Install/STM-32/gcc-arm-none-eabi-6-2017-q2-update/arm-none-eabi/include/c++/6.3.1/bits/stl_list.h ****        *  invalidate iterators and references.
1167:/home/vdykyy/Install/STM-32/gcc-arm-none-eabi-6-2017-q2-update/arm-none-eabi/include/c++/6.3.1/bits/stl_list.h ****        */
1168:/home/vdykyy/Install/STM-32/gcc-arm-none-eabi-6-2017-q2-update/arm-none-eabi/include/c++/6.3.1/bits/stl_list.h ****       iterator
1169:/home/vdykyy/Install/STM-32/gcc-arm-none-eabi-6-2017-q2-update/arm-none-eabi/include/c++/6.3.1/bits/stl_list.h ****       insert(iterator __position, const value_type& __x);
1170:/home/vdykyy/Install/STM-32/gcc-arm-none-eabi-6-2017-q2-update/arm-none-eabi/include/c++/6.3.1/bits/stl_list.h **** #endif
ARM GAS  /tmp/ccni6OXp.s 			page 33


1171:/home/vdykyy/Install/STM-32/gcc-arm-none-eabi-6-2017-q2-update/arm-none-eabi/include/c++/6.3.1/bits/stl_list.h **** 
1172:/home/vdykyy/Install/STM-32/gcc-arm-none-eabi-6-2017-q2-update/arm-none-eabi/include/c++/6.3.1/bits/stl_list.h **** #if __cplusplus >= 201103L
1173:/home/vdykyy/Install/STM-32/gcc-arm-none-eabi-6-2017-q2-update/arm-none-eabi/include/c++/6.3.1/bits/stl_list.h ****       /**
1174:/home/vdykyy/Install/STM-32/gcc-arm-none-eabi-6-2017-q2-update/arm-none-eabi/include/c++/6.3.1/bits/stl_list.h ****        *  @brief  Inserts given rvalue into %list before specified iterator.
1175:/home/vdykyy/Install/STM-32/gcc-arm-none-eabi-6-2017-q2-update/arm-none-eabi/include/c++/6.3.1/bits/stl_list.h ****        *  @param  __position  A const_iterator into the %list.
1176:/home/vdykyy/Install/STM-32/gcc-arm-none-eabi-6-2017-q2-update/arm-none-eabi/include/c++/6.3.1/bits/stl_list.h ****        *  @param  __x  Data to be inserted.
1177:/home/vdykyy/Install/STM-32/gcc-arm-none-eabi-6-2017-q2-update/arm-none-eabi/include/c++/6.3.1/bits/stl_list.h ****        *  @return  An iterator that points to the inserted data.
1178:/home/vdykyy/Install/STM-32/gcc-arm-none-eabi-6-2017-q2-update/arm-none-eabi/include/c++/6.3.1/bits/stl_list.h ****        *
1179:/home/vdykyy/Install/STM-32/gcc-arm-none-eabi-6-2017-q2-update/arm-none-eabi/include/c++/6.3.1/bits/stl_list.h ****        *  This function will insert a copy of the given rvalue before
1180:/home/vdykyy/Install/STM-32/gcc-arm-none-eabi-6-2017-q2-update/arm-none-eabi/include/c++/6.3.1/bits/stl_list.h ****        *  the specified location.  Due to the nature of a %list this
1181:/home/vdykyy/Install/STM-32/gcc-arm-none-eabi-6-2017-q2-update/arm-none-eabi/include/c++/6.3.1/bits/stl_list.h ****        *  operation can be done in constant time, and does not
1182:/home/vdykyy/Install/STM-32/gcc-arm-none-eabi-6-2017-q2-update/arm-none-eabi/include/c++/6.3.1/bits/stl_list.h ****        *  invalidate iterators and references.
1183:/home/vdykyy/Install/STM-32/gcc-arm-none-eabi-6-2017-q2-update/arm-none-eabi/include/c++/6.3.1/bits/stl_list.h ****         */
1184:/home/vdykyy/Install/STM-32/gcc-arm-none-eabi-6-2017-q2-update/arm-none-eabi/include/c++/6.3.1/bits/stl_list.h ****       iterator
1185:/home/vdykyy/Install/STM-32/gcc-arm-none-eabi-6-2017-q2-update/arm-none-eabi/include/c++/6.3.1/bits/stl_list.h ****       insert(const_iterator __position, value_type&& __x)
1186:/home/vdykyy/Install/STM-32/gcc-arm-none-eabi-6-2017-q2-update/arm-none-eabi/include/c++/6.3.1/bits/stl_list.h ****       { return emplace(__position, std::move(__x)); }
1187:/home/vdykyy/Install/STM-32/gcc-arm-none-eabi-6-2017-q2-update/arm-none-eabi/include/c++/6.3.1/bits/stl_list.h **** 
1188:/home/vdykyy/Install/STM-32/gcc-arm-none-eabi-6-2017-q2-update/arm-none-eabi/include/c++/6.3.1/bits/stl_list.h ****       /**
1189:/home/vdykyy/Install/STM-32/gcc-arm-none-eabi-6-2017-q2-update/arm-none-eabi/include/c++/6.3.1/bits/stl_list.h ****        *  @brief  Inserts the contents of an initializer_list into %list
1190:/home/vdykyy/Install/STM-32/gcc-arm-none-eabi-6-2017-q2-update/arm-none-eabi/include/c++/6.3.1/bits/stl_list.h ****        *          before specified const_iterator.
1191:/home/vdykyy/Install/STM-32/gcc-arm-none-eabi-6-2017-q2-update/arm-none-eabi/include/c++/6.3.1/bits/stl_list.h ****        *  @param  __p  A const_iterator into the %list.
1192:/home/vdykyy/Install/STM-32/gcc-arm-none-eabi-6-2017-q2-update/arm-none-eabi/include/c++/6.3.1/bits/stl_list.h ****        *  @param  __l  An initializer_list of value_type.
1193:/home/vdykyy/Install/STM-32/gcc-arm-none-eabi-6-2017-q2-update/arm-none-eabi/include/c++/6.3.1/bits/stl_list.h ****        *  @return  An iterator pointing to the first element inserted
1194:/home/vdykyy/Install/STM-32/gcc-arm-none-eabi-6-2017-q2-update/arm-none-eabi/include/c++/6.3.1/bits/stl_list.h ****        *           (or __position).
1195:/home/vdykyy/Install/STM-32/gcc-arm-none-eabi-6-2017-q2-update/arm-none-eabi/include/c++/6.3.1/bits/stl_list.h ****        *
1196:/home/vdykyy/Install/STM-32/gcc-arm-none-eabi-6-2017-q2-update/arm-none-eabi/include/c++/6.3.1/bits/stl_list.h ****        *  This function will insert copies of the data in the
1197:/home/vdykyy/Install/STM-32/gcc-arm-none-eabi-6-2017-q2-update/arm-none-eabi/include/c++/6.3.1/bits/stl_list.h ****        *  initializer_list @a l into the %list before the location
1198:/home/vdykyy/Install/STM-32/gcc-arm-none-eabi-6-2017-q2-update/arm-none-eabi/include/c++/6.3.1/bits/stl_list.h ****        *  specified by @a p.
1199:/home/vdykyy/Install/STM-32/gcc-arm-none-eabi-6-2017-q2-update/arm-none-eabi/include/c++/6.3.1/bits/stl_list.h ****        *
1200:/home/vdykyy/Install/STM-32/gcc-arm-none-eabi-6-2017-q2-update/arm-none-eabi/include/c++/6.3.1/bits/stl_list.h ****        *  This operation is linear in the number of elements inserted and
1201:/home/vdykyy/Install/STM-32/gcc-arm-none-eabi-6-2017-q2-update/arm-none-eabi/include/c++/6.3.1/bits/stl_list.h ****        *  does not invalidate iterators and references.
1202:/home/vdykyy/Install/STM-32/gcc-arm-none-eabi-6-2017-q2-update/arm-none-eabi/include/c++/6.3.1/bits/stl_list.h ****        */
1203:/home/vdykyy/Install/STM-32/gcc-arm-none-eabi-6-2017-q2-update/arm-none-eabi/include/c++/6.3.1/bits/stl_list.h ****       iterator
1204:/home/vdykyy/Install/STM-32/gcc-arm-none-eabi-6-2017-q2-update/arm-none-eabi/include/c++/6.3.1/bits/stl_list.h ****       insert(const_iterator __p, initializer_list<value_type> __l)
1205:/home/vdykyy/Install/STM-32/gcc-arm-none-eabi-6-2017-q2-update/arm-none-eabi/include/c++/6.3.1/bits/stl_list.h ****       { return this->insert(__p, __l.begin(), __l.end()); }
1206:/home/vdykyy/Install/STM-32/gcc-arm-none-eabi-6-2017-q2-update/arm-none-eabi/include/c++/6.3.1/bits/stl_list.h **** #endif
1207:/home/vdykyy/Install/STM-32/gcc-arm-none-eabi-6-2017-q2-update/arm-none-eabi/include/c++/6.3.1/bits/stl_list.h **** 
1208:/home/vdykyy/Install/STM-32/gcc-arm-none-eabi-6-2017-q2-update/arm-none-eabi/include/c++/6.3.1/bits/stl_list.h **** #if __cplusplus >= 201103L
1209:/home/vdykyy/Install/STM-32/gcc-arm-none-eabi-6-2017-q2-update/arm-none-eabi/include/c++/6.3.1/bits/stl_list.h ****       /**
1210:/home/vdykyy/Install/STM-32/gcc-arm-none-eabi-6-2017-q2-update/arm-none-eabi/include/c++/6.3.1/bits/stl_list.h ****        *  @brief  Inserts a number of copies of given data into the %list.
1211:/home/vdykyy/Install/STM-32/gcc-arm-none-eabi-6-2017-q2-update/arm-none-eabi/include/c++/6.3.1/bits/stl_list.h ****        *  @param  __position  A const_iterator into the %list.
1212:/home/vdykyy/Install/STM-32/gcc-arm-none-eabi-6-2017-q2-update/arm-none-eabi/include/c++/6.3.1/bits/stl_list.h ****        *  @param  __n  Number of elements to be inserted.
1213:/home/vdykyy/Install/STM-32/gcc-arm-none-eabi-6-2017-q2-update/arm-none-eabi/include/c++/6.3.1/bits/stl_list.h ****        *  @param  __x  Data to be inserted.
1214:/home/vdykyy/Install/STM-32/gcc-arm-none-eabi-6-2017-q2-update/arm-none-eabi/include/c++/6.3.1/bits/stl_list.h ****        *  @return  An iterator pointing to the first element inserted
1215:/home/vdykyy/Install/STM-32/gcc-arm-none-eabi-6-2017-q2-update/arm-none-eabi/include/c++/6.3.1/bits/stl_list.h ****        *           (or __position).
1216:/home/vdykyy/Install/STM-32/gcc-arm-none-eabi-6-2017-q2-update/arm-none-eabi/include/c++/6.3.1/bits/stl_list.h ****        *
1217:/home/vdykyy/Install/STM-32/gcc-arm-none-eabi-6-2017-q2-update/arm-none-eabi/include/c++/6.3.1/bits/stl_list.h ****        *  This function will insert a specified number of copies of the
1218:/home/vdykyy/Install/STM-32/gcc-arm-none-eabi-6-2017-q2-update/arm-none-eabi/include/c++/6.3.1/bits/stl_list.h ****        *  given data before the location specified by @a position.
1219:/home/vdykyy/Install/STM-32/gcc-arm-none-eabi-6-2017-q2-update/arm-none-eabi/include/c++/6.3.1/bits/stl_list.h ****        *
1220:/home/vdykyy/Install/STM-32/gcc-arm-none-eabi-6-2017-q2-update/arm-none-eabi/include/c++/6.3.1/bits/stl_list.h ****        *  This operation is linear in the number of elements inserted and
1221:/home/vdykyy/Install/STM-32/gcc-arm-none-eabi-6-2017-q2-update/arm-none-eabi/include/c++/6.3.1/bits/stl_list.h ****        *  does not invalidate iterators and references.
1222:/home/vdykyy/Install/STM-32/gcc-arm-none-eabi-6-2017-q2-update/arm-none-eabi/include/c++/6.3.1/bits/stl_list.h ****        */
1223:/home/vdykyy/Install/STM-32/gcc-arm-none-eabi-6-2017-q2-update/arm-none-eabi/include/c++/6.3.1/bits/stl_list.h ****       iterator
1224:/home/vdykyy/Install/STM-32/gcc-arm-none-eabi-6-2017-q2-update/arm-none-eabi/include/c++/6.3.1/bits/stl_list.h ****       insert(const_iterator __position, size_type __n, const value_type& __x);
1225:/home/vdykyy/Install/STM-32/gcc-arm-none-eabi-6-2017-q2-update/arm-none-eabi/include/c++/6.3.1/bits/stl_list.h **** #else
1226:/home/vdykyy/Install/STM-32/gcc-arm-none-eabi-6-2017-q2-update/arm-none-eabi/include/c++/6.3.1/bits/stl_list.h ****       /**
1227:/home/vdykyy/Install/STM-32/gcc-arm-none-eabi-6-2017-q2-update/arm-none-eabi/include/c++/6.3.1/bits/stl_list.h ****        *  @brief  Inserts a number of copies of given data into the %list.
ARM GAS  /tmp/ccni6OXp.s 			page 34


1228:/home/vdykyy/Install/STM-32/gcc-arm-none-eabi-6-2017-q2-update/arm-none-eabi/include/c++/6.3.1/bits/stl_list.h ****        *  @param  __position  An iterator into the %list.
1229:/home/vdykyy/Install/STM-32/gcc-arm-none-eabi-6-2017-q2-update/arm-none-eabi/include/c++/6.3.1/bits/stl_list.h ****        *  @param  __n  Number of elements to be inserted.
1230:/home/vdykyy/Install/STM-32/gcc-arm-none-eabi-6-2017-q2-update/arm-none-eabi/include/c++/6.3.1/bits/stl_list.h ****        *  @param  __x  Data to be inserted.
1231:/home/vdykyy/Install/STM-32/gcc-arm-none-eabi-6-2017-q2-update/arm-none-eabi/include/c++/6.3.1/bits/stl_list.h ****        *
1232:/home/vdykyy/Install/STM-32/gcc-arm-none-eabi-6-2017-q2-update/arm-none-eabi/include/c++/6.3.1/bits/stl_list.h ****        *  This function will insert a specified number of copies of the
1233:/home/vdykyy/Install/STM-32/gcc-arm-none-eabi-6-2017-q2-update/arm-none-eabi/include/c++/6.3.1/bits/stl_list.h ****        *  given data before the location specified by @a position.
1234:/home/vdykyy/Install/STM-32/gcc-arm-none-eabi-6-2017-q2-update/arm-none-eabi/include/c++/6.3.1/bits/stl_list.h ****        *
1235:/home/vdykyy/Install/STM-32/gcc-arm-none-eabi-6-2017-q2-update/arm-none-eabi/include/c++/6.3.1/bits/stl_list.h ****        *  This operation is linear in the number of elements inserted and
1236:/home/vdykyy/Install/STM-32/gcc-arm-none-eabi-6-2017-q2-update/arm-none-eabi/include/c++/6.3.1/bits/stl_list.h ****        *  does not invalidate iterators and references.
1237:/home/vdykyy/Install/STM-32/gcc-arm-none-eabi-6-2017-q2-update/arm-none-eabi/include/c++/6.3.1/bits/stl_list.h ****        */
1238:/home/vdykyy/Install/STM-32/gcc-arm-none-eabi-6-2017-q2-update/arm-none-eabi/include/c++/6.3.1/bits/stl_list.h ****       void
1239:/home/vdykyy/Install/STM-32/gcc-arm-none-eabi-6-2017-q2-update/arm-none-eabi/include/c++/6.3.1/bits/stl_list.h ****       insert(iterator __position, size_type __n, const value_type& __x)
1240:/home/vdykyy/Install/STM-32/gcc-arm-none-eabi-6-2017-q2-update/arm-none-eabi/include/c++/6.3.1/bits/stl_list.h ****       {
1241:/home/vdykyy/Install/STM-32/gcc-arm-none-eabi-6-2017-q2-update/arm-none-eabi/include/c++/6.3.1/bits/stl_list.h **** 	list __tmp(__n, __x, get_allocator());
1242:/home/vdykyy/Install/STM-32/gcc-arm-none-eabi-6-2017-q2-update/arm-none-eabi/include/c++/6.3.1/bits/stl_list.h **** 	splice(__position, __tmp);
1243:/home/vdykyy/Install/STM-32/gcc-arm-none-eabi-6-2017-q2-update/arm-none-eabi/include/c++/6.3.1/bits/stl_list.h ****       }
1244:/home/vdykyy/Install/STM-32/gcc-arm-none-eabi-6-2017-q2-update/arm-none-eabi/include/c++/6.3.1/bits/stl_list.h **** #endif
1245:/home/vdykyy/Install/STM-32/gcc-arm-none-eabi-6-2017-q2-update/arm-none-eabi/include/c++/6.3.1/bits/stl_list.h **** 
1246:/home/vdykyy/Install/STM-32/gcc-arm-none-eabi-6-2017-q2-update/arm-none-eabi/include/c++/6.3.1/bits/stl_list.h **** #if __cplusplus >= 201103L
1247:/home/vdykyy/Install/STM-32/gcc-arm-none-eabi-6-2017-q2-update/arm-none-eabi/include/c++/6.3.1/bits/stl_list.h ****       /**
1248:/home/vdykyy/Install/STM-32/gcc-arm-none-eabi-6-2017-q2-update/arm-none-eabi/include/c++/6.3.1/bits/stl_list.h ****        *  @brief  Inserts a range into the %list.
1249:/home/vdykyy/Install/STM-32/gcc-arm-none-eabi-6-2017-q2-update/arm-none-eabi/include/c++/6.3.1/bits/stl_list.h ****        *  @param  __position  A const_iterator into the %list.
1250:/home/vdykyy/Install/STM-32/gcc-arm-none-eabi-6-2017-q2-update/arm-none-eabi/include/c++/6.3.1/bits/stl_list.h ****        *  @param  __first  An input iterator.
1251:/home/vdykyy/Install/STM-32/gcc-arm-none-eabi-6-2017-q2-update/arm-none-eabi/include/c++/6.3.1/bits/stl_list.h ****        *  @param  __last   An input iterator.
1252:/home/vdykyy/Install/STM-32/gcc-arm-none-eabi-6-2017-q2-update/arm-none-eabi/include/c++/6.3.1/bits/stl_list.h ****        *  @return  An iterator pointing to the first element inserted
1253:/home/vdykyy/Install/STM-32/gcc-arm-none-eabi-6-2017-q2-update/arm-none-eabi/include/c++/6.3.1/bits/stl_list.h ****        *           (or __position).
1254:/home/vdykyy/Install/STM-32/gcc-arm-none-eabi-6-2017-q2-update/arm-none-eabi/include/c++/6.3.1/bits/stl_list.h ****        *
1255:/home/vdykyy/Install/STM-32/gcc-arm-none-eabi-6-2017-q2-update/arm-none-eabi/include/c++/6.3.1/bits/stl_list.h ****        *  This function will insert copies of the data in the range [@a
1256:/home/vdykyy/Install/STM-32/gcc-arm-none-eabi-6-2017-q2-update/arm-none-eabi/include/c++/6.3.1/bits/stl_list.h ****        *  first,@a last) into the %list before the location specified by
1257:/home/vdykyy/Install/STM-32/gcc-arm-none-eabi-6-2017-q2-update/arm-none-eabi/include/c++/6.3.1/bits/stl_list.h ****        *  @a position.
1258:/home/vdykyy/Install/STM-32/gcc-arm-none-eabi-6-2017-q2-update/arm-none-eabi/include/c++/6.3.1/bits/stl_list.h ****        *
1259:/home/vdykyy/Install/STM-32/gcc-arm-none-eabi-6-2017-q2-update/arm-none-eabi/include/c++/6.3.1/bits/stl_list.h ****        *  This operation is linear in the number of elements inserted and
1260:/home/vdykyy/Install/STM-32/gcc-arm-none-eabi-6-2017-q2-update/arm-none-eabi/include/c++/6.3.1/bits/stl_list.h ****        *  does not invalidate iterators and references.
1261:/home/vdykyy/Install/STM-32/gcc-arm-none-eabi-6-2017-q2-update/arm-none-eabi/include/c++/6.3.1/bits/stl_list.h ****        */
1262:/home/vdykyy/Install/STM-32/gcc-arm-none-eabi-6-2017-q2-update/arm-none-eabi/include/c++/6.3.1/bits/stl_list.h ****       template<typename _InputIterator,
1263:/home/vdykyy/Install/STM-32/gcc-arm-none-eabi-6-2017-q2-update/arm-none-eabi/include/c++/6.3.1/bits/stl_list.h **** 	       typename = std::_RequireInputIter<_InputIterator>>
1264:/home/vdykyy/Install/STM-32/gcc-arm-none-eabi-6-2017-q2-update/arm-none-eabi/include/c++/6.3.1/bits/stl_list.h **** 	iterator
1265:/home/vdykyy/Install/STM-32/gcc-arm-none-eabi-6-2017-q2-update/arm-none-eabi/include/c++/6.3.1/bits/stl_list.h **** 	insert(const_iterator __position, _InputIterator __first,
1266:/home/vdykyy/Install/STM-32/gcc-arm-none-eabi-6-2017-q2-update/arm-none-eabi/include/c++/6.3.1/bits/stl_list.h **** 	       _InputIterator __last);
1267:/home/vdykyy/Install/STM-32/gcc-arm-none-eabi-6-2017-q2-update/arm-none-eabi/include/c++/6.3.1/bits/stl_list.h **** #else
1268:/home/vdykyy/Install/STM-32/gcc-arm-none-eabi-6-2017-q2-update/arm-none-eabi/include/c++/6.3.1/bits/stl_list.h ****       /**
1269:/home/vdykyy/Install/STM-32/gcc-arm-none-eabi-6-2017-q2-update/arm-none-eabi/include/c++/6.3.1/bits/stl_list.h ****        *  @brief  Inserts a range into the %list.
1270:/home/vdykyy/Install/STM-32/gcc-arm-none-eabi-6-2017-q2-update/arm-none-eabi/include/c++/6.3.1/bits/stl_list.h ****        *  @param  __position  An iterator into the %list.
1271:/home/vdykyy/Install/STM-32/gcc-arm-none-eabi-6-2017-q2-update/arm-none-eabi/include/c++/6.3.1/bits/stl_list.h ****        *  @param  __first  An input iterator.
1272:/home/vdykyy/Install/STM-32/gcc-arm-none-eabi-6-2017-q2-update/arm-none-eabi/include/c++/6.3.1/bits/stl_list.h ****        *  @param  __last   An input iterator.
1273:/home/vdykyy/Install/STM-32/gcc-arm-none-eabi-6-2017-q2-update/arm-none-eabi/include/c++/6.3.1/bits/stl_list.h ****        *
1274:/home/vdykyy/Install/STM-32/gcc-arm-none-eabi-6-2017-q2-update/arm-none-eabi/include/c++/6.3.1/bits/stl_list.h ****        *  This function will insert copies of the data in the range [@a
1275:/home/vdykyy/Install/STM-32/gcc-arm-none-eabi-6-2017-q2-update/arm-none-eabi/include/c++/6.3.1/bits/stl_list.h ****        *  first,@a last) into the %list before the location specified by
1276:/home/vdykyy/Install/STM-32/gcc-arm-none-eabi-6-2017-q2-update/arm-none-eabi/include/c++/6.3.1/bits/stl_list.h ****        *  @a position.
1277:/home/vdykyy/Install/STM-32/gcc-arm-none-eabi-6-2017-q2-update/arm-none-eabi/include/c++/6.3.1/bits/stl_list.h ****        *
1278:/home/vdykyy/Install/STM-32/gcc-arm-none-eabi-6-2017-q2-update/arm-none-eabi/include/c++/6.3.1/bits/stl_list.h ****        *  This operation is linear in the number of elements inserted and
1279:/home/vdykyy/Install/STM-32/gcc-arm-none-eabi-6-2017-q2-update/arm-none-eabi/include/c++/6.3.1/bits/stl_list.h ****        *  does not invalidate iterators and references.
1280:/home/vdykyy/Install/STM-32/gcc-arm-none-eabi-6-2017-q2-update/arm-none-eabi/include/c++/6.3.1/bits/stl_list.h ****        */
1281:/home/vdykyy/Install/STM-32/gcc-arm-none-eabi-6-2017-q2-update/arm-none-eabi/include/c++/6.3.1/bits/stl_list.h ****       template<typename _InputIterator>
1282:/home/vdykyy/Install/STM-32/gcc-arm-none-eabi-6-2017-q2-update/arm-none-eabi/include/c++/6.3.1/bits/stl_list.h ****         void
1283:/home/vdykyy/Install/STM-32/gcc-arm-none-eabi-6-2017-q2-update/arm-none-eabi/include/c++/6.3.1/bits/stl_list.h ****         insert(iterator __position, _InputIterator __first,
1284:/home/vdykyy/Install/STM-32/gcc-arm-none-eabi-6-2017-q2-update/arm-none-eabi/include/c++/6.3.1/bits/stl_list.h **** 	       _InputIterator __last)
ARM GAS  /tmp/ccni6OXp.s 			page 35


1285:/home/vdykyy/Install/STM-32/gcc-arm-none-eabi-6-2017-q2-update/arm-none-eabi/include/c++/6.3.1/bits/stl_list.h ****         {
1286:/home/vdykyy/Install/STM-32/gcc-arm-none-eabi-6-2017-q2-update/arm-none-eabi/include/c++/6.3.1/bits/stl_list.h **** 	  list __tmp(__first, __last, get_allocator());
1287:/home/vdykyy/Install/STM-32/gcc-arm-none-eabi-6-2017-q2-update/arm-none-eabi/include/c++/6.3.1/bits/stl_list.h **** 	  splice(__position, __tmp);
1288:/home/vdykyy/Install/STM-32/gcc-arm-none-eabi-6-2017-q2-update/arm-none-eabi/include/c++/6.3.1/bits/stl_list.h **** 	}
1289:/home/vdykyy/Install/STM-32/gcc-arm-none-eabi-6-2017-q2-update/arm-none-eabi/include/c++/6.3.1/bits/stl_list.h **** #endif
1290:/home/vdykyy/Install/STM-32/gcc-arm-none-eabi-6-2017-q2-update/arm-none-eabi/include/c++/6.3.1/bits/stl_list.h **** 
1291:/home/vdykyy/Install/STM-32/gcc-arm-none-eabi-6-2017-q2-update/arm-none-eabi/include/c++/6.3.1/bits/stl_list.h ****       /**
1292:/home/vdykyy/Install/STM-32/gcc-arm-none-eabi-6-2017-q2-update/arm-none-eabi/include/c++/6.3.1/bits/stl_list.h ****        *  @brief  Remove element at given position.
1293:/home/vdykyy/Install/STM-32/gcc-arm-none-eabi-6-2017-q2-update/arm-none-eabi/include/c++/6.3.1/bits/stl_list.h ****        *  @param  __position  Iterator pointing to element to be erased.
1294:/home/vdykyy/Install/STM-32/gcc-arm-none-eabi-6-2017-q2-update/arm-none-eabi/include/c++/6.3.1/bits/stl_list.h ****        *  @return  An iterator pointing to the next element (or end()).
1295:/home/vdykyy/Install/STM-32/gcc-arm-none-eabi-6-2017-q2-update/arm-none-eabi/include/c++/6.3.1/bits/stl_list.h ****        *
1296:/home/vdykyy/Install/STM-32/gcc-arm-none-eabi-6-2017-q2-update/arm-none-eabi/include/c++/6.3.1/bits/stl_list.h ****        *  This function will erase the element at the given position and thus
1297:/home/vdykyy/Install/STM-32/gcc-arm-none-eabi-6-2017-q2-update/arm-none-eabi/include/c++/6.3.1/bits/stl_list.h ****        *  shorten the %list by one.
1298:/home/vdykyy/Install/STM-32/gcc-arm-none-eabi-6-2017-q2-update/arm-none-eabi/include/c++/6.3.1/bits/stl_list.h ****        *
1299:/home/vdykyy/Install/STM-32/gcc-arm-none-eabi-6-2017-q2-update/arm-none-eabi/include/c++/6.3.1/bits/stl_list.h ****        *  Due to the nature of a %list this operation can be done in
1300:/home/vdykyy/Install/STM-32/gcc-arm-none-eabi-6-2017-q2-update/arm-none-eabi/include/c++/6.3.1/bits/stl_list.h ****        *  constant time, and only invalidates iterators/references to
1301:/home/vdykyy/Install/STM-32/gcc-arm-none-eabi-6-2017-q2-update/arm-none-eabi/include/c++/6.3.1/bits/stl_list.h ****        *  the element being removed.  The user is also cautioned that
1302:/home/vdykyy/Install/STM-32/gcc-arm-none-eabi-6-2017-q2-update/arm-none-eabi/include/c++/6.3.1/bits/stl_list.h ****        *  this function only erases the element, and that if the element
1303:/home/vdykyy/Install/STM-32/gcc-arm-none-eabi-6-2017-q2-update/arm-none-eabi/include/c++/6.3.1/bits/stl_list.h ****        *  is itself a pointer, the pointed-to memory is not touched in
1304:/home/vdykyy/Install/STM-32/gcc-arm-none-eabi-6-2017-q2-update/arm-none-eabi/include/c++/6.3.1/bits/stl_list.h ****        *  any way.  Managing the pointer is the user's responsibility.
1305:/home/vdykyy/Install/STM-32/gcc-arm-none-eabi-6-2017-q2-update/arm-none-eabi/include/c++/6.3.1/bits/stl_list.h ****        */
1306:/home/vdykyy/Install/STM-32/gcc-arm-none-eabi-6-2017-q2-update/arm-none-eabi/include/c++/6.3.1/bits/stl_list.h ****       iterator
1307:/home/vdykyy/Install/STM-32/gcc-arm-none-eabi-6-2017-q2-update/arm-none-eabi/include/c++/6.3.1/bits/stl_list.h **** #if __cplusplus >= 201103L
1308:/home/vdykyy/Install/STM-32/gcc-arm-none-eabi-6-2017-q2-update/arm-none-eabi/include/c++/6.3.1/bits/stl_list.h ****       erase(const_iterator __position) noexcept;
1309:/home/vdykyy/Install/STM-32/gcc-arm-none-eabi-6-2017-q2-update/arm-none-eabi/include/c++/6.3.1/bits/stl_list.h **** #else
1310:/home/vdykyy/Install/STM-32/gcc-arm-none-eabi-6-2017-q2-update/arm-none-eabi/include/c++/6.3.1/bits/stl_list.h ****       erase(iterator __position);
1311:/home/vdykyy/Install/STM-32/gcc-arm-none-eabi-6-2017-q2-update/arm-none-eabi/include/c++/6.3.1/bits/stl_list.h **** #endif
1312:/home/vdykyy/Install/STM-32/gcc-arm-none-eabi-6-2017-q2-update/arm-none-eabi/include/c++/6.3.1/bits/stl_list.h **** 
1313:/home/vdykyy/Install/STM-32/gcc-arm-none-eabi-6-2017-q2-update/arm-none-eabi/include/c++/6.3.1/bits/stl_list.h ****       /**
1314:/home/vdykyy/Install/STM-32/gcc-arm-none-eabi-6-2017-q2-update/arm-none-eabi/include/c++/6.3.1/bits/stl_list.h ****        *  @brief  Remove a range of elements.
1315:/home/vdykyy/Install/STM-32/gcc-arm-none-eabi-6-2017-q2-update/arm-none-eabi/include/c++/6.3.1/bits/stl_list.h ****        *  @param  __first  Iterator pointing to the first element to be erased.
1316:/home/vdykyy/Install/STM-32/gcc-arm-none-eabi-6-2017-q2-update/arm-none-eabi/include/c++/6.3.1/bits/stl_list.h ****        *  @param  __last  Iterator pointing to one past the last element to be
1317:/home/vdykyy/Install/STM-32/gcc-arm-none-eabi-6-2017-q2-update/arm-none-eabi/include/c++/6.3.1/bits/stl_list.h ****        *                erased.
1318:/home/vdykyy/Install/STM-32/gcc-arm-none-eabi-6-2017-q2-update/arm-none-eabi/include/c++/6.3.1/bits/stl_list.h ****        *  @return  An iterator pointing to the element pointed to by @a last
1319:/home/vdykyy/Install/STM-32/gcc-arm-none-eabi-6-2017-q2-update/arm-none-eabi/include/c++/6.3.1/bits/stl_list.h ****        *           prior to erasing (or end()).
1320:/home/vdykyy/Install/STM-32/gcc-arm-none-eabi-6-2017-q2-update/arm-none-eabi/include/c++/6.3.1/bits/stl_list.h ****        *
1321:/home/vdykyy/Install/STM-32/gcc-arm-none-eabi-6-2017-q2-update/arm-none-eabi/include/c++/6.3.1/bits/stl_list.h ****        *  This function will erase the elements in the range @a
1322:/home/vdykyy/Install/STM-32/gcc-arm-none-eabi-6-2017-q2-update/arm-none-eabi/include/c++/6.3.1/bits/stl_list.h ****        *  [first,last) and shorten the %list accordingly.
1323:/home/vdykyy/Install/STM-32/gcc-arm-none-eabi-6-2017-q2-update/arm-none-eabi/include/c++/6.3.1/bits/stl_list.h ****        *
1324:/home/vdykyy/Install/STM-32/gcc-arm-none-eabi-6-2017-q2-update/arm-none-eabi/include/c++/6.3.1/bits/stl_list.h ****        *  This operation is linear time in the size of the range and only
1325:/home/vdykyy/Install/STM-32/gcc-arm-none-eabi-6-2017-q2-update/arm-none-eabi/include/c++/6.3.1/bits/stl_list.h ****        *  invalidates iterators/references to the element being removed.
1326:/home/vdykyy/Install/STM-32/gcc-arm-none-eabi-6-2017-q2-update/arm-none-eabi/include/c++/6.3.1/bits/stl_list.h ****        *  The user is also cautioned that this function only erases the
1327:/home/vdykyy/Install/STM-32/gcc-arm-none-eabi-6-2017-q2-update/arm-none-eabi/include/c++/6.3.1/bits/stl_list.h ****        *  elements, and that if the elements themselves are pointers, the
1328:/home/vdykyy/Install/STM-32/gcc-arm-none-eabi-6-2017-q2-update/arm-none-eabi/include/c++/6.3.1/bits/stl_list.h ****        *  pointed-to memory is not touched in any way.  Managing the pointer
1329:/home/vdykyy/Install/STM-32/gcc-arm-none-eabi-6-2017-q2-update/arm-none-eabi/include/c++/6.3.1/bits/stl_list.h ****        *  is the user's responsibility.
1330:/home/vdykyy/Install/STM-32/gcc-arm-none-eabi-6-2017-q2-update/arm-none-eabi/include/c++/6.3.1/bits/stl_list.h ****        */
1331:/home/vdykyy/Install/STM-32/gcc-arm-none-eabi-6-2017-q2-update/arm-none-eabi/include/c++/6.3.1/bits/stl_list.h ****       iterator
1332:/home/vdykyy/Install/STM-32/gcc-arm-none-eabi-6-2017-q2-update/arm-none-eabi/include/c++/6.3.1/bits/stl_list.h **** #if __cplusplus >= 201103L
1333:/home/vdykyy/Install/STM-32/gcc-arm-none-eabi-6-2017-q2-update/arm-none-eabi/include/c++/6.3.1/bits/stl_list.h ****       erase(const_iterator __first, const_iterator __last) noexcept
1334:/home/vdykyy/Install/STM-32/gcc-arm-none-eabi-6-2017-q2-update/arm-none-eabi/include/c++/6.3.1/bits/stl_list.h **** #else
1335:/home/vdykyy/Install/STM-32/gcc-arm-none-eabi-6-2017-q2-update/arm-none-eabi/include/c++/6.3.1/bits/stl_list.h ****       erase(iterator __first, iterator __last)
1336:/home/vdykyy/Install/STM-32/gcc-arm-none-eabi-6-2017-q2-update/arm-none-eabi/include/c++/6.3.1/bits/stl_list.h **** #endif
1337:/home/vdykyy/Install/STM-32/gcc-arm-none-eabi-6-2017-q2-update/arm-none-eabi/include/c++/6.3.1/bits/stl_list.h ****       {
1338:/home/vdykyy/Install/STM-32/gcc-arm-none-eabi-6-2017-q2-update/arm-none-eabi/include/c++/6.3.1/bits/stl_list.h **** 	while (__first != __last)
1339:/home/vdykyy/Install/STM-32/gcc-arm-none-eabi-6-2017-q2-update/arm-none-eabi/include/c++/6.3.1/bits/stl_list.h **** 	  __first = erase(__first);
1340:/home/vdykyy/Install/STM-32/gcc-arm-none-eabi-6-2017-q2-update/arm-none-eabi/include/c++/6.3.1/bits/stl_list.h **** 	return __last._M_const_cast();
1341:/home/vdykyy/Install/STM-32/gcc-arm-none-eabi-6-2017-q2-update/arm-none-eabi/include/c++/6.3.1/bits/stl_list.h ****       }
ARM GAS  /tmp/ccni6OXp.s 			page 36


1342:/home/vdykyy/Install/STM-32/gcc-arm-none-eabi-6-2017-q2-update/arm-none-eabi/include/c++/6.3.1/bits/stl_list.h **** 
1343:/home/vdykyy/Install/STM-32/gcc-arm-none-eabi-6-2017-q2-update/arm-none-eabi/include/c++/6.3.1/bits/stl_list.h ****       /**
1344:/home/vdykyy/Install/STM-32/gcc-arm-none-eabi-6-2017-q2-update/arm-none-eabi/include/c++/6.3.1/bits/stl_list.h ****        *  @brief  Swaps data with another %list.
1345:/home/vdykyy/Install/STM-32/gcc-arm-none-eabi-6-2017-q2-update/arm-none-eabi/include/c++/6.3.1/bits/stl_list.h ****        *  @param  __x  A %list of the same element and allocator types.
1346:/home/vdykyy/Install/STM-32/gcc-arm-none-eabi-6-2017-q2-update/arm-none-eabi/include/c++/6.3.1/bits/stl_list.h ****        *
1347:/home/vdykyy/Install/STM-32/gcc-arm-none-eabi-6-2017-q2-update/arm-none-eabi/include/c++/6.3.1/bits/stl_list.h ****        *  This exchanges the elements between two lists in constant
1348:/home/vdykyy/Install/STM-32/gcc-arm-none-eabi-6-2017-q2-update/arm-none-eabi/include/c++/6.3.1/bits/stl_list.h ****        *  time.  Note that the global std::swap() function is
1349:/home/vdykyy/Install/STM-32/gcc-arm-none-eabi-6-2017-q2-update/arm-none-eabi/include/c++/6.3.1/bits/stl_list.h ****        *  specialized such that std::swap(l1,l2) will feed to this
1350:/home/vdykyy/Install/STM-32/gcc-arm-none-eabi-6-2017-q2-update/arm-none-eabi/include/c++/6.3.1/bits/stl_list.h ****        *  function.
1351:/home/vdykyy/Install/STM-32/gcc-arm-none-eabi-6-2017-q2-update/arm-none-eabi/include/c++/6.3.1/bits/stl_list.h ****        */
1352:/home/vdykyy/Install/STM-32/gcc-arm-none-eabi-6-2017-q2-update/arm-none-eabi/include/c++/6.3.1/bits/stl_list.h ****       void
1353:/home/vdykyy/Install/STM-32/gcc-arm-none-eabi-6-2017-q2-update/arm-none-eabi/include/c++/6.3.1/bits/stl_list.h ****       swap(list& __x) _GLIBCXX_NOEXCEPT
1354:/home/vdykyy/Install/STM-32/gcc-arm-none-eabi-6-2017-q2-update/arm-none-eabi/include/c++/6.3.1/bits/stl_list.h ****       {
1355:/home/vdykyy/Install/STM-32/gcc-arm-none-eabi-6-2017-q2-update/arm-none-eabi/include/c++/6.3.1/bits/stl_list.h **** 	__detail::_List_node_base::swap(this->_M_impl._M_node,
1356:/home/vdykyy/Install/STM-32/gcc-arm-none-eabi-6-2017-q2-update/arm-none-eabi/include/c++/6.3.1/bits/stl_list.h **** 				        __x._M_impl._M_node);
1357:/home/vdykyy/Install/STM-32/gcc-arm-none-eabi-6-2017-q2-update/arm-none-eabi/include/c++/6.3.1/bits/stl_list.h **** 
1358:/home/vdykyy/Install/STM-32/gcc-arm-none-eabi-6-2017-q2-update/arm-none-eabi/include/c++/6.3.1/bits/stl_list.h **** 	size_t __xsize = __x._M_get_size();
1359:/home/vdykyy/Install/STM-32/gcc-arm-none-eabi-6-2017-q2-update/arm-none-eabi/include/c++/6.3.1/bits/stl_list.h **** 	__x._M_set_size(this->_M_get_size());
1360:/home/vdykyy/Install/STM-32/gcc-arm-none-eabi-6-2017-q2-update/arm-none-eabi/include/c++/6.3.1/bits/stl_list.h **** 	this->_M_set_size(__xsize);
1361:/home/vdykyy/Install/STM-32/gcc-arm-none-eabi-6-2017-q2-update/arm-none-eabi/include/c++/6.3.1/bits/stl_list.h **** 
1362:/home/vdykyy/Install/STM-32/gcc-arm-none-eabi-6-2017-q2-update/arm-none-eabi/include/c++/6.3.1/bits/stl_list.h **** 	_Node_alloc_traits::_S_on_swap(this->_M_get_Node_allocator(),
1363:/home/vdykyy/Install/STM-32/gcc-arm-none-eabi-6-2017-q2-update/arm-none-eabi/include/c++/6.3.1/bits/stl_list.h ****                                        __x._M_get_Node_allocator());
1364:/home/vdykyy/Install/STM-32/gcc-arm-none-eabi-6-2017-q2-update/arm-none-eabi/include/c++/6.3.1/bits/stl_list.h ****       }
1365:/home/vdykyy/Install/STM-32/gcc-arm-none-eabi-6-2017-q2-update/arm-none-eabi/include/c++/6.3.1/bits/stl_list.h **** 
1366:/home/vdykyy/Install/STM-32/gcc-arm-none-eabi-6-2017-q2-update/arm-none-eabi/include/c++/6.3.1/bits/stl_list.h ****       /**
1367:/home/vdykyy/Install/STM-32/gcc-arm-none-eabi-6-2017-q2-update/arm-none-eabi/include/c++/6.3.1/bits/stl_list.h ****        *  Erases all the elements.  Note that this function only erases
1368:/home/vdykyy/Install/STM-32/gcc-arm-none-eabi-6-2017-q2-update/arm-none-eabi/include/c++/6.3.1/bits/stl_list.h ****        *  the elements, and that if the elements themselves are
1369:/home/vdykyy/Install/STM-32/gcc-arm-none-eabi-6-2017-q2-update/arm-none-eabi/include/c++/6.3.1/bits/stl_list.h ****        *  pointers, the pointed-to memory is not touched in any way.
1370:/home/vdykyy/Install/STM-32/gcc-arm-none-eabi-6-2017-q2-update/arm-none-eabi/include/c++/6.3.1/bits/stl_list.h ****        *  Managing the pointer is the user's responsibility.
1371:/home/vdykyy/Install/STM-32/gcc-arm-none-eabi-6-2017-q2-update/arm-none-eabi/include/c++/6.3.1/bits/stl_list.h ****        */
1372:/home/vdykyy/Install/STM-32/gcc-arm-none-eabi-6-2017-q2-update/arm-none-eabi/include/c++/6.3.1/bits/stl_list.h ****       void
1373:/home/vdykyy/Install/STM-32/gcc-arm-none-eabi-6-2017-q2-update/arm-none-eabi/include/c++/6.3.1/bits/stl_list.h ****       clear() _GLIBCXX_NOEXCEPT
1374:/home/vdykyy/Install/STM-32/gcc-arm-none-eabi-6-2017-q2-update/arm-none-eabi/include/c++/6.3.1/bits/stl_list.h ****       {
1375:/home/vdykyy/Install/STM-32/gcc-arm-none-eabi-6-2017-q2-update/arm-none-eabi/include/c++/6.3.1/bits/stl_list.h ****         _Base::_M_clear();
1376:/home/vdykyy/Install/STM-32/gcc-arm-none-eabi-6-2017-q2-update/arm-none-eabi/include/c++/6.3.1/bits/stl_list.h ****         _Base::_M_init();
1377:/home/vdykyy/Install/STM-32/gcc-arm-none-eabi-6-2017-q2-update/arm-none-eabi/include/c++/6.3.1/bits/stl_list.h ****       }
1378:/home/vdykyy/Install/STM-32/gcc-arm-none-eabi-6-2017-q2-update/arm-none-eabi/include/c++/6.3.1/bits/stl_list.h **** 
1379:/home/vdykyy/Install/STM-32/gcc-arm-none-eabi-6-2017-q2-update/arm-none-eabi/include/c++/6.3.1/bits/stl_list.h ****       // [23.2.2.4] list operations
1380:/home/vdykyy/Install/STM-32/gcc-arm-none-eabi-6-2017-q2-update/arm-none-eabi/include/c++/6.3.1/bits/stl_list.h ****       /**
1381:/home/vdykyy/Install/STM-32/gcc-arm-none-eabi-6-2017-q2-update/arm-none-eabi/include/c++/6.3.1/bits/stl_list.h ****        *  @brief  Insert contents of another %list.
1382:/home/vdykyy/Install/STM-32/gcc-arm-none-eabi-6-2017-q2-update/arm-none-eabi/include/c++/6.3.1/bits/stl_list.h ****        *  @param  __position  Iterator referencing the element to insert before.
1383:/home/vdykyy/Install/STM-32/gcc-arm-none-eabi-6-2017-q2-update/arm-none-eabi/include/c++/6.3.1/bits/stl_list.h ****        *  @param  __x  Source list.
1384:/home/vdykyy/Install/STM-32/gcc-arm-none-eabi-6-2017-q2-update/arm-none-eabi/include/c++/6.3.1/bits/stl_list.h ****        *
1385:/home/vdykyy/Install/STM-32/gcc-arm-none-eabi-6-2017-q2-update/arm-none-eabi/include/c++/6.3.1/bits/stl_list.h ****        *  The elements of @a __x are inserted in constant time in front of
1386:/home/vdykyy/Install/STM-32/gcc-arm-none-eabi-6-2017-q2-update/arm-none-eabi/include/c++/6.3.1/bits/stl_list.h ****        *  the element referenced by @a __position.  @a __x becomes an empty
1387:/home/vdykyy/Install/STM-32/gcc-arm-none-eabi-6-2017-q2-update/arm-none-eabi/include/c++/6.3.1/bits/stl_list.h ****        *  list.
1388:/home/vdykyy/Install/STM-32/gcc-arm-none-eabi-6-2017-q2-update/arm-none-eabi/include/c++/6.3.1/bits/stl_list.h ****        *
1389:/home/vdykyy/Install/STM-32/gcc-arm-none-eabi-6-2017-q2-update/arm-none-eabi/include/c++/6.3.1/bits/stl_list.h ****        *  Requires this != @a __x.
1390:/home/vdykyy/Install/STM-32/gcc-arm-none-eabi-6-2017-q2-update/arm-none-eabi/include/c++/6.3.1/bits/stl_list.h ****        */
1391:/home/vdykyy/Install/STM-32/gcc-arm-none-eabi-6-2017-q2-update/arm-none-eabi/include/c++/6.3.1/bits/stl_list.h ****       void
1392:/home/vdykyy/Install/STM-32/gcc-arm-none-eabi-6-2017-q2-update/arm-none-eabi/include/c++/6.3.1/bits/stl_list.h **** #if __cplusplus >= 201103L
1393:/home/vdykyy/Install/STM-32/gcc-arm-none-eabi-6-2017-q2-update/arm-none-eabi/include/c++/6.3.1/bits/stl_list.h ****       splice(const_iterator __position, list&& __x) noexcept
1394:/home/vdykyy/Install/STM-32/gcc-arm-none-eabi-6-2017-q2-update/arm-none-eabi/include/c++/6.3.1/bits/stl_list.h **** #else
1395:/home/vdykyy/Install/STM-32/gcc-arm-none-eabi-6-2017-q2-update/arm-none-eabi/include/c++/6.3.1/bits/stl_list.h ****       splice(iterator __position, list& __x)
1396:/home/vdykyy/Install/STM-32/gcc-arm-none-eabi-6-2017-q2-update/arm-none-eabi/include/c++/6.3.1/bits/stl_list.h **** #endif
1397:/home/vdykyy/Install/STM-32/gcc-arm-none-eabi-6-2017-q2-update/arm-none-eabi/include/c++/6.3.1/bits/stl_list.h ****       {
1398:/home/vdykyy/Install/STM-32/gcc-arm-none-eabi-6-2017-q2-update/arm-none-eabi/include/c++/6.3.1/bits/stl_list.h **** 	if (!__x.empty())
ARM GAS  /tmp/ccni6OXp.s 			page 37


1399:/home/vdykyy/Install/STM-32/gcc-arm-none-eabi-6-2017-q2-update/arm-none-eabi/include/c++/6.3.1/bits/stl_list.h **** 	  {
1400:/home/vdykyy/Install/STM-32/gcc-arm-none-eabi-6-2017-q2-update/arm-none-eabi/include/c++/6.3.1/bits/stl_list.h **** 	    _M_check_equal_allocators(__x);
1401:/home/vdykyy/Install/STM-32/gcc-arm-none-eabi-6-2017-q2-update/arm-none-eabi/include/c++/6.3.1/bits/stl_list.h **** 
1402:/home/vdykyy/Install/STM-32/gcc-arm-none-eabi-6-2017-q2-update/arm-none-eabi/include/c++/6.3.1/bits/stl_list.h **** 	    this->_M_transfer(__position._M_const_cast(),
1403:/home/vdykyy/Install/STM-32/gcc-arm-none-eabi-6-2017-q2-update/arm-none-eabi/include/c++/6.3.1/bits/stl_list.h **** 			      __x.begin(), __x.end());
1404:/home/vdykyy/Install/STM-32/gcc-arm-none-eabi-6-2017-q2-update/arm-none-eabi/include/c++/6.3.1/bits/stl_list.h **** 
1405:/home/vdykyy/Install/STM-32/gcc-arm-none-eabi-6-2017-q2-update/arm-none-eabi/include/c++/6.3.1/bits/stl_list.h **** 	    this->_M_inc_size(__x._M_get_size());
1406:/home/vdykyy/Install/STM-32/gcc-arm-none-eabi-6-2017-q2-update/arm-none-eabi/include/c++/6.3.1/bits/stl_list.h **** 	    __x._M_set_size(0);
1407:/home/vdykyy/Install/STM-32/gcc-arm-none-eabi-6-2017-q2-update/arm-none-eabi/include/c++/6.3.1/bits/stl_list.h **** 	  }
1408:/home/vdykyy/Install/STM-32/gcc-arm-none-eabi-6-2017-q2-update/arm-none-eabi/include/c++/6.3.1/bits/stl_list.h ****       }
1409:/home/vdykyy/Install/STM-32/gcc-arm-none-eabi-6-2017-q2-update/arm-none-eabi/include/c++/6.3.1/bits/stl_list.h **** 
1410:/home/vdykyy/Install/STM-32/gcc-arm-none-eabi-6-2017-q2-update/arm-none-eabi/include/c++/6.3.1/bits/stl_list.h **** #if __cplusplus >= 201103L
1411:/home/vdykyy/Install/STM-32/gcc-arm-none-eabi-6-2017-q2-update/arm-none-eabi/include/c++/6.3.1/bits/stl_list.h ****       void
1412:/home/vdykyy/Install/STM-32/gcc-arm-none-eabi-6-2017-q2-update/arm-none-eabi/include/c++/6.3.1/bits/stl_list.h ****       splice(const_iterator __position, list& __x) noexcept
1413:/home/vdykyy/Install/STM-32/gcc-arm-none-eabi-6-2017-q2-update/arm-none-eabi/include/c++/6.3.1/bits/stl_list.h ****       { splice(__position, std::move(__x)); }
1414:/home/vdykyy/Install/STM-32/gcc-arm-none-eabi-6-2017-q2-update/arm-none-eabi/include/c++/6.3.1/bits/stl_list.h **** #endif
