ARM GAS  /tmp/cczYbEKu.s 			page 1


   1              		.cpu cortex-m3
   2              		.eabi_attribute 20, 1
   3              		.eabi_attribute 21, 1
   4              		.eabi_attribute 23, 3
   5              		.eabi_attribute 24, 1
   6              		.eabi_attribute 25, 1
   7              		.eabi_attribute 26, 1
   8              		.eabi_attribute 30, 2
   9              		.eabi_attribute 34, 1
  10              		.eabi_attribute 18, 4
  11              		.file	"dma.c"
  12              		.text
  13              	.Ltext0:
  14              		.cfi_sections	.debug_frame
  15              		.section	.text.MX_DMA_Init,"ax",%progbits
  16              		.align	1
  17              		.p2align 2,,3
  18              		.global	MX_DMA_Init
  19              		.syntax unified
  20              		.thumb
  21              		.thumb_func
  22              		.fpu softvfp
  24              	MX_DMA_Init:
  25              	.LFB64:
  26              		.file 1 "src/HAL/dma.c"
   1:src/HAL/dma.c **** /**
   2:src/HAL/dma.c ****   ******************************************************************************
   3:src/HAL/dma.c ****   * File Name          : dma.c
   4:src/HAL/dma.c ****   * Description        : This file provides code for the configuration
   5:src/HAL/dma.c ****   *                      of all the requested memory to memory DMA transfers.
   6:src/HAL/dma.c ****   ******************************************************************************
   7:src/HAL/dma.c ****   ** This notice applies to any and all portions of this file
   8:src/HAL/dma.c ****   * that are not between comment pairs USER CODE BEGIN and
   9:src/HAL/dma.c ****   * USER CODE END. Other portions of this file, whether 
  10:src/HAL/dma.c ****   * inserted by the user or by software development tools
  11:src/HAL/dma.c ****   * are owned by their respective copyright owners.
  12:src/HAL/dma.c ****   *
  13:src/HAL/dma.c ****   * COPYRIGHT(c) 2018 STMicroelectronics
  14:src/HAL/dma.c ****   *
  15:src/HAL/dma.c ****   * Redistribution and use in source and binary forms, with or without modification,
  16:src/HAL/dma.c ****   * are permitted provided that the following conditions are met:
  17:src/HAL/dma.c ****   *   1. Redistributions of source code must retain the above copyright notice,
  18:src/HAL/dma.c ****   *      this list of conditions and the following disclaimer.
  19:src/HAL/dma.c ****   *   2. Redistributions in binary form must reproduce the above copyright notice,
  20:src/HAL/dma.c ****   *      this list of conditions and the following disclaimer in the documentation
  21:src/HAL/dma.c ****   *      and/or other materials provided with the distribution.
  22:src/HAL/dma.c ****   *   3. Neither the name of STMicroelectronics nor the names of its contributors
  23:src/HAL/dma.c ****   *      may be used to endorse or promote products derived from this software
  24:src/HAL/dma.c ****   *      without specific prior written permission.
  25:src/HAL/dma.c ****   *
  26:src/HAL/dma.c ****   * THIS SOFTWARE IS PROVIDED BY THE COPYRIGHT HOLDERS AND CONTRIBUTORS "AS IS"
  27:src/HAL/dma.c ****   * AND ANY EXPRESS OR IMPLIED WARRANTIES, INCLUDING, BUT NOT LIMITED TO, THE
  28:src/HAL/dma.c ****   * IMPLIED WARRANTIES OF MERCHANTABILITY AND FITNESS FOR A PARTICULAR PURPOSE ARE
  29:src/HAL/dma.c ****   * DISCLAIMED. IN NO EVENT SHALL THE COPYRIGHT HOLDER OR CONTRIBUTORS BE LIABLE
  30:src/HAL/dma.c ****   * FOR ANY DIRECT, INDIRECT, INCIDENTAL, SPECIAL, EXEMPLARY, OR CONSEQUENTIAL
  31:src/HAL/dma.c ****   * DAMAGES (INCLUDING, BUT NOT LIMITED TO, PROCUREMENT OF SUBSTITUTE GOODS OR
  32:src/HAL/dma.c ****   * SERVICES; LOSS OF USE, DATA, OR PROFITS; OR BUSINESS INTERRUPTION) HOWEVER
ARM GAS  /tmp/cczYbEKu.s 			page 2


  33:src/HAL/dma.c ****   * CAUSED AND ON ANY THEORY OF LIABILITY, WHETHER IN CONTRACT, STRICT LIABILITY,
  34:src/HAL/dma.c ****   * OR TORT (INCLUDING NEGLIGENCE OR OTHERWISE) ARISING IN ANY WAY OUT OF THE USE
  35:src/HAL/dma.c ****   * OF THIS SOFTWARE, EVEN IF ADVISED OF THE POSSIBILITY OF SUCH DAMAGE.
  36:src/HAL/dma.c ****   *
  37:src/HAL/dma.c ****   ******************************************************************************
  38:src/HAL/dma.c ****   */
  39:src/HAL/dma.c **** /* Includes ------------------------------------------------------------------*/
  40:src/HAL/dma.c **** #include "dma.h"
  41:src/HAL/dma.c **** 
  42:src/HAL/dma.c **** /* USER CODE BEGIN 0 */
  43:src/HAL/dma.c **** 
  44:src/HAL/dma.c **** /* USER CODE END 0 */
  45:src/HAL/dma.c **** 
  46:src/HAL/dma.c **** /*----------------------------------------------------------------------------*/
  47:src/HAL/dma.c **** /* Configure DMA                                                              */
  48:src/HAL/dma.c **** /*----------------------------------------------------------------------------*/
  49:src/HAL/dma.c **** 
  50:src/HAL/dma.c **** /* USER CODE BEGIN 1 */
  51:src/HAL/dma.c **** 
  52:src/HAL/dma.c **** /* USER CODE END 1 */
  53:src/HAL/dma.c **** 
  54:src/HAL/dma.c **** /** 
  55:src/HAL/dma.c ****   * Enable DMA controller clock
  56:src/HAL/dma.c ****   */
  57:src/HAL/dma.c **** void MX_DMA_Init(void) 
  58:src/HAL/dma.c **** {
  27              		.loc 1 58 0
  28              		.cfi_startproc
  29              		@ args = 0, pretend = 0, frame = 8
  30              		@ frame_needed = 0, uses_anonymous_args = 0
  59:src/HAL/dma.c ****   /* DMA controller clock enable */
  60:src/HAL/dma.c ****   __HAL_RCC_DMA1_CLK_ENABLE();
  61:src/HAL/dma.c **** 
  62:src/HAL/dma.c ****   /* DMA interrupt init */
  63:src/HAL/dma.c ****   /* DMA1_Channel1_IRQn interrupt configuration */
  64:src/HAL/dma.c ****   HAL_NVIC_SetPriority(DMA1_Channel1_IRQn, 0, 0);
  31              		.loc 1 64 0
  32 0000 0022     		movs	r2, #0
  33              	.LBB2:
  60:src/HAL/dma.c **** 
  34              		.loc 1 60 0
  35 0002 1A4B     		ldr	r3, .L3
  36              	.LBE2:
  58:src/HAL/dma.c ****   /* DMA controller clock enable */
  37              		.loc 1 58 0
  38 0004 10B5     		push	{r4, lr}
  39              		.cfi_def_cfa_offset 8
  40              		.cfi_offset 4, -8
  41              		.cfi_offset 14, -4
  42              	.LBB3:
  60:src/HAL/dma.c **** 
  43              		.loc 1 60 0
  44 0006 5C69     		ldr	r4, [r3, #20]
  45              	.LBE3:
  58:src/HAL/dma.c ****   /* DMA controller clock enable */
  46              		.loc 1 58 0
  47 0008 82B0     		sub	sp, sp, #8
ARM GAS  /tmp/cczYbEKu.s 			page 3


  48              		.cfi_def_cfa_offset 16
  49              	.LBB4:
  60:src/HAL/dma.c **** 
  50              		.loc 1 60 0
  51 000a 44F00104 		orr	r4, r4, #1
  52 000e 5C61     		str	r4, [r3, #20]
  53 0010 5B69     		ldr	r3, [r3, #20]
  54              	.LBE4:
  55              		.loc 1 64 0
  56 0012 1146     		mov	r1, r2
  57              	.LBB5:
  60:src/HAL/dma.c **** 
  58              		.loc 1 60 0
  59 0014 03F00103 		and	r3, r3, #1
  60 0018 0193     		str	r3, [sp, #4]
  61              	.LBE5:
  62              		.loc 1 64 0
  63 001a 0B20     		movs	r0, #11
  64              	.LBB6:
  60:src/HAL/dma.c **** 
  65              		.loc 1 60 0
  66 001c 019B     		ldr	r3, [sp, #4]
  67              	.LBE6:
  68              		.loc 1 64 0
  69 001e FFF7FEFF 		bl	HAL_NVIC_SetPriority
  70              	.LVL0:
  65:src/HAL/dma.c ****   HAL_NVIC_EnableIRQ(DMA1_Channel1_IRQn);
  71              		.loc 1 65 0
  72 0022 0B20     		movs	r0, #11
  73 0024 FFF7FEFF 		bl	HAL_NVIC_EnableIRQ
  74              	.LVL1:
  66:src/HAL/dma.c ****   /* DMA1_Channel2_IRQn interrupt configuration */
  67:src/HAL/dma.c ****   HAL_NVIC_SetPriority(DMA1_Channel2_IRQn, 0, 0);
  75              		.loc 1 67 0
  76 0028 0022     		movs	r2, #0
  77 002a 0C20     		movs	r0, #12
  78 002c 1146     		mov	r1, r2
  79 002e FFF7FEFF 		bl	HAL_NVIC_SetPriority
  80              	.LVL2:
  68:src/HAL/dma.c ****   HAL_NVIC_EnableIRQ(DMA1_Channel2_IRQn);
  81              		.loc 1 68 0
  82 0032 0C20     		movs	r0, #12
  83 0034 FFF7FEFF 		bl	HAL_NVIC_EnableIRQ
  84              	.LVL3:
  69:src/HAL/dma.c ****   /* DMA1_Channel3_IRQn interrupt configuration */
  70:src/HAL/dma.c ****   HAL_NVIC_SetPriority(DMA1_Channel3_IRQn, 0, 0);
  85              		.loc 1 70 0
  86 0038 0022     		movs	r2, #0
  87 003a 0D20     		movs	r0, #13
  88 003c 1146     		mov	r1, r2
  89 003e FFF7FEFF 		bl	HAL_NVIC_SetPriority
  90              	.LVL4:
  71:src/HAL/dma.c ****   HAL_NVIC_EnableIRQ(DMA1_Channel3_IRQn);
  91              		.loc 1 71 0
  92 0042 0D20     		movs	r0, #13
  93 0044 FFF7FEFF 		bl	HAL_NVIC_EnableIRQ
  94              	.LVL5:
ARM GAS  /tmp/cczYbEKu.s 			page 4


  72:src/HAL/dma.c ****   /* DMA1_Channel4_IRQn interrupt configuration */
  73:src/HAL/dma.c ****   HAL_NVIC_SetPriority(DMA1_Channel4_IRQn, 0, 0);
  95              		.loc 1 73 0
  96 0048 0022     		movs	r2, #0
  97 004a 0E20     		movs	r0, #14
  98 004c 1146     		mov	r1, r2
  99 004e FFF7FEFF 		bl	HAL_NVIC_SetPriority
 100              	.LVL6:
  74:src/HAL/dma.c ****   HAL_NVIC_EnableIRQ(DMA1_Channel4_IRQn);
 101              		.loc 1 74 0
 102 0052 0E20     		movs	r0, #14
 103 0054 FFF7FEFF 		bl	HAL_NVIC_EnableIRQ
 104              	.LVL7:
  75:src/HAL/dma.c ****   /* DMA1_Channel5_IRQn interrupt configuration */
  76:src/HAL/dma.c ****   HAL_NVIC_SetPriority(DMA1_Channel5_IRQn, 0, 0);
 105              		.loc 1 76 0
 106 0058 0022     		movs	r2, #0
 107 005a 0F20     		movs	r0, #15
 108 005c 1146     		mov	r1, r2
 109 005e FFF7FEFF 		bl	HAL_NVIC_SetPriority
 110              	.LVL8:
  77:src/HAL/dma.c ****   HAL_NVIC_EnableIRQ(DMA1_Channel5_IRQn);
 111              		.loc 1 77 0
 112 0062 0F20     		movs	r0, #15
 113 0064 FFF7FEFF 		bl	HAL_NVIC_EnableIRQ
 114              	.LVL9:
  78:src/HAL/dma.c **** 
  79:src/HAL/dma.c **** }
 115              		.loc 1 79 0
 116 0068 02B0     		add	sp, sp, #8
 117              		.cfi_def_cfa_offset 8
 118              		@ sp needed
 119 006a 10BD     		pop	{r4, pc}
 120              	.L4:
 121              		.align	2
 122              	.L3:
 123 006c 00100240 		.word	1073876992
 124              		.cfi_endproc
 125              	.LFE64:
 127              		.text
 128              	.Letext0:
 129              		.file 2 "/home/vdykyy/Install/STM-32/gcc-arm-none-eabi-6-2017-q2-update/lib/gcc/arm-none-eabi/6.3.
 130              		.file 3 "drivers/CMSIS/Include/core_cm3.h"
 131              		.file 4 "drivers/CMSIS/Device/ST/STM32F1xx/Include/system_stm32f1xx.h"
 132              		.file 5 "drivers/CMSIS/Device/ST/STM32F1xx/Include/stm32f103xb.h"
 133              		.file 6 "/home/vdykyy/Install/STM-32/gcc-arm-none-eabi-6-2017-q2-update/arm-none-eabi/include/sys/
 134              		.file 7 "/home/vdykyy/Install/STM-32/gcc-arm-none-eabi-6-2017-q2-update/arm-none-eabi/include/sys/
 135              		.file 8 "/home/vdykyy/Install/STM-32/gcc-arm-none-eabi-6-2017-q2-update/lib/gcc/arm-none-eabi/6.3.
 136              		.file 9 "/home/vdykyy/Install/STM-32/gcc-arm-none-eabi-6-2017-q2-update/arm-none-eabi/include/sys/
 137              		.file 10 "drivers/STM32F1xx_HAL_Driver/Inc/stm32f1xx_hal_cortex.h"
ARM GAS  /tmp/cczYbEKu.s 			page 5

