ARM GAS  /tmp/ccDZrId3.s 			page 1


   1              		.cpu cortex-m3
   2              		.eabi_attribute 20, 1
   3              		.eabi_attribute 21, 1
   4              		.eabi_attribute 23, 3
   5              		.eabi_attribute 24, 1
   6              		.eabi_attribute 25, 1
   7              		.eabi_attribute 26, 1
   8              		.eabi_attribute 30, 2
   9              		.eabi_attribute 34, 1
  10              		.eabi_attribute 18, 4
  11              		.file	"main.cpp"
  12              		.text
  13              	.Ltext0:
  14              		.cfi_sections	.debug_frame
  15              		.section	.text.startup.main,"ax",%progbits
  16              		.align	1
  17              		.p2align 2,,3
  18              		.global	main
  19              		.syntax unified
  20              		.thumb
  21              		.thumb_func
  22              		.fpu softvfp
  24              	main:
  25              	.LFB1773:
  26              		.file 1 "src/main.cpp"
   1:src/main.cpp  **** #include "main.h"
   2:src/main.cpp  **** #include "stm32f1xx_hal.h"
   3:src/main.cpp  **** #include "adc.h"
   4:src/main.cpp  **** #include "dma.h"
   5:src/main.cpp  **** #include "tim.h"
   6:src/main.cpp  **** #include "usart.h"
   7:src/main.cpp  **** #include "gpio.h"
   8:src/main.cpp  **** #include "spi.h"
   9:src/main.cpp  **** #include "sys_conf.h"
  10:src/main.cpp  **** #include "cardiograph.h"
  11:src/main.cpp  **** #include "stm32f1xx_hal_rcc.h"
  12:src/main.cpp  **** 
  13:src/main.cpp  **** Cardiograph* cardiograph = nullptr;
  14:src/main.cpp  **** 
  15:src/main.cpp  **** int main(void)
  16:src/main.cpp  **** {
  27              		.loc 1 16 0
  28              		.cfi_startproc
  29              		@ Volatile: function does not return.
  30              		@ args = 0, pretend = 0, frame = 0
  31              		@ frame_needed = 0, uses_anonymous_args = 0
  32 0000 08B5     		push	{r3, lr}
  33              		.cfi_def_cfa_offset 8
  34              		.cfi_offset 3, -8
  35              		.cfi_offset 14, -4
  17:src/main.cpp  **** 
  18:src/main.cpp  ****     HAL_Init();
  36              		.loc 1 18 0
  37 0002 FFF7FEFF 		bl	HAL_Init
  38              	.LVL0:
  19:src/main.cpp  **** 
  20:src/main.cpp  ****     /* Configure the system clock */
ARM GAS  /tmp/ccDZrId3.s 			page 2


  21:src/main.cpp  ****     SystemClock_Config();
  39              		.loc 1 21 0
  40 0006 FFF7FEFF 		bl	SystemClock_Config
  41              	.LVL1:
  22:src/main.cpp  **** 
  23:src/main.cpp  ****     /* Initialize all configured peripherals */
  24:src/main.cpp  ****     MX_GPIO_Init();
  42              		.loc 1 24 0
  43 000a FFF7FEFF 		bl	MX_GPIO_Init
  44              	.LVL2:
  25:src/main.cpp  ****     MX_DMA_Init();
  45              		.loc 1 25 0
  46 000e FFF7FEFF 		bl	MX_DMA_Init
  47              	.LVL3:
  26:src/main.cpp  ****     MX_ADC1_Init();
  48              		.loc 1 26 0
  49 0012 FFF7FEFF 		bl	MX_ADC1_Init
  50              	.LVL4:
  27:src/main.cpp  ****     MX_USART1_UART_Init();
  51              		.loc 1 27 0
  52 0016 FFF7FEFF 		bl	MX_USART1_UART_Init
  53              	.LVL5:
  28:src/main.cpp  ****     MX_SPI1_Init();
  54              		.loc 1 28 0
  55 001a FFF7FEFF 		bl	MX_SPI1_Init
  56              	.LVL6:
  29:src/main.cpp  **** 
  30:src/main.cpp  ****     cardiograph = new Cardiograph();
  57              		.loc 1 30 0
  58 001e 2C20     		movs	r0, #44
  59 0020 FFF7FEFF 		bl	_Znwj
  60              	.LVL7:
  61 0024 0446     		mov	r4, r0
  62 0026 FFF7FEFF 		bl	_ZN11CardiographC1Ev
  63              	.LVL8:
  64 002a 034B     		ldr	r3, .L5
  31:src/main.cpp  ****     cardiograph->init();
  65              		.loc 1 31 0
  66 002c 2046     		mov	r0, r4
  30:src/main.cpp  ****     cardiograph->init();
  67              		.loc 1 30 0
  68 002e 1C60     		str	r4, [r3]
  69              		.loc 1 31 0
  70 0030 FFF7FEFF 		bl	_ZN11Cardiograph4initEv
  71              	.LVL9:
  72              	.L2:
  73 0034 FEE7     		b	.L2
  74              	.L6:
  75 0036 00BF     		.align	2
  76              	.L5:
  77 0038 00000000 		.word	.LANCHOR0
  78              		.cfi_endproc
  79              	.LFE1773:
  81              		.section	.text.HAL_UART_RxCpltCallback,"ax",%progbits
  82              		.align	1
  83              		.p2align 2,,3
  84              		.global	HAL_UART_RxCpltCallback
ARM GAS  /tmp/ccDZrId3.s 			page 3


  85              		.syntax unified
  86              		.thumb
  87              		.thumb_func
  88              		.fpu softvfp
  90              	HAL_UART_RxCpltCallback:
  91              	.LFB1774:
  32:src/main.cpp  **** 
  33:src/main.cpp  **** 
  34:src/main.cpp  ****     //printf("*************\n*************\n-----------\n");
  35:src/main.cpp  ****     while (1)
  36:src/main.cpp  ****     {
  37:src/main.cpp  **** 
  38:src/main.cpp  ****     }
  39:src/main.cpp  **** }
  40:src/main.cpp  **** 
  41:src/main.cpp  **** void HAL_UART_RxCpltCallback(UART_HandleTypeDef *huart)
  42:src/main.cpp  **** {
  92              		.loc 1 42 0
  93              		.cfi_startproc
  94              		@ args = 0, pretend = 0, frame = 0
  95              		@ frame_needed = 0, uses_anonymous_args = 0
  96              		@ link register save eliminated.
  97              	.LVL10:
  43:src/main.cpp  ****     if (cardiograph != nullptr)
  98              		.loc 1 43 0
  99 0000 024B     		ldr	r3, .L9
 100 0002 1868     		ldr	r0, [r3]
 101              	.LVL11:
 102 0004 08B1     		cbz	r0, .L7
  44:src/main.cpp  ****         cardiograph->uartRxHandler();
 103              		.loc 1 44 0
 104 0006 FFF7FEBF 		b	_ZN11Cardiograph13uartRxHandlerEv
 105              	.LVL12:
 106              	.L7:
 107 000a 7047     		bx	lr
 108              	.L10:
 109              		.align	2
 110              	.L9:
 111 000c 00000000 		.word	.LANCHOR0
 112              		.cfi_endproc
 113              	.LFE1774:
 115              		.section	.text.HAL_UART_TxCpltCallback,"ax",%progbits
 116              		.align	1
 117              		.p2align 2,,3
 118              		.global	HAL_UART_TxCpltCallback
 119              		.syntax unified
 120              		.thumb
 121              		.thumb_func
 122              		.fpu softvfp
 124              	HAL_UART_TxCpltCallback:
 125              	.LFB1775:
  45:src/main.cpp  **** }
  46:src/main.cpp  **** 
  47:src/main.cpp  **** void HAL_UART_TxCpltCallback(UART_HandleTypeDef *huart)
  48:src/main.cpp  **** {
 126              		.loc 1 48 0
 127              		.cfi_startproc
ARM GAS  /tmp/ccDZrId3.s 			page 4


 128              		@ args = 0, pretend = 0, frame = 0
 129              		@ frame_needed = 0, uses_anonymous_args = 0
 130              		@ link register save eliminated.
 131              	.LVL13:
  49:src/main.cpp  ****     if (cardiograph != nullptr)
 132              		.loc 1 49 0
 133 0000 024B     		ldr	r3, .L13
 134 0002 1868     		ldr	r0, [r3]
 135              	.LVL14:
 136 0004 08B1     		cbz	r0, .L11
  50:src/main.cpp  ****         cardiograph->uartTxHandler();
 137              		.loc 1 50 0
 138 0006 FFF7FEBF 		b	_ZN11Cardiograph13uartTxHandlerEv
 139              	.LVL15:
 140              	.L11:
 141 000a 7047     		bx	lr
 142              	.L14:
 143              		.align	2
 144              	.L13:
 145 000c 00000000 		.word	.LANCHOR0
 146              		.cfi_endproc
 147              	.LFE1775:
 149              		.section	.text.HAL_TIM_PeriodElapsedCallback,"ax",%progbits
 150              		.align	1
 151              		.p2align 2,,3
 152              		.global	HAL_TIM_PeriodElapsedCallback
 153              		.syntax unified
 154              		.thumb
 155              		.thumb_func
 156              		.fpu softvfp
 158              	HAL_TIM_PeriodElapsedCallback:
 159              	.LFB1776:
  51:src/main.cpp  **** }
  52:src/main.cpp  **** 
  53:src/main.cpp  **** 
  54:src/main.cpp  **** void HAL_TIM_PeriodElapsedCallback(TIM_HandleTypeDef *htim)
  55:src/main.cpp  **** {
 160              		.loc 1 55 0
 161              		.cfi_startproc
 162              		@ args = 0, pretend = 0, frame = 0
 163              		@ frame_needed = 0, uses_anonymous_args = 0
 164              		@ link register save eliminated.
 165              	.LVL16:
  56:src/main.cpp  ****     if (htim->Instance == TIM1)
 166              		.loc 1 56 0
 167 0000 0268     		ldr	r2, [r0]
 168 0002 054B     		ldr	r3, .L21
 169 0004 9A42     		cmp	r2, r3
 170 0006 00D0     		beq	.L20
 171              	.LVL17:
 172              	.L15:
 173 0008 7047     		bx	lr
 174              	.LVL18:
 175              	.L20:
  57:src/main.cpp  ****     {
  58:src/main.cpp  ****         if (cardiograph != nullptr)
 176              		.loc 1 58 0
ARM GAS  /tmp/ccDZrId3.s 			page 5


 177 000a 044B     		ldr	r3, .L21+4
 178 000c 1868     		ldr	r0, [r3]
 179              	.LVL19:
 180 000e 0028     		cmp	r0, #0
 181 0010 FAD0     		beq	.L15
  59:src/main.cpp  ****             cardiograph->timerPeriodElapsedHandler();
 182              		.loc 1 59 0
 183 0012 FFF7FEBF 		b	_ZN11Cardiograph25timerPeriodElapsedHandlerEv
 184              	.LVL20:
 185              	.L22:
 186 0016 00BF     		.align	2
 187              	.L21:
 188 0018 002C0140 		.word	1073818624
 189 001c 00000000 		.word	.LANCHOR0
 190              		.cfi_endproc
 191              	.LFE1776:
 193              		.section	.text.HAL_ADC_ConvCpltCallback,"ax",%progbits
 194              		.align	1
 195              		.p2align 2,,3
 196              		.global	HAL_ADC_ConvCpltCallback
 197              		.syntax unified
 198              		.thumb
 199              		.thumb_func
 200              		.fpu softvfp
 202              	HAL_ADC_ConvCpltCallback:
 203              	.LFB1777:
  60:src/main.cpp  ****     }
  61:src/main.cpp  **** }
  62:src/main.cpp  **** 
  63:src/main.cpp  **** void HAL_ADC_ConvCpltCallback(ADC_HandleTypeDef *hadc)
  64:src/main.cpp  **** {
 204              		.loc 1 64 0
 205              		.cfi_startproc
 206              		@ args = 0, pretend = 0, frame = 0
 207              		@ frame_needed = 0, uses_anonymous_args = 0
 208              		@ link register save eliminated.
 209              	.LVL21:
  65:src/main.cpp  ****     if (cardiograph != nullptr)
 210              		.loc 1 65 0
 211 0000 024B     		ldr	r3, .L25
 212 0002 1868     		ldr	r0, [r3]
 213              	.LVL22:
 214 0004 08B1     		cbz	r0, .L23
  66:src/main.cpp  ****         cardiograph->adcConversionHandler();
 215              		.loc 1 66 0
 216 0006 FFF7FEBF 		b	_ZN11Cardiograph20adcConversionHandlerEv
 217              	.LVL23:
 218              	.L23:
 219 000a 7047     		bx	lr
 220              	.L26:
 221              		.align	2
 222              	.L25:
 223 000c 00000000 		.word	.LANCHOR0
 224              		.cfi_endproc
 225              	.LFE1777:
 227              		.section	.text._Z15SysTick_Handlerv,"ax",%progbits
 228              		.align	1
ARM GAS  /tmp/ccDZrId3.s 			page 6


 229              		.p2align 2,,3
 230              		.global	_Z15SysTick_Handlerv
 231              		.syntax unified
 232              		.thumb
 233              		.thumb_func
 234              		.fpu softvfp
 236              	_Z15SysTick_Handlerv:
 237              	.LFB1778:
  67:src/main.cpp  **** }
  68:src/main.cpp  **** 
  69:src/main.cpp  **** void SysTick_Handler(void)
  70:src/main.cpp  **** {
 238              		.loc 1 70 0
 239              		.cfi_startproc
 240              		@ args = 0, pretend = 0, frame = 0
 241              		@ frame_needed = 0, uses_anonymous_args = 0
 242              		@ link register save eliminated.
  71:src/main.cpp  ****     HAL_IncTick();
 243              		.loc 1 71 0
 244 0000 FFF7FEBF 		b	HAL_IncTick
 245              	.LVL24:
 246              		.cfi_endproc
 247              	.LFE1778:
 249              		.global	cardiograph
 250              		.section	.bss.cardiograph,"aw",%nobits
 251              		.align	2
 252              		.set	.LANCHOR0,. + 0
 255              	cardiograph:
 256 0000 00000000 		.space	4
 257              		.text
 258              	.Letext0:
 259              		.file 2 "/home/vdykyy/Install/STM-32/gcc-arm-none-eabi-6-2017-q2-update/lib/gcc/arm-none-eabi/6.3.
 260              		.file 3 "drivers/CMSIS/Include/core_cm3.h"
 261              		.file 4 "drivers/CMSIS/Device/ST/STM32F1xx/Include/system_stm32f1xx.h"
 262              		.file 5 "drivers/CMSIS/Device/ST/STM32F1xx/Include/stm32f103xb.h"
 263              		.file 6 "/home/vdykyy/Install/STM-32/gcc-arm-none-eabi-6-2017-q2-update/lib/gcc/arm-none-eabi/6.3.
 264              		.file 7 "/home/vdykyy/Install/STM-32/gcc-arm-none-eabi-6-2017-q2-update/lib/gcc/arm-none-eabi/6.3.
 265              		.file 8 "/home/vdykyy/Install/STM-32/gcc-arm-none-eabi-6-2017-q2-update/arm-none-eabi/include/sys/
 266              		.file 9 "/home/vdykyy/Install/STM-32/gcc-arm-none-eabi-6-2017-q2-update/arm-none-eabi/include/sys/
 267              		.file 10 "/home/vdykyy/Install/STM-32/gcc-arm-none-eabi-6-2017-q2-update/arm-none-eabi/include/sys
 268              		.file 11 "<built-in>"
 269              		.file 12 "/home/vdykyy/Install/STM-32/gcc-arm-none-eabi-6-2017-q2-update/arm-none-eabi/include/std
 270              		.file 13 "drivers/STM32F1xx_HAL_Driver/Inc/stm32f1xx_hal_def.h"
 271              		.file 14 "drivers/STM32F1xx_HAL_Driver/Inc/stm32f1xx_hal_gpio.h"
 272              		.file 15 "drivers/STM32F1xx_HAL_Driver/Inc/stm32f1xx_hal_dma.h"
 273              		.file 16 "drivers/STM32F1xx_HAL_Driver/Inc/stm32f1xx_hal_adc.h"
 274              		.file 17 "drivers/STM32F1xx_HAL_Driver/Inc/stm32f1xx_hal_spi.h"
 275              		.file 18 "drivers/STM32F1xx_HAL_Driver/Inc/stm32f1xx_hal_tim.h"
 276              		.file 19 "drivers/STM32F1xx_HAL_Driver/Inc/stm32f1xx_hal_uart.h"
 277              		.file 20 "src/HAL/adc.h"
 278              		.file 21 "src/HAL/tim.h"
 279              		.file 22 "src/HAL/usart.h"
 280              		.file 23 "src/HAL/spi.h"
 281              		.file 24 "/home/vdykyy/Install/STM-32/gcc-arm-none-eabi-6-2017-q2-update/arm-none-eabi/include/c++
 282              		.file 25 "/home/vdykyy/Install/STM-32/gcc-arm-none-eabi-6-2017-q2-update/arm-none-eabi/include/c++
 283              		.file 26 "/home/vdykyy/Install/STM-32/gcc-arm-none-eabi-6-2017-q2-update/arm-none-eabi/include/c++
 284              		.file 27 "/home/vdykyy/Install/STM-32/gcc-arm-none-eabi-6-2017-q2-update/arm-none-eabi/include/c++
ARM GAS  /tmp/ccDZrId3.s 			page 7


 285              		.file 28 "/home/vdykyy/Install/STM-32/gcc-arm-none-eabi-6-2017-q2-update/arm-none-eabi/include/c++
 286              		.file 29 "/home/vdykyy/Install/STM-32/gcc-arm-none-eabi-6-2017-q2-update/arm-none-eabi/include/c++
 287              		.file 30 "/home/vdykyy/Install/STM-32/gcc-arm-none-eabi-6-2017-q2-update/arm-none-eabi/include/c++
 288              		.file 31 "/home/vdykyy/Install/STM-32/gcc-arm-none-eabi-6-2017-q2-update/arm-none-eabi/include/c++
 289              		.file 32 "/home/vdykyy/Install/STM-32/gcc-arm-none-eabi-6-2017-q2-update/arm-none-eabi/include/c++
 290              		.file 33 "/home/vdykyy/Install/STM-32/gcc-arm-none-eabi-6-2017-q2-update/arm-none-eabi/include/c++
 291              		.file 34 "/home/vdykyy/Install/STM-32/gcc-arm-none-eabi-6-2017-q2-update/arm-none-eabi/include/c++
 292              		.file 35 "/home/vdykyy/Install/STM-32/gcc-arm-none-eabi-6-2017-q2-update/arm-none-eabi/include/c++
 293              		.file 36 "/home/vdykyy/Install/STM-32/gcc-arm-none-eabi-6-2017-q2-update/arm-none-eabi/include/c++
 294              		.file 37 "/home/vdykyy/Install/STM-32/gcc-arm-none-eabi-6-2017-q2-update/arm-none-eabi/include/c++
 295              		.file 38 "/home/vdykyy/Install/STM-32/gcc-arm-none-eabi-6-2017-q2-update/arm-none-eabi/include/c++
 296              		.file 39 "/home/vdykyy/Install/STM-32/gcc-arm-none-eabi-6-2017-q2-update/arm-none-eabi/include/c++
 297              		.file 40 "/home/vdykyy/Install/STM-32/gcc-arm-none-eabi-6-2017-q2-update/arm-none-eabi/include/c++
 298              		.file 41 "/home/vdykyy/Install/STM-32/gcc-arm-none-eabi-6-2017-q2-update/arm-none-eabi/include/c++
 299              		.file 42 "/home/vdykyy/Install/STM-32/gcc-arm-none-eabi-6-2017-q2-update/arm-none-eabi/include/c++
 300              		.file 43 "/home/vdykyy/Install/STM-32/gcc-arm-none-eabi-6-2017-q2-update/arm-none-eabi/include/wch
 301              		.file 44 "/home/vdykyy/Install/STM-32/gcc-arm-none-eabi-6-2017-q2-update/arm-none-eabi/include/loc
 302              		.file 45 "/home/vdykyy/Install/STM-32/gcc-arm-none-eabi-6-2017-q2-update/arm-none-eabi/include/cty
 303              		.file 46 "/home/vdykyy/Install/STM-32/gcc-arm-none-eabi-6-2017-q2-update/arm-none-eabi/include/std
 304              		.file 47 "/home/vdykyy/Install/STM-32/gcc-arm-none-eabi-6-2017-q2-update/arm-none-eabi/include/sys
 305              		.file 48 "src/Impl/internal_types.h"
 306              		.file 49 "src/Impl/timer.h"
 307              		.file 50 "src/Impl/oled_driver.h"
 308              		.file 51 "src/Impl/cardiograph.h"
 309              		.file 52 "drivers/STM32F1xx_HAL_Driver/Inc/stm32f1xx_hal.h"
 310              		.file 53 "src/HAL/sys_conf.h"
 311              		.file 54 "src/HAL/gpio.h"
 312              		.file 55 "src/HAL/dma.h"
ARM GAS  /tmp/ccDZrId3.s 			page 8

