ARM GAS  /tmp/ccDZrId3.s 			page 1


   1              		.cpu cortex-m3
   2              		.eabi_attribute 20, 1
   3              		.eabi_attribute 21, 1
   4              		.eabi_attribute 23, 3
   5              		.eabi_attribute 24, 1
   6              		.eabi_attribute 25, 1
   7              		.eabi_attribute 26, 1
   8              		.eabi_attribute 30, 2
   9              		.eabi_attribute 34, 1
  10              		.eabi_attribute 18, 4
  11              		.file	"main.cpp"
  12              		.text
  13              	.Ltext0:
  14              		.cfi_sections	.debug_frame
  15              		.section	.text.startup.main,"ax",%progbits
  16              		.align	1
  17              		.p2align 2,,3
  18              		.global	main
  19              		.syntax unified
  20              		.thumb
  21              		.thumb_func
  22              		.fpu softvfp
  24              	main:
  25              	.LFB1773:
  26              		.file 1 "src/main.cpp"
   1:src/main.cpp  **** #include "main.h"
   2:src/main.cpp  **** #include "stm32f1xx_hal.h"
   3:src/main.cpp  **** #include "adc.h"
   4:src/main.cpp  **** #include "dma.h"
   5:src/main.cpp  **** #include "tim.h"
   6:src/main.cpp  **** #include "usart.h"
   7:src/main.cpp  **** #include "gpio.h"
   8:src/main.cpp  **** #include "spi.h"
   9:src/main.cpp  **** #include "sys_conf.h"
  10:src/main.cpp  **** #include "cardiograph.h"
  11:src/main.cpp  **** #include "stm32f1xx_hal_rcc.h"
  12:src/main.cpp  **** 
  13:src/main.cpp  **** Cardiograph* cardiograph = nullptr;
  14:src/main.cpp  **** 
  15:src/main.cpp  **** int main(void)
  16:src/main.cpp  **** {
  27              		.loc 1 16 0
  28              		.cfi_startproc
  29              		@ Volatile: function does not return.
  30              		@ args = 0, pretend = 0, frame = 0
  31              		@ frame_needed = 0, uses_anonymous_args = 0
  32 0000 08B5     		push	{r3, lr}
  33              		.cfi_def_cfa_offset 8
  34              		.cfi_offset 3, -8
  35              		.cfi_offset 14, -4
  17:src/main.cpp  **** 
  18:src/main.cpp  ****     HAL_Init();
  36              		.loc 1 18 0
  37 0002 FFF7FEFF 		bl	HAL_Init
  38              	.LVL0:
  19:src/main.cpp  **** 
  20:src/main.cpp  ****     /* Configure the system clock */
ARM GAS  /tmp/ccDZrId3.s 			page 2


  21:src/main.cpp  ****     SystemClock_Config();
  39              		.loc 1 21 0
  40 0006 FFF7FEFF 		bl	SystemClock_Config
  41              	.LVL1:
  22:src/main.cpp  **** 
  23:src/main.cpp  ****     /* Initialize all configured peripherals */
  24:src/main.cpp  ****     MX_GPIO_Init();
  42              		.loc 1 24 0
  43 000a FFF7FEFF 		bl	MX_GPIO_Init
  44              	.LVL2:
  25:src/main.cpp  ****     MX_DMA_Init();
  45              		.loc 1 25 0
  46 000e FFF7FEFF 		bl	MX_DMA_Init
  47              	.LVL3:
  26:src/main.cpp  ****     MX_ADC1_Init();
  48              		.loc 1 26 0
  49 0012 FFF7FEFF 		bl	MX_ADC1_Init
  50              	.LVL4:
  27:src/main.cpp  ****     MX_USART1_UART_Init();
  51              		.loc 1 27 0
  52 0016 FFF7FEFF 		bl	MX_USART1_UART_Init
  53              	.LVL5:
  28:src/main.cpp  ****     MX_SPI1_Init();
  54              		.loc 1 28 0
  55 001a FFF7FEFF 		bl	MX_SPI1_Init
  56              	.LVL6:
  29:src/main.cpp  **** 
  30:src/main.cpp  ****     cardiograph = new Cardiograph();
  57              		.loc 1 30 0
  58 001e 2C20     		movs	r0, #44
  59 0020 FFF7FEFF 		bl	_Znwj
  60              	.LVL7:
  61 0024 0446     		mov	r4, r0
  62 0026 FFF7FEFF 		bl	_ZN11CardiographC1Ev
  63              	.LVL8:
  64 002a 034B     		ldr	r3, .L5
  31:src/main.cpp  ****     cardiograph->init();
  65              		.loc 1 31 0
  66 002c 2046     		mov	r0, r4
  30:src/main.cpp  ****     cardiograph->init();
  67              		.loc 1 30 0
  68 002e 1C60     		str	r4, [r3]
  69              		.loc 1 31 0
  70 0030 FFF7FEFF 		bl	_ZN11Cardiograph4initEv
  71              	.LVL9:
  72              	.L2:
  73 0034 FEE7     		b	.L2
  74              	.L6:
  75 0036 00BF     		.align	2
  76              	.L5:
  77 0038 00000000 		.word	.LANCHOR0
  78              		.cfi_endproc
  79              	.LFE1773:
  81              		.section	.text.HAL_UART_RxCpltCallback,"ax",%progbits
  82              		.align	1
  83              		.p2align 2,,3
  84              		.global	HAL_UART_RxCpltCallback
ARM GAS  /tmp/ccDZrId3.s 			page 3


  85              		.syntax unified
  86              		.thumb
  87              		.thumb_func
  88              		.fpu softvfp
  90              	HAL_UART_RxCpltCallback:
  91              	.LFB1774:
  32:src/main.cpp  **** 
  33:src/main.cpp  **** 
  34:src/main.cpp  ****     //printf("*************\n*************\n-----------\n");
  35:src/main.cpp  ****     while (1)
  36:src/main.cpp  ****     {
  37:src/main.cpp  **** 
  38:src/main.cpp  ****     }
  39:src/main.cpp  **** }
  40:src/main.cpp  **** 
  41:src/main.cpp  **** void HAL_UART_RxCpltCallback(UART_HandleTypeDef *huart)
  42:src/main.cpp  **** {
  92              		.loc 1 42 0
  93              		.cfi_startproc
  94              		@ args = 0, pretend = 0, frame = 0
  95              		@ frame_needed = 0, uses_anonymous_args = 0
  96              		@ link register save eliminated.
  97              	.LVL10:
  43:src/main.cpp  ****     if (cardiograph != nullptr)
  98              		.loc 1 43 0
  99 0000 024B     		ldr	r3, .L9
 100 0002 1868     		ldr	r0, [r3]
 101              	.LVL11:
 102 0004 08B1     		cbz	r0, .L7
  44:src/main.cpp  ****         cardiograph->uartRxHandler();
 103              		.loc 1 44 0
 104 0006 FFF7FEBF 		b	_ZN11Cardiograph13uartRxHandlerEv
 105              	.LVL12:
 106              	.L7:
 107 000a 7047     		bx	lr
 108              	.L10:
 109              		.align	2
 110              	.L9:
 111 000c 00000000 		.word	.LANCHOR0
 112              		.cfi_endproc
 113              	.LFE1774:
 115              		.section	.text.HAL_UART_TxCpltCallback,"ax",%progbits
 116              		.align	1
 117              		.p2align 2,,3
 118              		.global	HAL_UART_TxCpltCallback
 119              		.syntax unified
 120              		.thumb
 121              		.thumb_func
 122              		.fpu softvfp
 124              	HAL_UART_TxCpltCallback:
 125              	.LFB1775:
  45:src/main.cpp  **** }
  46:src/main.cpp  **** 
  47:src/main.cpp  **** void HAL_UART_TxCpltCallback(UART_HandleTypeDef *huart)
  48:src/main.cpp  **** {
 126              		.loc 1 48 0
 127              		.cfi_startproc
ARM GAS  /tmp/ccDZrId3.s 			page 4


 128              		@ args = 0, pretend = 0, frame = 0
 129              		@ frame_needed = 0, uses_anonymous_args = 0
 130              		@ link register save eliminated.
 131              	.LVL13:
  49:src/main.cpp  ****     if (cardiograph != nullptr)
 132              		.loc 1 49 0
 133 0000 024B     		ldr	r3, .L13
 134 0002 1868     		ldr	r0, [r3]
 135              	.LVL14:
 136 0004 08B1     		cbz	r0, .L11
  50:src/main.cpp  ****         cardiograph->uartTxHandler();
 137              		.loc 1 50 0
 138 0006 FFF7FEBF 		b	_ZN11Cardiograph13uartTxHandlerEv
 139              	.LVL15:
 140              	.L11:
 141 000a 7047     		bx	lr
 142              	.L14:
 143              		.align	2
 144              	.L13:
 145 000c 00000000 		.word	.LANCHOR0
 146              		.cfi_endproc
 147              	.LFE1775:
 149              		.section	.text.HAL_TIM_PeriodElapsedCallback,"ax",%progbits
 150              		.align	1
 151              		.p2align 2,,3
 152              		.global	HAL_TIM_PeriodElapsedCallback
 153              		.syntax unified
 154              		.thumb
 155              		.thumb_func
 156              		.fpu softvfp
 158              	HAL_TIM_PeriodElapsedCallback:
 159              	.LFB1776:
  51:src/main.cpp  **** }
  52:src/main.cpp  **** 
  53:src/main.cpp  **** 
  54:src/main.cpp  **** void HAL_TIM_PeriodElapsedCallback(TIM_HandleTypeDef *htim)
  55:src/main.cpp  **** {
 160              		.loc 1 55 0
 161              		.cfi_startproc
 162              		@ args = 0, pretend = 0, frame = 0
 163              		@ frame_needed = 0, uses_anonymous_args = 0
 164              		@ link register save eliminated.
 165              	.LVL16:
  56:src/main.cpp  ****     if (htim->Instance == TIM1)
 166              		.loc 1 56 0
 167 0000 0268     		ldr	r2, [r0]
 168 0002 054B     		ldr	r3, .L21
 169 0004 9A42     		cmp	r2, r3
 170 0006 00D0     		beq	.L20
 171              	.LVL17:
 172              	.L15:
 173 0008 7047     		bx	lr
 174              	.LVL18:
 175              	.L20:
  57:src/main.cpp  ****     {
  58:src/main.cpp  ****         if (cardiograph != nullptr)
 176              		.loc 1 58 0
ARM GAS  /tmp/ccDZrId3.s 			page 5


 177 000a 044B     		ldr	r3, .L21+4
 178 000c 1868     		ldr	r0, [r3]
 179              	.LVL19:
 180 000e 0028     		cmp	r0, #0
 181 0010 FAD0     		beq	.L15
  59:src/main.cpp  ****             cardiograph->timerPeriodElapsedHandler();
 182              		.loc 1 59 0
 183 0012 FFF7FEBF 		b	_ZN11Cardiograph25timerPeriodElapsedHandlerEv
 184              	.LVL20:
 185              	.L22:
 186 0016 00BF     		.align	2
 187              	.L21:
 188 0018 002C0140 		.word	1073818624
 189 001c 00000000 		.word	.LANCHOR0
 190              		.cfi_endproc
 191              	.LFE1776:
 193              		.section	.text.HAL_ADC_ConvCpltCallback,"ax",%progbits
 194              		.align	1
 195              		.p2align 2,,3
 196              		.global	HAL_ADC_ConvCpltCallback
 197              		.syntax unified
 198              		.thumb
 199              		.thumb_func
 200              		.fpu softvfp
 202              	HAL_ADC_ConvCpltCallback:
 203              	.LFB1777:
  60:src/main.cpp  ****     }
  61:src/main.cpp  **** }
  62:src/main.cpp  **** 
  63:src/main.cpp  **** void HAL_ADC_ConvCpltCallback(ADC_HandleTypeDef *hadc)
  64:src/main.cpp  **** {
 204              		.loc 1 64 0
 205              		.cfi_startproc
 206              		@ args = 0, pretend = 0, frame = 0
 207              		@ frame_needed = 0, uses_anonymous_args = 0
 208              		@ link register save eliminated.
 209              	.LVL21:
  65:src/main.cpp  ****     if (cardiograph != nullptr)
 210              		.loc 1 65 0
 211 0000 024B     		ldr	r3, .L25
 212 0002 1868     		ldr	r0, [r3]
 213              	.LVL22:
 214 0004 08B1     		cbz	r0, .L23
  66:src/main.cpp  ****         cardiograph->adcConversionHandler();
 215              		.loc 1 66 0
 216 0006 FFF7FEBF 		b	_ZN11Cardiograph20adcConversionHandlerEv
 217              	.LVL23:
 218              	.L23:
 219 000a 7047     		bx	lr
 220              	.L26:
 221              		.align	2
 222              	.L25:
 223 000c 00000000 		.word	.LANCHOR0
 224              		.cfi_endproc
 225              	.LFE1777:
 227              		.section	.text._Z15SysTick_Handlerv,"ax",%progbits
 228              		.align	1
ARM GAS  /tmp/ccDZrId3.s 			page 6


 229              		.p2align 2,,3
 230              		.global	_Z15SysTick_Handlerv
 231              		.syntax unified
 232              		.thumb
 233              		.thumb_func
 234              		.fpu softvfp
 236              	_Z15SysTick_Handlerv:
 237              	.LFB1778:
  67:src/main.cpp  **** }
  68:src/main.cpp  **** 
  69:src/main.cpp  **** void SysTick_Handler(void)
  70:src/main.cpp  **** {
 238              		.loc 1 70 0
 239              		.cfi_startproc
 240              		@ args = 0, pretend = 0, frame = 0
 241              		@ frame_needed = 0, uses_anonymous_args = 0
 242              		@ link register save eliminated.
  71:src/main.cpp  ****     HAL_IncTick();
 243              		.loc 1 71 0
 244 0000 FFF7FEBF 		b	HAL_IncTick
 245              	.LVL24:
 246              		.cfi_endproc
 247              	.LFE1778:
 249              		.global	cardiograph
 250              		.section	.bss.cardiograph,"aw",%nobits
 251              		.align	2
 252              		.set	.LANCHOR0,. + 0
 255              	cardiograph:
 256 0000 00000000 		.space	4
 257              		.text
 258              	.Letext0:
 259              		.file 2 "/home/vdykyy/Install/STM-32/gcc-arm-none-eabi-6-2017-q2-update/lib/gcc/arm-none-eabi/6.3.
 260              		.file 3 "drivers/CMSIS/Include/core_cm3.h"
 261              		.file 4 "drivers/CMSIS/Device/ST/STM32F1xx/Include/system_stm32f1xx.h"
 262              		.file 5 "drivers/CMSIS/Device/ST/STM32F1xx/Include/stm32f103xb.h"
 263              		.file 6 "/home/vdykyy/Install/STM-32/gcc-arm-none-eabi-6-2017-q2-update/lib/gcc/arm-none-eabi/6.3.
 264              		.file 7 "/home/vdykyy/Install/STM-32/gcc-arm-none-eabi-6-2017-q2-update/lib/gcc/arm-none-eabi/6.3.
 265              		.file 8 "/home/vdykyy/Install/STM-32/gcc-arm-none-eabi-6-2017-q2-update/arm-none-eabi/include/sys/
 266              		.file 9 "/home/vdykyy/Install/STM-32/gcc-arm-none-eabi-6-2017-q2-update/arm-none-eabi/include/sys/
 267              		.file 10 "/home/vdykyy/Install/STM-32/gcc-arm-none-eabi-6-2017-q2-update/arm-none-eabi/include/sys
 268              		.file 11 "<built-in>"
 269              		.file 12 "/home/vdykyy/Install/STM-32/gcc-arm-none-eabi-6-2017-q2-update/arm-none-eabi/include/std
 270              		.file 13 "drivers/STM32F1xx_HAL_Driver/Inc/stm32f1xx_hal_def.h"
 271              		.file 14 "drivers/STM32F1xx_HAL_Driver/Inc/stm32f1xx_hal_gpio.h"
 272              		.file 15 "drivers/STM32F1xx_HAL_Driver/Inc/stm32f1xx_hal_dma.h"
 273              		.file 16 "drivers/STM32F1xx_HAL_Driver/Inc/stm32f1xx_hal_adc.h"
 274              		.file 17 "drivers/STM32F1xx_HAL_Driver/Inc/stm32f1xx_hal_spi.h"
 275              		.file 18 "drivers/STM32F1xx_HAL_Driver/Inc/stm32f1xx_hal_tim.h"
 276              		.file 19 "drivers/STM32F1xx_HAL_Driver/Inc/stm32f1xx_hal_uart.h"
 277              		.file 20 "src/HAL/adc.h"
 278              		.file 21 "src/HAL/tim.h"
 279              		.file 22 "src/HAL/usart.h"
 280              		.file 23 "src/HAL/spi.h"
 281              		.file 24 "/home/vdykyy/Install/STM-32/gcc-arm-none-eabi-6-2017-q2-update/arm-none-eabi/include/c++
 282              		.file 25 "/home/vdykyy/Install/STM-32/gcc-arm-none-eabi-6-2017-q2-update/arm-none-eabi/include/c++
 283              		.file 26 "/home/vdykyy/Install/STM-32/gcc-arm-none-eabi-6-2017-q2-update/arm-none-eabi/include/c++
 284              		.file 27 "/home/vdykyy/Install/STM-32/gcc-arm-none-eabi-6-2017-q2-update/arm-none-eabi/include/c++
ARM GAS  /tmp/ccDZrId3.s 			page 7


 285              		.file 28 "/home/vdykyy/Install/STM-32/gcc-arm-none-eabi-6-2017-q2-update/arm-none-eabi/include/c++
 286              		.file 29 "/home/vdykyy/Install/STM-32/gcc-arm-none-eabi-6-2017-q2-update/arm-none-eabi/include/c++
 287              		.file 30 "/home/vdykyy/Install/STM-32/gcc-arm-none-eabi-6-2017-q2-update/arm-none-eabi/include/c++
 288              		.file 31 "/home/vdykyy/Install/STM-32/gcc-arm-none-eabi-6-2017-q2-update/arm-none-eabi/include/c++
 289              		.file 32 "/home/vdykyy/Install/STM-32/gcc-arm-none-eabi-6-2017-q2-update/arm-none-eabi/include/c++
 290              		.file 33 "/home/vdykyy/Install/STM-32/gcc-arm-none-eabi-6-2017-q2-update/arm-none-eabi/include/c++
 291              		.file 34 "/home/vdykyy/Install/STM-32/gcc-arm-none-eabi-6-2017-q2-update/arm-none-eabi/include/c++
 292              		.file 35 "/home/vdykyy/Install/STM-32/gcc-arm-none-eabi-6-2017-q2-update/arm-none-eabi/include/c++
 293              		.file 36 "/home/vdykyy/Install/STM-32/gcc-arm-none-eabi-6-2017-q2-update/arm-none-eabi/include/c++
 294              		.file 37 "/home/vdykyy/Install/STM-32/gcc-arm-none-eabi-6-2017-q2-update/arm-none-eabi/include/c++
 295              		.file 38 "/home/vdykyy/Install/STM-32/gcc-arm-none-eabi-6-2017-q2-update/arm-none-eabi/include/c++
 296              		.file 39 "/home/vdykyy/Install/STM-32/gcc-arm-none-eabi-6-2017-q2-update/arm-none-eabi/include/c++
 297              		.file 40 "/home/vdykyy/Install/STM-32/gcc-arm-none-eabi-6-2017-q2-update/arm-none-eabi/include/c++
 298              		.file 41 "/home/vdykyy/Install/STM-32/gcc-arm-none-eabi-6-2017-q2-update/arm-none-eabi/include/c++
 299              		.file 42 "/home/vdykyy/Install/STM-32/gcc-arm-none-eabi-6-2017-q2-update/arm-none-eabi/include/c++
 300              		.file 43 "/home/vdykyy/Install/STM-32/gcc-arm-none-eabi-6-2017-q2-update/arm-none-eabi/include/wch
 301              		.file 44 "/home/vdykyy/Install/STM-32/gcc-arm-none-eabi-6-2017-q2-update/arm-none-eabi/include/loc
 302              		.file 45 "/home/vdykyy/Install/STM-32/gcc-arm-none-eabi-6-2017-q2-update/arm-none-eabi/include/cty
 303              		.file 46 "/home/vdykyy/Install/STM-32/gcc-arm-none-eabi-6-2017-q2-update/arm-none-eabi/include/std
 304              		.file 47 "/home/vdykyy/Install/STM-32/gcc-arm-none-eabi-6-2017-q2-update/arm-none-eabi/include/sys
 305              		.file 48 "src/Impl/internal_types.h"
 306              		.file 49 "src/Impl/timer.h"
 307              		.file 50 "src/Impl/oled_driver.h"
 308              		.file 51 "src/Impl/cardiograph.h"
 309              		.file 52 "drivers/STM32F1xx_HAL_Driver/Inc/stm32f1xx_hal.h"
 310              		.file 53 "src/HAL/sys_conf.h"
 311              		.file 54 "src/HAL/gpio.h"
 312              		.file 55 "src/HAL/dma.h"
ARM GAS  /tmp/ccDZrId3.s 			page 8


DEFINED SYMBOLS
                            *ABS*:0000000000000000 main.cpp
     /tmp/ccDZrId3.s:16     .text.startup.main:0000000000000000 $t
     /tmp/ccDZrId3.s:24     .text.startup.main:0000000000000000 main
     /tmp/ccDZrId3.s:77     .text.startup.main:0000000000000038 $d
     /tmp/ccDZrId3.s:82     .text.HAL_UART_RxCpltCallback:0000000000000000 $t
     /tmp/ccDZrId3.s:90     .text.HAL_UART_RxCpltCallback:0000000000000000 HAL_UART_RxCpltCallback
     /tmp/ccDZrId3.s:111    .text.HAL_UART_RxCpltCallback:000000000000000c $d
     /tmp/ccDZrId3.s:116    .text.HAL_UART_TxCpltCallback:0000000000000000 $t
     /tmp/ccDZrId3.s:124    .text.HAL_UART_TxCpltCallback:0000000000000000 HAL_UART_TxCpltCallback
     /tmp/ccDZrId3.s:145    .text.HAL_UART_TxCpltCallback:000000000000000c $d
     /tmp/ccDZrId3.s:150    .text.HAL_TIM_PeriodElapsedCallback:0000000000000000 $t
     /tmp/ccDZrId3.s:158    .text.HAL_TIM_PeriodElapsedCallback:0000000000000000 HAL_TIM_PeriodElapsedCallback
     /tmp/ccDZrId3.s:188    .text.HAL_TIM_PeriodElapsedCallback:0000000000000018 $d
     /tmp/ccDZrId3.s:194    .text.HAL_ADC_ConvCpltCallback:0000000000000000 $t
     /tmp/ccDZrId3.s:202    .text.HAL_ADC_ConvCpltCallback:0000000000000000 HAL_ADC_ConvCpltCallback
     /tmp/ccDZrId3.s:223    .text.HAL_ADC_ConvCpltCallback:000000000000000c $d
     /tmp/ccDZrId3.s:228    .text._Z15SysTick_Handlerv:0000000000000000 $t
     /tmp/ccDZrId3.s:236    .text._Z15SysTick_Handlerv:0000000000000000 _Z15SysTick_Handlerv
     /tmp/ccDZrId3.s:255    .bss.cardiograph:0000000000000000 cardiograph
     /tmp/ccDZrId3.s:251    .bss.cardiograph:0000000000000000 $d
                     .debug_frame:0000000000000010 $d
                           .group:0000000000000000 wm4.0.a61368914fa3edc7c0e5283a5c096c94
                           .group:0000000000000000 wm4.main.h.40.6fe808b6568aa38f66585b648d7167ef
                           .group:0000000000000000 wm4.stm32f1xx_hal_conf.h.52.96cb61986c8bfeb3a4fa629a7a7441f6
                           .group:0000000000000000 wm4.stm32f1xx.h.57.c2a10934f4c6830aeb7e4997f02806f1
                           .group:0000000000000000 wm4.stm32f103xb.h.56.66305a77cea9d5300aac997a78930076
                           .group:0000000000000000 wm4.stdintgcc.h.29.6d480f4ba0f60596e88234283d42444f
                           .group:0000000000000000 wm4.core_cm3.h.74.7d5fecd6d4522d755d10a23d1542f805
                           .group:0000000000000000 wm4.cmsis_gcc.h.36.67d2dcde6a14ff518eedc1d545d89a76
                           .group:0000000000000000 wm4.core_cm3.h.175.d7cd6dade235c83ca1d82d6b92541a74
                           .group:0000000000000000 wm4.stm32f103xb.h.619.382b3c85cac6f0350ee5bfaff32e1ebc
                           .group:0000000000000000 wm4.stm32f1xx.h.180.c0013e6ebd6ad07f67c298190b8eac92
                           .group:0000000000000000 wm4._newlib_version.h.4.3572908597b70d672d181fc7fc501c19
                           .group:0000000000000000 wm4.newlib.h.21.59901f4bf241ab46c63694665baa7297
                           .group:0000000000000000 wm4.features.h.22.5cdadbb3efe495d1c9e38350b8c376c7
                           .group:0000000000000000 wm4.config.h.219.65a553ab5bef5482f0d7880b0d33015e
                           .group:0000000000000000 wm4._ansi.h.23.1ee1144430bedaab1a14c7b57a6c8384
                           .group:0000000000000000 wm4.stdio.h.31.7c0e28c411445f3f9c5b11accf882760
                           .group:0000000000000000 wm4._default_types.h.6.959254cf5f09734ea7516c89e8bb21bd
                           .group:0000000000000000 wm4.stddef.h.187.422da5f95ac1285e95faf42258f23242
                           .group:0000000000000000 wm4.cdefs.h.47.9bc8274c84fddbf05edd550eb0bf48cd
                           .group:0000000000000000 wm4.stddef.h.39.f3921369feb94d56be5cea128eb7b96e
                           .group:0000000000000000 wm4.stdarg.h.34.3a23a216c0c293b3d2ea2e89281481e6
                           .group:0000000000000000 wm4.lock.h.2.1461d1fff82dffe8bfddc23307f6484f
                           .group:0000000000000000 wm4._types.h.125.5cf8a495f1f7ef36777ad868a1e32068
                           .group:0000000000000000 wm4.stddef.h.161.7e98c9c86da0ed2d27af2ef92af7d013
                           .group:0000000000000000 wm4._types.h.183.c226d164ceca1f2ecb9ae9360c54a098
                           .group:0000000000000000 wm4.reent.h.17.23b059516345f8f5abfa01ddc379570f
                           .group:0000000000000000 wm4.types.h.40.e8c16e7ec36ba55f133d0616070e25fc
                           .group:0000000000000000 wm4._stdint.h.10.c24fa3af3bc1706662bb5593a907e841
                           .group:0000000000000000 wm4._endian.h.31.65a10590763c3dde1ac4a7f66d7d4891
                           .group:0000000000000000 wm4.endian.h.9.49f3a4695c1b61e8a0808de3c4a106cb
                           .group:0000000000000000 wm4._timeval.h.30.0e8bfd94e85db17dda3286ee81496fe6
                           .group:0000000000000000 wm4.timespec.h.41.d855182eb0e690443ab8651bcedca6e1
                           .group:0000000000000000 wm4.select.h.30.bbece7fa40993a78092dcc5805132560
                           .group:0000000000000000 wm4.types.h.69.ed3eae3cf73030a737515151ebcab7a1
ARM GAS  /tmp/ccDZrId3.s 			page 9


                           .group:0000000000000000 wm4.stdio.h.2.4aa87247282eca6c8f36f9de33d8df1a
                           .group:0000000000000000 wm4.stdio.h.81.8188691c2279eac7a223caa50f6694b9
                           .group:0000000000000000 wm4.stm32f1xx_hal_def.h.77.f54bfbbe3e3696aae97b05a3f338caf7
                           .group:0000000000000000 wm4.stm32f1xx_hal_rcc.h.112.09261d6ad0eef5abae6b9147d0cf5cbf
                           .group:0000000000000000 wm4.stm32f1xx_hal_rcc_ex.h.40.bb785d717afc4d2d2b63a3608cb5a0c5
                           .group:0000000000000000 wm4.stm32f1xx_hal_rcc.h.1219.902328474751456408f7d18f6caace93
                           .group:0000000000000000 wm4.stm32f1xx_hal_gpio.h.40.f1cf5d2dd589e1675a9fcd6b008c2bb6
                           .group:0000000000000000 wm4.stm32f1xx_hal_gpio_ex.h.40.30d74584c89dcd3d86d10bdbbb06cc31
                           .group:0000000000000000 wm4.stm32f1xx_hal_gpio.h.281.b26a95114b989e6edaf48d72c8710b9d
                           .group:0000000000000000 wm4.stm32f1xx_hal_dma.h.40.b1d5b41c58b583c31c61335e4c8e1bdd
                           .group:0000000000000000 wm4.stm32f1xx_hal_dma_ex.h.40.7ac05bbf95f5a25a3f4a9b9c2a14f835
                           .group:0000000000000000 wm4.stm32f1xx_hal_dma.h.427.daddf65c60854feb2dc9660a62f55b8c
                           .group:0000000000000000 wm4.stm32f1xx_hal_cortex.h.40.4f649a8bf316b7aa5d02077abd9b8999
                           .group:0000000000000000 wm4.stm32f1xx_hal_adc.h.40.3ad40e622f0cef64228eb182e4bbe00f
                           .group:0000000000000000 wm4.stm32f1xx_hal_adc_ex.h.40.3118796521817cc82626257e9c7ab79c
                           .group:0000000000000000 wm4.stm32f1xx_hal_flash.h.40.12aaef98e1fbb85e3a8f79f98532d04a
                           .group:0000000000000000 wm4.stm32f1xx_hal_flash_ex.h.40.ad66c77e153bc5a4a1d60e46727f4ae5
                           .group:0000000000000000 wm4.stm32f1xx_hal_pwr.h.40.ecccf9071314b0ab3f6ffcfd7c596e95
                           .group:0000000000000000 wm4.stm32f1xx_hal_spi.h.40.5dd367ee94b0bb430a3842862fe7d7da
                           .group:0000000000000000 wm4.stm32f1xx_hal_tim.h.40.ac3feb225ff72b119eeddfe8acac07a3
                           .group:0000000000000000 wm4.stm32f1xx_hal_tim_ex.h.40.9b926a51c24898708ad2e47fd5ff9d32
                           .group:0000000000000000 wm4.stm32f1xx_hal_uart.h.40.9914ca79b81d8b23b4e5425c156b0acd
                           .group:0000000000000000 wm4.stm32f1xx_hal.h.82.f2fd9c01c6f8c9e676a37d84eb9dc553
                           .group:0000000000000000 wm4.cconfig.h.31.26800e7737adfbebc8022e055efd14f3
                           .group:0000000000000000 wm4.cpu_defines.h.31.bf53b50a3b7882b34c717ebded187478
                           .group:0000000000000000 wm4.cconfig.h.515.5e729db314ae74226e291b4ae081e353
                           .group:0000000000000000 wm4.exception_defines.h.31.b944334bb23842f2d39bb0d8b467613a
                           .group:0000000000000000 wm4.cpp_type_traits.h.33.9f2bfd8c4471a9a299f6da3ec24c745c
                           .group:0000000000000000 wm4.numeric_traits.h.30.aa01a98564b7e55086aad9e53c7e5c53
                           .group:0000000000000000 wm4.concept_check.h.31.f19605d278e56917c68a56d378be308c
                           .group:0000000000000000 wm4.type_traits.30.e36453f87b820f8c5d2743e7313ad763
                           .group:0000000000000000 wm4.move.h.152.41d7b9e6779674d169b7813982cfa003
                           .group:0000000000000000 wm4.assertions.h.30.51d443923f0d242550e04246a7819b39
                           .group:0000000000000000 wm4.stl_iterator.h.1250.45f349a262f1b0d836d8edbc4b7b98ff
                           .group:0000000000000000 wm4.debug.h.30.5c1f223b12199e851d4d42805b788ccf
                           .group:0000000000000000 wm4.stl_algobase.h.491.aa250b69c90aafa2a0a62b8c58cd5f30
                           .group:0000000000000000 wm4.atomic_lockfree_defines.h.31.d5c6334fb1e95c9462b052951f1411df
                           .group:0000000000000000 wm4.allocator.h.52.0ceafb36dc1b82dbfa6b05003082e3f5
                           .group:0000000000000000 wm4.alloc_traits.h.31.c41c7c4789404962122a4e991dfa3abf
                           .group:0000000000000000 wm4.wchar.h.2.f837619576d797e948eb58c44fac4678
                           .group:0000000000000000 wm4.stddef.h.161.9f48187563b2a85291a91832aa425498
                           .group:0000000000000000 wm4.wchar.h.85.2dade3bd756ac8674ed46ca1e448082a
                           .group:0000000000000000 wm4.cwchar.48.c4e882638bf84f6da89479dda6fe8e17
                           .group:0000000000000000 wm4.locale.h.8.27d0fe4c0abbb6f8893a1fa7c1799fd9
                           .group:0000000000000000 wm4.stddef.h.161.38688f2eb958a8ed58fdb61ffe554c94
                           .group:0000000000000000 wm4.locale.h.16.90d16f662e7119f5b192650a45179c6c
                           .group:0000000000000000 wm4.clocale.45.c36d2d5b631a875aa5273176b54fdf0f
                           .group:0000000000000000 wm4.ctype.h.2.cf64fe4c5e8c0ac0f52f1143312d4909
                           .group:0000000000000000 wm4.cctype.45.0da5714876b0be7f2d816b53d9670403
                           .group:0000000000000000 wm4.gthr.h.27.ceb1c66b926f052afcba57e8784df0d4
                           .group:0000000000000000 wm4.gthrdefault.h.27.edc94d4398c0534988962be77dc3c2e1
                           .group:0000000000000000 wm4.atomic_word.h.30.9e0ac69fd462d5e650933e05133b4afa
                           .group:0000000000000000 wm4.cstdlib.44.52c5efdfb0f3c176bd11e611a0b94959
                           .group:0000000000000000 wm4.stdlib.h.13.4ed386f5c1a80d71e72172885d946ef2
                           .group:0000000000000000 wm4.alloca.h.8.dfc0c703c47ec3e69746825b17d9e66d
                           .group:0000000000000000 wm4.stdlib.h.56.d4493cd3736e51e9d56335045f26df45
                           .group:0000000000000000 wm4.cstdlib.76.ae666499c8f9b0ace1b4b23fe143da2c
ARM GAS  /tmp/ccDZrId3.s 			page 10


                           .group:0000000000000000 wm4.cstdio.45.ba8d321feb18bfc8923454067605c368
                           .group:0000000000000000 wm4.errno.h.2.ba016d646105af6cad23be83630b6a3f
                           .group:0000000000000000 wm4.errno.h.9.1ecd7b1049497a0ab61da0f6cbd4b0c6
                           .group:0000000000000000 wm4.functional_hash.h.98.3bf7680ffcc8d24d09fa83ac1339c79d
                           .group:0000000000000000 wm4.typeinfo.30.04014f5b1b4fb021c5662653bc27c750
                           .group:0000000000000000 wm4.functional.549.0bc5b448cf999863d3841495cd6fe920
                           .group:0000000000000000 wm4.oled_driver.h.11.acf278f082752b2ed8ba23ec4648c16a

UNDEFINED SYMBOLS
HAL_Init
SystemClock_Config
MX_GPIO_Init
MX_DMA_Init
MX_ADC1_Init
MX_USART1_UART_Init
MX_SPI1_Init
_Znwj
_ZN11CardiographC1Ev
_ZN11Cardiograph4initEv
_ZN11Cardiograph13uartRxHandlerEv
_ZN11Cardiograph13uartTxHandlerEv
_ZN11Cardiograph25timerPeriodElapsedHandlerEv
_ZN11Cardiograph20adcConversionHandlerEv
HAL_IncTick
