ARM GAS  /tmp/ccOtixHI.s 			page 1


   1              		.cpu cortex-m3
   2              		.eabi_attribute 20, 1
   3              		.eabi_attribute 21, 1
   4              		.eabi_attribute 23, 3
   5              		.eabi_attribute 24, 1
   6              		.eabi_attribute 25, 1
   7              		.eabi_attribute 26, 1
   8              		.eabi_attribute 30, 2
   9              		.eabi_attribute 34, 1
  10              		.eabi_attribute 18, 4
  11              		.file	"stm32f1xx_hal_rcc.c"
  12              		.text
  13              	.Ltext0:
  14              		.cfi_sections	.debug_frame
  15              		.section	.text.HAL_RCC_DeInit,"ax",%progbits
  16              		.align	1
  17              		.p2align 2,,3
  18              		.global	HAL_RCC_DeInit
  19              		.syntax unified
  20              		.thumb
  21              		.thumb_func
  22              		.fpu softvfp
  24              	HAL_RCC_DeInit:
  25              	.LFB64:
  26              		.file 1 "drivers/STM32F1xx_HAL_Driver/Src/stm32f1xx_hal_rcc.c"
   1:drivers/STM32F1xx_HAL_Driver/Src/stm32f1xx_hal_rcc.c **** /**
   2:drivers/STM32F1xx_HAL_Driver/Src/stm32f1xx_hal_rcc.c ****   ******************************************************************************
   3:drivers/STM32F1xx_HAL_Driver/Src/stm32f1xx_hal_rcc.c ****   * @file    stm32f1xx_hal_rcc.c
   4:drivers/STM32F1xx_HAL_Driver/Src/stm32f1xx_hal_rcc.c ****   * @author  MCD Application Team
   5:drivers/STM32F1xx_HAL_Driver/Src/stm32f1xx_hal_rcc.c ****   * @version V1.1.1
   6:drivers/STM32F1xx_HAL_Driver/Src/stm32f1xx_hal_rcc.c ****   * @date    12-May-2017
   7:drivers/STM32F1xx_HAL_Driver/Src/stm32f1xx_hal_rcc.c ****   * @brief   RCC HAL module driver.
   8:drivers/STM32F1xx_HAL_Driver/Src/stm32f1xx_hal_rcc.c ****   *          This file provides firmware functions to manage the following 
   9:drivers/STM32F1xx_HAL_Driver/Src/stm32f1xx_hal_rcc.c ****   *          functionalities of the Reset and Clock Control (RCC) peripheral:
  10:drivers/STM32F1xx_HAL_Driver/Src/stm32f1xx_hal_rcc.c ****   *           + Initialization and de-initialization functions
  11:drivers/STM32F1xx_HAL_Driver/Src/stm32f1xx_hal_rcc.c ****   *           + Peripheral Control functions
  12:drivers/STM32F1xx_HAL_Driver/Src/stm32f1xx_hal_rcc.c ****   *       
  13:drivers/STM32F1xx_HAL_Driver/Src/stm32f1xx_hal_rcc.c ****   @verbatim                
  14:drivers/STM32F1xx_HAL_Driver/Src/stm32f1xx_hal_rcc.c ****   ==============================================================================
  15:drivers/STM32F1xx_HAL_Driver/Src/stm32f1xx_hal_rcc.c ****                       ##### RCC specific features #####
  16:drivers/STM32F1xx_HAL_Driver/Src/stm32f1xx_hal_rcc.c ****   ==============================================================================
  17:drivers/STM32F1xx_HAL_Driver/Src/stm32f1xx_hal_rcc.c ****     [..]  
  18:drivers/STM32F1xx_HAL_Driver/Src/stm32f1xx_hal_rcc.c ****       After reset the device is running from Internal High Speed oscillator
  19:drivers/STM32F1xx_HAL_Driver/Src/stm32f1xx_hal_rcc.c ****       (HSI 8MHz) with Flash 0 wait state, Flash prefetch buffer is enabled, 
  20:drivers/STM32F1xx_HAL_Driver/Src/stm32f1xx_hal_rcc.c ****       and all peripherals are off except internal SRAM, Flash and JTAG.
  21:drivers/STM32F1xx_HAL_Driver/Src/stm32f1xx_hal_rcc.c ****       (+) There is no prescaler on High speed (AHB) and Low speed (APB) buses;
  22:drivers/STM32F1xx_HAL_Driver/Src/stm32f1xx_hal_rcc.c ****           all peripherals mapped on these buses are running at HSI speed.
  23:drivers/STM32F1xx_HAL_Driver/Src/stm32f1xx_hal_rcc.c ****       (+) The clock for all peripherals is switched off, except the SRAM and FLASH.
  24:drivers/STM32F1xx_HAL_Driver/Src/stm32f1xx_hal_rcc.c ****       (+) All GPIOs are in input floating state, except the JTAG pins which
  25:drivers/STM32F1xx_HAL_Driver/Src/stm32f1xx_hal_rcc.c ****           are assigned to be used for debug purpose.
  26:drivers/STM32F1xx_HAL_Driver/Src/stm32f1xx_hal_rcc.c ****     [..] Once the device started from reset, the user application has to:
  27:drivers/STM32F1xx_HAL_Driver/Src/stm32f1xx_hal_rcc.c ****       (+) Configure the clock source to be used to drive the System clock
  28:drivers/STM32F1xx_HAL_Driver/Src/stm32f1xx_hal_rcc.c ****           (if the application needs higher frequency/performance)
  29:drivers/STM32F1xx_HAL_Driver/Src/stm32f1xx_hal_rcc.c ****       (+) Configure the System clock frequency and Flash settings  
  30:drivers/STM32F1xx_HAL_Driver/Src/stm32f1xx_hal_rcc.c ****       (+) Configure the AHB and APB buses prescalers
  31:drivers/STM32F1xx_HAL_Driver/Src/stm32f1xx_hal_rcc.c ****       (+) Enable the clock for the peripheral(s) to be used
  32:drivers/STM32F1xx_HAL_Driver/Src/stm32f1xx_hal_rcc.c ****       (+) Configure the clock source(s) for peripherals whose clocks are not
ARM GAS  /tmp/ccOtixHI.s 			page 2


  33:drivers/STM32F1xx_HAL_Driver/Src/stm32f1xx_hal_rcc.c ****           derived from the System clock (I2S, RTC, ADC, USB OTG FS) 
  34:drivers/STM32F1xx_HAL_Driver/Src/stm32f1xx_hal_rcc.c **** 
  35:drivers/STM32F1xx_HAL_Driver/Src/stm32f1xx_hal_rcc.c ****                       ##### RCC Limitations #####
  36:drivers/STM32F1xx_HAL_Driver/Src/stm32f1xx_hal_rcc.c ****   ==============================================================================
  37:drivers/STM32F1xx_HAL_Driver/Src/stm32f1xx_hal_rcc.c ****     [..]  
  38:drivers/STM32F1xx_HAL_Driver/Src/stm32f1xx_hal_rcc.c ****       A delay between an RCC peripheral clock enable and the effective peripheral 
  39:drivers/STM32F1xx_HAL_Driver/Src/stm32f1xx_hal_rcc.c ****       enabling should be taken into account in order to manage the peripheral read/write 
  40:drivers/STM32F1xx_HAL_Driver/Src/stm32f1xx_hal_rcc.c ****       from/to registers.
  41:drivers/STM32F1xx_HAL_Driver/Src/stm32f1xx_hal_rcc.c ****       (+) This delay depends on the peripheral mapping.
  42:drivers/STM32F1xx_HAL_Driver/Src/stm32f1xx_hal_rcc.c ****         (++) AHB & APB peripherals, 1 dummy read is necessary
  43:drivers/STM32F1xx_HAL_Driver/Src/stm32f1xx_hal_rcc.c **** 
  44:drivers/STM32F1xx_HAL_Driver/Src/stm32f1xx_hal_rcc.c ****     [..]  
  45:drivers/STM32F1xx_HAL_Driver/Src/stm32f1xx_hal_rcc.c ****       Workarounds:
  46:drivers/STM32F1xx_HAL_Driver/Src/stm32f1xx_hal_rcc.c ****       (#) For AHB & APB peripherals, a dummy read to the peripheral register has been
  47:drivers/STM32F1xx_HAL_Driver/Src/stm32f1xx_hal_rcc.c ****           inserted in each __HAL_RCC_PPP_CLK_ENABLE() macro.
  48:drivers/STM32F1xx_HAL_Driver/Src/stm32f1xx_hal_rcc.c **** 
  49:drivers/STM32F1xx_HAL_Driver/Src/stm32f1xx_hal_rcc.c ****   @endverbatim
  50:drivers/STM32F1xx_HAL_Driver/Src/stm32f1xx_hal_rcc.c ****   ******************************************************************************
  51:drivers/STM32F1xx_HAL_Driver/Src/stm32f1xx_hal_rcc.c ****   * @attention
  52:drivers/STM32F1xx_HAL_Driver/Src/stm32f1xx_hal_rcc.c ****   *
  53:drivers/STM32F1xx_HAL_Driver/Src/stm32f1xx_hal_rcc.c ****   * <h2><center>&copy; COPYRIGHT(c) 2016 STMicroelectronics</center></h2>
  54:drivers/STM32F1xx_HAL_Driver/Src/stm32f1xx_hal_rcc.c ****   *
  55:drivers/STM32F1xx_HAL_Driver/Src/stm32f1xx_hal_rcc.c ****   * Redistribution and use in source and binary forms, with or without modification,
  56:drivers/STM32F1xx_HAL_Driver/Src/stm32f1xx_hal_rcc.c ****   * are permitted provided that the following conditions are met:
  57:drivers/STM32F1xx_HAL_Driver/Src/stm32f1xx_hal_rcc.c ****   *   1. Redistributions of source code must retain the above copyright notice,
  58:drivers/STM32F1xx_HAL_Driver/Src/stm32f1xx_hal_rcc.c ****   *      this list of conditions and the following disclaimer.
  59:drivers/STM32F1xx_HAL_Driver/Src/stm32f1xx_hal_rcc.c ****   *   2. Redistributions in binary form must reproduce the above copyright notice,
  60:drivers/STM32F1xx_HAL_Driver/Src/stm32f1xx_hal_rcc.c ****   *      this list of conditions and the following disclaimer in the documentation
  61:drivers/STM32F1xx_HAL_Driver/Src/stm32f1xx_hal_rcc.c ****   *      and/or other materials provided with the distribution.
  62:drivers/STM32F1xx_HAL_Driver/Src/stm32f1xx_hal_rcc.c ****   *   3. Neither the name of STMicroelectronics nor the names of its contributors
  63:drivers/STM32F1xx_HAL_Driver/Src/stm32f1xx_hal_rcc.c ****   *      may be used to endorse or promote products derived from this software
  64:drivers/STM32F1xx_HAL_Driver/Src/stm32f1xx_hal_rcc.c ****   *      without specific prior written permission.
  65:drivers/STM32F1xx_HAL_Driver/Src/stm32f1xx_hal_rcc.c ****   *
  66:drivers/STM32F1xx_HAL_Driver/Src/stm32f1xx_hal_rcc.c ****   * THIS SOFTWARE IS PROVIDED BY THE COPYRIGHT HOLDERS AND CONTRIBUTORS "AS IS"
  67:drivers/STM32F1xx_HAL_Driver/Src/stm32f1xx_hal_rcc.c ****   * AND ANY EXPRESS OR IMPLIED WARRANTIES, INCLUDING, BUT NOT LIMITED TO, THE
  68:drivers/STM32F1xx_HAL_Driver/Src/stm32f1xx_hal_rcc.c ****   * IMPLIED WARRANTIES OF MERCHANTABILITY AND FITNESS FOR A PARTICULAR PURPOSE ARE
  69:drivers/STM32F1xx_HAL_Driver/Src/stm32f1xx_hal_rcc.c ****   * DISCLAIMED. IN NO EVENT SHALL THE COPYRIGHT HOLDER OR CONTRIBUTORS BE LIABLE
  70:drivers/STM32F1xx_HAL_Driver/Src/stm32f1xx_hal_rcc.c ****   * FOR ANY DIRECT, INDIRECT, INCIDENTAL, SPECIAL, EXEMPLARY, OR CONSEQUENTIAL
  71:drivers/STM32F1xx_HAL_Driver/Src/stm32f1xx_hal_rcc.c ****   * DAMAGES (INCLUDING, BUT NOT LIMITED TO, PROCUREMENT OF SUBSTITUTE GOODS OR
  72:drivers/STM32F1xx_HAL_Driver/Src/stm32f1xx_hal_rcc.c ****   * SERVICES; LOSS OF USE, DATA, OR PROFITS; OR BUSINESS INTERRUPTION) HOWEVER
  73:drivers/STM32F1xx_HAL_Driver/Src/stm32f1xx_hal_rcc.c ****   * CAUSED AND ON ANY THEORY OF LIABILITY, WHETHER IN CONTRACT, STRICT LIABILITY,
  74:drivers/STM32F1xx_HAL_Driver/Src/stm32f1xx_hal_rcc.c ****   * OR TORT (INCLUDING NEGLIGENCE OR OTHERWISE) ARISING IN ANY WAY OUT OF THE USE
  75:drivers/STM32F1xx_HAL_Driver/Src/stm32f1xx_hal_rcc.c ****   * OF THIS SOFTWARE, EVEN IF ADVISED OF THE POSSIBILITY OF SUCH DAMAGE.
  76:drivers/STM32F1xx_HAL_Driver/Src/stm32f1xx_hal_rcc.c ****   *
  77:drivers/STM32F1xx_HAL_Driver/Src/stm32f1xx_hal_rcc.c ****   ******************************************************************************  
  78:drivers/STM32F1xx_HAL_Driver/Src/stm32f1xx_hal_rcc.c **** */
  79:drivers/STM32F1xx_HAL_Driver/Src/stm32f1xx_hal_rcc.c ****   
  80:drivers/STM32F1xx_HAL_Driver/Src/stm32f1xx_hal_rcc.c **** /* Includes ------------------------------------------------------------------*/
  81:drivers/STM32F1xx_HAL_Driver/Src/stm32f1xx_hal_rcc.c **** #include "stm32f1xx_hal.h"
  82:drivers/STM32F1xx_HAL_Driver/Src/stm32f1xx_hal_rcc.c **** 
  83:drivers/STM32F1xx_HAL_Driver/Src/stm32f1xx_hal_rcc.c **** /** @addtogroup STM32F1xx_HAL_Driver
  84:drivers/STM32F1xx_HAL_Driver/Src/stm32f1xx_hal_rcc.c ****   * @{
  85:drivers/STM32F1xx_HAL_Driver/Src/stm32f1xx_hal_rcc.c ****   */
  86:drivers/STM32F1xx_HAL_Driver/Src/stm32f1xx_hal_rcc.c **** 
  87:drivers/STM32F1xx_HAL_Driver/Src/stm32f1xx_hal_rcc.c **** /** @defgroup RCC RCC
  88:drivers/STM32F1xx_HAL_Driver/Src/stm32f1xx_hal_rcc.c **** * @brief RCC HAL module driver
  89:drivers/STM32F1xx_HAL_Driver/Src/stm32f1xx_hal_rcc.c ****   * @{
ARM GAS  /tmp/ccOtixHI.s 			page 3


  90:drivers/STM32F1xx_HAL_Driver/Src/stm32f1xx_hal_rcc.c ****   */
  91:drivers/STM32F1xx_HAL_Driver/Src/stm32f1xx_hal_rcc.c **** 
  92:drivers/STM32F1xx_HAL_Driver/Src/stm32f1xx_hal_rcc.c **** #ifdef HAL_RCC_MODULE_ENABLED
  93:drivers/STM32F1xx_HAL_Driver/Src/stm32f1xx_hal_rcc.c **** 
  94:drivers/STM32F1xx_HAL_Driver/Src/stm32f1xx_hal_rcc.c **** /* Private typedef -----------------------------------------------------------*/
  95:drivers/STM32F1xx_HAL_Driver/Src/stm32f1xx_hal_rcc.c **** /* Private define ------------------------------------------------------------*/
  96:drivers/STM32F1xx_HAL_Driver/Src/stm32f1xx_hal_rcc.c **** /** @defgroup RCC_Private_Constants RCC Private Constants
  97:drivers/STM32F1xx_HAL_Driver/Src/stm32f1xx_hal_rcc.c ****  * @{
  98:drivers/STM32F1xx_HAL_Driver/Src/stm32f1xx_hal_rcc.c ****  */
  99:drivers/STM32F1xx_HAL_Driver/Src/stm32f1xx_hal_rcc.c **** /**
 100:drivers/STM32F1xx_HAL_Driver/Src/stm32f1xx_hal_rcc.c ****   * @}
 101:drivers/STM32F1xx_HAL_Driver/Src/stm32f1xx_hal_rcc.c ****   */
 102:drivers/STM32F1xx_HAL_Driver/Src/stm32f1xx_hal_rcc.c **** /* Private macro -------------------------------------------------------------*/
 103:drivers/STM32F1xx_HAL_Driver/Src/stm32f1xx_hal_rcc.c **** /** @defgroup RCC_Private_Macros RCC Private Macros
 104:drivers/STM32F1xx_HAL_Driver/Src/stm32f1xx_hal_rcc.c ****   * @{
 105:drivers/STM32F1xx_HAL_Driver/Src/stm32f1xx_hal_rcc.c ****   */
 106:drivers/STM32F1xx_HAL_Driver/Src/stm32f1xx_hal_rcc.c **** 
 107:drivers/STM32F1xx_HAL_Driver/Src/stm32f1xx_hal_rcc.c **** #define MCO1_CLK_ENABLE()     __HAL_RCC_GPIOA_CLK_ENABLE()
 108:drivers/STM32F1xx_HAL_Driver/Src/stm32f1xx_hal_rcc.c **** #define MCO1_GPIO_PORT        GPIOA
 109:drivers/STM32F1xx_HAL_Driver/Src/stm32f1xx_hal_rcc.c **** #define MCO1_PIN              GPIO_PIN_8
 110:drivers/STM32F1xx_HAL_Driver/Src/stm32f1xx_hal_rcc.c **** 
 111:drivers/STM32F1xx_HAL_Driver/Src/stm32f1xx_hal_rcc.c **** /**
 112:drivers/STM32F1xx_HAL_Driver/Src/stm32f1xx_hal_rcc.c ****   * @}
 113:drivers/STM32F1xx_HAL_Driver/Src/stm32f1xx_hal_rcc.c ****   */
 114:drivers/STM32F1xx_HAL_Driver/Src/stm32f1xx_hal_rcc.c **** 
 115:drivers/STM32F1xx_HAL_Driver/Src/stm32f1xx_hal_rcc.c **** /* Private variables ---------------------------------------------------------*/
 116:drivers/STM32F1xx_HAL_Driver/Src/stm32f1xx_hal_rcc.c **** /** @defgroup RCC_Private_Variables RCC Private Variables
 117:drivers/STM32F1xx_HAL_Driver/Src/stm32f1xx_hal_rcc.c ****   * @{
 118:drivers/STM32F1xx_HAL_Driver/Src/stm32f1xx_hal_rcc.c ****   */
 119:drivers/STM32F1xx_HAL_Driver/Src/stm32f1xx_hal_rcc.c **** /**
 120:drivers/STM32F1xx_HAL_Driver/Src/stm32f1xx_hal_rcc.c ****   * @}
 121:drivers/STM32F1xx_HAL_Driver/Src/stm32f1xx_hal_rcc.c ****   */
 122:drivers/STM32F1xx_HAL_Driver/Src/stm32f1xx_hal_rcc.c **** 
 123:drivers/STM32F1xx_HAL_Driver/Src/stm32f1xx_hal_rcc.c **** /* Private function prototypes -----------------------------------------------*/
 124:drivers/STM32F1xx_HAL_Driver/Src/stm32f1xx_hal_rcc.c **** static void RCC_Delay(uint32_t mdelay);
 125:drivers/STM32F1xx_HAL_Driver/Src/stm32f1xx_hal_rcc.c **** 
 126:drivers/STM32F1xx_HAL_Driver/Src/stm32f1xx_hal_rcc.c **** /* Exported functions --------------------------------------------------------*/
 127:drivers/STM32F1xx_HAL_Driver/Src/stm32f1xx_hal_rcc.c **** 
 128:drivers/STM32F1xx_HAL_Driver/Src/stm32f1xx_hal_rcc.c **** /** @defgroup RCC_Exported_Functions RCC Exported Functions
 129:drivers/STM32F1xx_HAL_Driver/Src/stm32f1xx_hal_rcc.c ****   * @{
 130:drivers/STM32F1xx_HAL_Driver/Src/stm32f1xx_hal_rcc.c ****   */
 131:drivers/STM32F1xx_HAL_Driver/Src/stm32f1xx_hal_rcc.c **** 
 132:drivers/STM32F1xx_HAL_Driver/Src/stm32f1xx_hal_rcc.c **** /** @defgroup RCC_Exported_Functions_Group1 Initialization and de-initialization functions 
 133:drivers/STM32F1xx_HAL_Driver/Src/stm32f1xx_hal_rcc.c ****   *  @brief    Initialization and Configuration functions 
 134:drivers/STM32F1xx_HAL_Driver/Src/stm32f1xx_hal_rcc.c ****   *
 135:drivers/STM32F1xx_HAL_Driver/Src/stm32f1xx_hal_rcc.c ****   @verbatim    
 136:drivers/STM32F1xx_HAL_Driver/Src/stm32f1xx_hal_rcc.c ****   ===============================================================================
 137:drivers/STM32F1xx_HAL_Driver/Src/stm32f1xx_hal_rcc.c ****            ##### Initialization and de-initialization functions #####
 138:drivers/STM32F1xx_HAL_Driver/Src/stm32f1xx_hal_rcc.c ****   ===============================================================================
 139:drivers/STM32F1xx_HAL_Driver/Src/stm32f1xx_hal_rcc.c ****     [..]
 140:drivers/STM32F1xx_HAL_Driver/Src/stm32f1xx_hal_rcc.c ****       This section provides functions allowing to configure the internal/external oscillators
 141:drivers/STM32F1xx_HAL_Driver/Src/stm32f1xx_hal_rcc.c ****       (HSE, HSI, LSE, LSI, PLL, CSS and MCO) and the System buses clocks (SYSCLK, AHB, APB1
 142:drivers/STM32F1xx_HAL_Driver/Src/stm32f1xx_hal_rcc.c ****       and APB2).
 143:drivers/STM32F1xx_HAL_Driver/Src/stm32f1xx_hal_rcc.c **** 
 144:drivers/STM32F1xx_HAL_Driver/Src/stm32f1xx_hal_rcc.c ****     [..] Internal/external clock and PLL configuration
 145:drivers/STM32F1xx_HAL_Driver/Src/stm32f1xx_hal_rcc.c ****       (#) HSI (high-speed internal), 8 MHz factory-trimmed RC used directly or through
 146:drivers/STM32F1xx_HAL_Driver/Src/stm32f1xx_hal_rcc.c ****           the PLL as System clock source.
ARM GAS  /tmp/ccOtixHI.s 			page 4


 147:drivers/STM32F1xx_HAL_Driver/Src/stm32f1xx_hal_rcc.c ****       (#) LSI (low-speed internal), ~40 KHz low consumption RC used as IWDG and/or RTC
 148:drivers/STM32F1xx_HAL_Driver/Src/stm32f1xx_hal_rcc.c ****           clock source.
 149:drivers/STM32F1xx_HAL_Driver/Src/stm32f1xx_hal_rcc.c **** 
 150:drivers/STM32F1xx_HAL_Driver/Src/stm32f1xx_hal_rcc.c ****       (#) HSE (high-speed external), 4 to 24 MHz (STM32F100xx) or 4 to 16 MHz (STM32F101x/STM32F102
 151:drivers/STM32F1xx_HAL_Driver/Src/stm32f1xx_hal_rcc.c ****           through the PLL as System clock source. Can be used also as RTC clock source.
 152:drivers/STM32F1xx_HAL_Driver/Src/stm32f1xx_hal_rcc.c **** 
 153:drivers/STM32F1xx_HAL_Driver/Src/stm32f1xx_hal_rcc.c ****       (#) LSE (low-speed external), 32 KHz oscillator used as RTC clock source.   
 154:drivers/STM32F1xx_HAL_Driver/Src/stm32f1xx_hal_rcc.c **** 
 155:drivers/STM32F1xx_HAL_Driver/Src/stm32f1xx_hal_rcc.c ****       (#) PLL (clocked by HSI or HSE), featuring different output clocks:
 156:drivers/STM32F1xx_HAL_Driver/Src/stm32f1xx_hal_rcc.c ****         (++) The first output is used to generate the high speed system clock (up to 72 MHz for STM
 157:drivers/STM32F1xx_HAL_Driver/Src/stm32f1xx_hal_rcc.c ****         (++) The second output is used to generate the clock for the USB OTG FS (48 MHz)
 158:drivers/STM32F1xx_HAL_Driver/Src/stm32f1xx_hal_rcc.c **** 
 159:drivers/STM32F1xx_HAL_Driver/Src/stm32f1xx_hal_rcc.c ****       (#) CSS (Clock security system), once enable using the macro __HAL_RCC_CSS_ENABLE()
 160:drivers/STM32F1xx_HAL_Driver/Src/stm32f1xx_hal_rcc.c ****           and if a HSE clock failure occurs(HSE used directly or through PLL as System 
 161:drivers/STM32F1xx_HAL_Driver/Src/stm32f1xx_hal_rcc.c ****           clock source), the System clocks automatically switched to HSI and an interrupt
 162:drivers/STM32F1xx_HAL_Driver/Src/stm32f1xx_hal_rcc.c ****           is generated if enabled. The interrupt is linked to the Cortex-M3 NMI 
 163:drivers/STM32F1xx_HAL_Driver/Src/stm32f1xx_hal_rcc.c ****           (Non-Maskable Interrupt) exception vector.   
 164:drivers/STM32F1xx_HAL_Driver/Src/stm32f1xx_hal_rcc.c **** 
 165:drivers/STM32F1xx_HAL_Driver/Src/stm32f1xx_hal_rcc.c ****       (#) MCO1 (microcontroller clock output), used to output SYSCLK, HSI,  
 166:drivers/STM32F1xx_HAL_Driver/Src/stm32f1xx_hal_rcc.c ****           HSE or PLL clock (divided by 2) on PA8 pin + PLL2CLK, PLL3CLK/2, PLL3CLK and XTI for STM3
 167:drivers/STM32F1xx_HAL_Driver/Src/stm32f1xx_hal_rcc.c **** 
 168:drivers/STM32F1xx_HAL_Driver/Src/stm32f1xx_hal_rcc.c ****     [..] System, AHB and APB buses clocks configuration
 169:drivers/STM32F1xx_HAL_Driver/Src/stm32f1xx_hal_rcc.c ****       (#) Several clock sources can be used to drive the System clock (SYSCLK): HSI,
 170:drivers/STM32F1xx_HAL_Driver/Src/stm32f1xx_hal_rcc.c ****           HSE and PLL.
 171:drivers/STM32F1xx_HAL_Driver/Src/stm32f1xx_hal_rcc.c ****           The AHB clock (HCLK) is derived from System clock through configurable
 172:drivers/STM32F1xx_HAL_Driver/Src/stm32f1xx_hal_rcc.c ****           prescaler and used to clock the CPU, memory and peripherals mapped
 173:drivers/STM32F1xx_HAL_Driver/Src/stm32f1xx_hal_rcc.c ****           on AHB bus (DMA, GPIO...). APB1 (PCLK1) and APB2 (PCLK2) clocks are derived
 174:drivers/STM32F1xx_HAL_Driver/Src/stm32f1xx_hal_rcc.c ****           from AHB clock through configurable prescalers and used to clock
 175:drivers/STM32F1xx_HAL_Driver/Src/stm32f1xx_hal_rcc.c ****           the peripherals mapped on these buses. You can use
 176:drivers/STM32F1xx_HAL_Driver/Src/stm32f1xx_hal_rcc.c ****           "@ref HAL_RCC_GetSysClockFreq()" function to retrieve the frequencies of these clocks.
 177:drivers/STM32F1xx_HAL_Driver/Src/stm32f1xx_hal_rcc.c **** 
 178:drivers/STM32F1xx_HAL_Driver/Src/stm32f1xx_hal_rcc.c ****       -@- All the peripheral clocks are derived from the System clock (SYSCLK) except:
 179:drivers/STM32F1xx_HAL_Driver/Src/stm32f1xx_hal_rcc.c ****           (+@) RTC: RTC clock can be derived either from the LSI, LSE or HSE clock
 180:drivers/STM32F1xx_HAL_Driver/Src/stm32f1xx_hal_rcc.c ****               divided by 128. 
 181:drivers/STM32F1xx_HAL_Driver/Src/stm32f1xx_hal_rcc.c ****           (+@) USB OTG FS and RTC: USB OTG FS require a frequency equal to 48 MHz
 182:drivers/STM32F1xx_HAL_Driver/Src/stm32f1xx_hal_rcc.c ****               to work correctly. This clock is derived of the main PLL through PLL Multiplier.
 183:drivers/STM32F1xx_HAL_Driver/Src/stm32f1xx_hal_rcc.c ****           (+@) I2S interface on STM32F105x/STM32F107x can be derived from PLL3CLK
 184:drivers/STM32F1xx_HAL_Driver/Src/stm32f1xx_hal_rcc.c ****           (+@) IWDG clock which is always the LSI clock.
 185:drivers/STM32F1xx_HAL_Driver/Src/stm32f1xx_hal_rcc.c **** 
 186:drivers/STM32F1xx_HAL_Driver/Src/stm32f1xx_hal_rcc.c ****       (#) For STM32F10xxx, the maximum frequency of the SYSCLK and HCLK/PCLK2 is 72 MHz, PCLK1 36 M
 187:drivers/STM32F1xx_HAL_Driver/Src/stm32f1xx_hal_rcc.c ****           For STM32F100xx, the maximum frequency of the SYSCLK and HCLK/PCLK1/PCLK2 is 24 MHz.  
 188:drivers/STM32F1xx_HAL_Driver/Src/stm32f1xx_hal_rcc.c ****           Depending on the SYSCLK frequency, the flash latency should be adapted accordingly.
 189:drivers/STM32F1xx_HAL_Driver/Src/stm32f1xx_hal_rcc.c ****   @endverbatim
 190:drivers/STM32F1xx_HAL_Driver/Src/stm32f1xx_hal_rcc.c ****   * @{
 191:drivers/STM32F1xx_HAL_Driver/Src/stm32f1xx_hal_rcc.c ****   */
 192:drivers/STM32F1xx_HAL_Driver/Src/stm32f1xx_hal_rcc.c ****   
 193:drivers/STM32F1xx_HAL_Driver/Src/stm32f1xx_hal_rcc.c **** /*
 194:drivers/STM32F1xx_HAL_Driver/Src/stm32f1xx_hal_rcc.c ****   Additional consideration on the SYSCLK based on Latency settings:
 195:drivers/STM32F1xx_HAL_Driver/Src/stm32f1xx_hal_rcc.c ****         +-----------------------------------------------+
 196:drivers/STM32F1xx_HAL_Driver/Src/stm32f1xx_hal_rcc.c ****         | Latency       | SYSCLK clock frequency (MHz)  |
 197:drivers/STM32F1xx_HAL_Driver/Src/stm32f1xx_hal_rcc.c ****         |---------------|-------------------------------|
 198:drivers/STM32F1xx_HAL_Driver/Src/stm32f1xx_hal_rcc.c ****         |0WS(1CPU cycle)|       0 < SYSCLK <= 24        |
 199:drivers/STM32F1xx_HAL_Driver/Src/stm32f1xx_hal_rcc.c ****         |---------------|-------------------------------|
 200:drivers/STM32F1xx_HAL_Driver/Src/stm32f1xx_hal_rcc.c ****         |1WS(2CPU cycle)|      24 < SYSCLK <= 48        |
 201:drivers/STM32F1xx_HAL_Driver/Src/stm32f1xx_hal_rcc.c ****         |---------------|-------------------------------|
 202:drivers/STM32F1xx_HAL_Driver/Src/stm32f1xx_hal_rcc.c ****         |2WS(3CPU cycle)|      48 < SYSCLK <= 72        |
 203:drivers/STM32F1xx_HAL_Driver/Src/stm32f1xx_hal_rcc.c ****         +-----------------------------------------------+
ARM GAS  /tmp/ccOtixHI.s 			page 5


 204:drivers/STM32F1xx_HAL_Driver/Src/stm32f1xx_hal_rcc.c ****   */
 205:drivers/STM32F1xx_HAL_Driver/Src/stm32f1xx_hal_rcc.c **** 
 206:drivers/STM32F1xx_HAL_Driver/Src/stm32f1xx_hal_rcc.c **** /**
 207:drivers/STM32F1xx_HAL_Driver/Src/stm32f1xx_hal_rcc.c ****   * @brief  Resets the RCC clock configuration to the default reset state.
 208:drivers/STM32F1xx_HAL_Driver/Src/stm32f1xx_hal_rcc.c ****   * @note   The default reset state of the clock configuration is given below:
 209:drivers/STM32F1xx_HAL_Driver/Src/stm32f1xx_hal_rcc.c ****   *            - HSI ON and used as system clock source
 210:drivers/STM32F1xx_HAL_Driver/Src/stm32f1xx_hal_rcc.c ****   *            - HSE and PLL OFF
 211:drivers/STM32F1xx_HAL_Driver/Src/stm32f1xx_hal_rcc.c ****   *            - AHB, APB1 and APB2 prescaler set to 1.
 212:drivers/STM32F1xx_HAL_Driver/Src/stm32f1xx_hal_rcc.c ****   *            - CSS and MCO1 OFF
 213:drivers/STM32F1xx_HAL_Driver/Src/stm32f1xx_hal_rcc.c ****   *            - All interrupts disabled
 214:drivers/STM32F1xx_HAL_Driver/Src/stm32f1xx_hal_rcc.c ****   * @note   This function does not modify the configuration of the
 215:drivers/STM32F1xx_HAL_Driver/Src/stm32f1xx_hal_rcc.c ****   *            - Peripheral clocks
 216:drivers/STM32F1xx_HAL_Driver/Src/stm32f1xx_hal_rcc.c ****   *            - LSI, LSE and RTC clocks
 217:drivers/STM32F1xx_HAL_Driver/Src/stm32f1xx_hal_rcc.c ****   * @retval None
 218:drivers/STM32F1xx_HAL_Driver/Src/stm32f1xx_hal_rcc.c ****   */
 219:drivers/STM32F1xx_HAL_Driver/Src/stm32f1xx_hal_rcc.c **** void HAL_RCC_DeInit(void)
 220:drivers/STM32F1xx_HAL_Driver/Src/stm32f1xx_hal_rcc.c **** {
  27              		.loc 1 220 0
  28              		.cfi_startproc
  29              		@ args = 0, pretend = 0, frame = 0
  30              		@ frame_needed = 0, uses_anonymous_args = 0
  31              		@ link register save eliminated.
 221:drivers/STM32F1xx_HAL_Driver/Src/stm32f1xx_hal_rcc.c ****   /* Switch SYSCLK to HSI */
 222:drivers/STM32F1xx_HAL_Driver/Src/stm32f1xx_hal_rcc.c ****   CLEAR_BIT(RCC->CFGR, RCC_CFGR_SW);
 223:drivers/STM32F1xx_HAL_Driver/Src/stm32f1xx_hal_rcc.c **** 
 224:drivers/STM32F1xx_HAL_Driver/Src/stm32f1xx_hal_rcc.c ****   /* Reset HSEON, CSSON, & PLLON bits */
 225:drivers/STM32F1xx_HAL_Driver/Src/stm32f1xx_hal_rcc.c ****   CLEAR_BIT(RCC->CR, RCC_CR_HSEON | RCC_CR_CSSON | RCC_CR_PLLON);
 226:drivers/STM32F1xx_HAL_Driver/Src/stm32f1xx_hal_rcc.c ****   
 227:drivers/STM32F1xx_HAL_Driver/Src/stm32f1xx_hal_rcc.c ****   /* Reset HSEBYP bit */
 228:drivers/STM32F1xx_HAL_Driver/Src/stm32f1xx_hal_rcc.c ****   CLEAR_BIT(RCC->CR, RCC_CR_HSEBYP);
 229:drivers/STM32F1xx_HAL_Driver/Src/stm32f1xx_hal_rcc.c ****   
 230:drivers/STM32F1xx_HAL_Driver/Src/stm32f1xx_hal_rcc.c ****   /* Reset CFGR register */
 231:drivers/STM32F1xx_HAL_Driver/Src/stm32f1xx_hal_rcc.c ****   CLEAR_REG(RCC->CFGR);
  32              		.loc 1 231 0
  33 0000 0021     		movs	r1, #0
 222:drivers/STM32F1xx_HAL_Driver/Src/stm32f1xx_hal_rcc.c **** 
  34              		.loc 1 222 0
  35 0002 0E4B     		ldr	r3, .L3
 220:drivers/STM32F1xx_HAL_Driver/Src/stm32f1xx_hal_rcc.c ****   /* Switch SYSCLK to HSI */
  36              		.loc 1 220 0
  37 0004 10B4     		push	{r4}
  38              		.cfi_def_cfa_offset 4
  39              		.cfi_offset 4, -4
 222:drivers/STM32F1xx_HAL_Driver/Src/stm32f1xx_hal_rcc.c **** 
  40              		.loc 1 222 0
  41 0006 5A68     		ldr	r2, [r3, #4]
 232:drivers/STM32F1xx_HAL_Driver/Src/stm32f1xx_hal_rcc.c ****   
 233:drivers/STM32F1xx_HAL_Driver/Src/stm32f1xx_hal_rcc.c ****   /* Set HSITRIM bits to the reset value */
 234:drivers/STM32F1xx_HAL_Driver/Src/stm32f1xx_hal_rcc.c ****   MODIFY_REG(RCC->CR, RCC_CR_HSITRIM, (0x10U << RCC_CR_HSITRIM_Pos));
 235:drivers/STM32F1xx_HAL_Driver/Src/stm32f1xx_hal_rcc.c ****   
 236:drivers/STM32F1xx_HAL_Driver/Src/stm32f1xx_hal_rcc.c **** #if defined(RCC_CFGR2_SUPPORT)
 237:drivers/STM32F1xx_HAL_Driver/Src/stm32f1xx_hal_rcc.c ****   /* Reset CFGR2 register */
 238:drivers/STM32F1xx_HAL_Driver/Src/stm32f1xx_hal_rcc.c ****   CLEAR_REG(RCC->CFGR2);
 239:drivers/STM32F1xx_HAL_Driver/Src/stm32f1xx_hal_rcc.c **** 
 240:drivers/STM32F1xx_HAL_Driver/Src/stm32f1xx_hal_rcc.c **** #endif /* RCC_CFGR2_SUPPORT */
 241:drivers/STM32F1xx_HAL_Driver/Src/stm32f1xx_hal_rcc.c ****   /* Disable all interrupts */
 242:drivers/STM32F1xx_HAL_Driver/Src/stm32f1xx_hal_rcc.c ****   CLEAR_REG(RCC->CIR);
ARM GAS  /tmp/ccOtixHI.s 			page 6


 243:drivers/STM32F1xx_HAL_Driver/Src/stm32f1xx_hal_rcc.c **** 
 244:drivers/STM32F1xx_HAL_Driver/Src/stm32f1xx_hal_rcc.c ****   /* Update the SystemCoreClock global variable */
 245:drivers/STM32F1xx_HAL_Driver/Src/stm32f1xx_hal_rcc.c ****   SystemCoreClock = HSI_VALUE;
  42              		.loc 1 245 0
  43 0008 0D4C     		ldr	r4, .L3+4
 222:drivers/STM32F1xx_HAL_Driver/Src/stm32f1xx_hal_rcc.c **** 
  44              		.loc 1 222 0
  45 000a 22F00302 		bic	r2, r2, #3
  46 000e 5A60     		str	r2, [r3, #4]
 225:drivers/STM32F1xx_HAL_Driver/Src/stm32f1xx_hal_rcc.c ****   
  47              		.loc 1 225 0
  48 0010 1A68     		ldr	r2, [r3]
  49              		.loc 1 245 0
  50 0012 0C48     		ldr	r0, .L3+8
 225:drivers/STM32F1xx_HAL_Driver/Src/stm32f1xx_hal_rcc.c ****   
  51              		.loc 1 225 0
  52 0014 22F08472 		bic	r2, r2, #17301504
  53 0018 22F48032 		bic	r2, r2, #65536
  54 001c 1A60     		str	r2, [r3]
 228:drivers/STM32F1xx_HAL_Driver/Src/stm32f1xx_hal_rcc.c ****   
  55              		.loc 1 228 0
  56 001e 1A68     		ldr	r2, [r3]
  57 0020 22F48022 		bic	r2, r2, #262144
  58 0024 1A60     		str	r2, [r3]
 231:drivers/STM32F1xx_HAL_Driver/Src/stm32f1xx_hal_rcc.c ****   
  59              		.loc 1 231 0
  60 0026 5960     		str	r1, [r3, #4]
 234:drivers/STM32F1xx_HAL_Driver/Src/stm32f1xx_hal_rcc.c ****   
  61              		.loc 1 234 0
  62 0028 1A68     		ldr	r2, [r3]
  63 002a 22F0F802 		bic	r2, r2, #248
  64 002e 42F08002 		orr	r2, r2, #128
  65 0032 1A60     		str	r2, [r3]
 242:drivers/STM32F1xx_HAL_Driver/Src/stm32f1xx_hal_rcc.c **** 
  66              		.loc 1 242 0
  67 0034 9960     		str	r1, [r3, #8]
  68              		.loc 1 245 0
  69 0036 0460     		str	r4, [r0]
 246:drivers/STM32F1xx_HAL_Driver/Src/stm32f1xx_hal_rcc.c **** }
  70              		.loc 1 246 0
  71 0038 10BC     		pop	{r4}
  72              		.cfi_restore 4
  73              		.cfi_def_cfa_offset 0
  74 003a 7047     		bx	lr
  75              	.L4:
  76              		.align	2
  77              	.L3:
  78 003c 00100240 		.word	1073876992
  79 0040 00127A00 		.word	8000000
  80 0044 00000000 		.word	SystemCoreClock
  81              		.cfi_endproc
  82              	.LFE64:
  84              		.section	.text.HAL_RCC_OscConfig,"ax",%progbits
  85              		.align	1
  86              		.p2align 2,,3
  87              		.global	HAL_RCC_OscConfig
  88              		.syntax unified
ARM GAS  /tmp/ccOtixHI.s 			page 7


  89              		.thumb
  90              		.thumb_func
  91              		.fpu softvfp
  93              	HAL_RCC_OscConfig:
  94              	.LFB65:
 247:drivers/STM32F1xx_HAL_Driver/Src/stm32f1xx_hal_rcc.c **** 
 248:drivers/STM32F1xx_HAL_Driver/Src/stm32f1xx_hal_rcc.c **** /**
 249:drivers/STM32F1xx_HAL_Driver/Src/stm32f1xx_hal_rcc.c ****   * @brief  Initializes the RCC Oscillators according to the specified parameters in the
 250:drivers/STM32F1xx_HAL_Driver/Src/stm32f1xx_hal_rcc.c ****   *         RCC_OscInitTypeDef.
 251:drivers/STM32F1xx_HAL_Driver/Src/stm32f1xx_hal_rcc.c ****   * @param  RCC_OscInitStruct pointer to an RCC_OscInitTypeDef structure that
 252:drivers/STM32F1xx_HAL_Driver/Src/stm32f1xx_hal_rcc.c ****   *         contains the configuration information for the RCC Oscillators.
 253:drivers/STM32F1xx_HAL_Driver/Src/stm32f1xx_hal_rcc.c ****   * @note   The PLL is not disabled when used as system clock.
 254:drivers/STM32F1xx_HAL_Driver/Src/stm32f1xx_hal_rcc.c ****   * @note   The PLL is not disabled when USB OTG FS clock is enabled (specific to devices with USB 
 255:drivers/STM32F1xx_HAL_Driver/Src/stm32f1xx_hal_rcc.c ****   * @note   Transitions LSE Bypass to LSE On and LSE On to LSE Bypass are not
 256:drivers/STM32F1xx_HAL_Driver/Src/stm32f1xx_hal_rcc.c ****   *         supported by this macro. User should request a transition to LSE Off
 257:drivers/STM32F1xx_HAL_Driver/Src/stm32f1xx_hal_rcc.c ****   *         first and then LSE On or LSE Bypass.
 258:drivers/STM32F1xx_HAL_Driver/Src/stm32f1xx_hal_rcc.c ****   * @note   Transition HSE Bypass to HSE On and HSE On to HSE Bypass are not
 259:drivers/STM32F1xx_HAL_Driver/Src/stm32f1xx_hal_rcc.c ****   *         supported by this macro. User should request a transition to HSE Off
 260:drivers/STM32F1xx_HAL_Driver/Src/stm32f1xx_hal_rcc.c ****   *         first and then HSE On or HSE Bypass.
 261:drivers/STM32F1xx_HAL_Driver/Src/stm32f1xx_hal_rcc.c ****   * @retval HAL status
 262:drivers/STM32F1xx_HAL_Driver/Src/stm32f1xx_hal_rcc.c ****   */
 263:drivers/STM32F1xx_HAL_Driver/Src/stm32f1xx_hal_rcc.c **** HAL_StatusTypeDef HAL_RCC_OscConfig(RCC_OscInitTypeDef  *RCC_OscInitStruct)
 264:drivers/STM32F1xx_HAL_Driver/Src/stm32f1xx_hal_rcc.c **** {
  95              		.loc 1 264 0
  96              		.cfi_startproc
  97              		@ args = 0, pretend = 0, frame = 8
  98              		@ frame_needed = 0, uses_anonymous_args = 0
  99              	.LVL0:
 100 0000 2DE9F041 		push	{r4, r5, r6, r7, r8, lr}
 101              		.cfi_def_cfa_offset 24
 102              		.cfi_offset 4, -24
 103              		.cfi_offset 5, -20
 104              		.cfi_offset 6, -16
 105              		.cfi_offset 7, -12
 106              		.cfi_offset 8, -8
 107              		.cfi_offset 14, -4
 265:drivers/STM32F1xx_HAL_Driver/Src/stm32f1xx_hal_rcc.c ****    uint32_t tickstart = 0U;
 266:drivers/STM32F1xx_HAL_Driver/Src/stm32f1xx_hal_rcc.c ****   
 267:drivers/STM32F1xx_HAL_Driver/Src/stm32f1xx_hal_rcc.c ****   /* Check the parameters */
 268:drivers/STM32F1xx_HAL_Driver/Src/stm32f1xx_hal_rcc.c ****   assert_param(RCC_OscInitStruct != NULL);
 269:drivers/STM32F1xx_HAL_Driver/Src/stm32f1xx_hal_rcc.c ****   assert_param(IS_RCC_OSCILLATORTYPE(RCC_OscInitStruct->OscillatorType));
 270:drivers/STM32F1xx_HAL_Driver/Src/stm32f1xx_hal_rcc.c ****   
 271:drivers/STM32F1xx_HAL_Driver/Src/stm32f1xx_hal_rcc.c ****   /*------------------------------- HSE Configuration ------------------------*/ 
 272:drivers/STM32F1xx_HAL_Driver/Src/stm32f1xx_hal_rcc.c ****   if(((RCC_OscInitStruct->OscillatorType) & RCC_OSCILLATORTYPE_HSE) == RCC_OSCILLATORTYPE_HSE)
 108              		.loc 1 272 0
 109 0004 0368     		ldr	r3, [r0]
 264:drivers/STM32F1xx_HAL_Driver/Src/stm32f1xx_hal_rcc.c ****    uint32_t tickstart = 0U;
 110              		.loc 1 264 0
 111 0006 82B0     		sub	sp, sp, #8
 112              		.cfi_def_cfa_offset 32
 113              		.loc 1 272 0
 114 0008 DD07     		lsls	r5, r3, #31
 264:drivers/STM32F1xx_HAL_Driver/Src/stm32f1xx_hal_rcc.c ****    uint32_t tickstart = 0U;
 115              		.loc 1 264 0
 116 000a 0446     		mov	r4, r0
 117              		.loc 1 272 0
 118 000c 30D5     		bpl	.L6
ARM GAS  /tmp/ccOtixHI.s 			page 8


 273:drivers/STM32F1xx_HAL_Driver/Src/stm32f1xx_hal_rcc.c ****   {
 274:drivers/STM32F1xx_HAL_Driver/Src/stm32f1xx_hal_rcc.c ****     /* Check the parameters */
 275:drivers/STM32F1xx_HAL_Driver/Src/stm32f1xx_hal_rcc.c ****     assert_param(IS_RCC_HSE(RCC_OscInitStruct->HSEState));
 276:drivers/STM32F1xx_HAL_Driver/Src/stm32f1xx_hal_rcc.c ****         
 277:drivers/STM32F1xx_HAL_Driver/Src/stm32f1xx_hal_rcc.c ****     /* When the HSE is used as system clock or clock source for PLL in these cases it is not allowe
 278:drivers/STM32F1xx_HAL_Driver/Src/stm32f1xx_hal_rcc.c ****     if((__HAL_RCC_GET_SYSCLK_SOURCE() == RCC_SYSCLKSOURCE_STATUS_HSE) 
 119              		.loc 1 278 0
 120 000e AD49     		ldr	r1, .L115
 121 0010 4A68     		ldr	r2, [r1, #4]
 122 0012 02F00C02 		and	r2, r2, #12
 123 0016 042A     		cmp	r2, #4
 124 0018 00F0FA80 		beq	.L7
 279:drivers/STM32F1xx_HAL_Driver/Src/stm32f1xx_hal_rcc.c ****        || ((__HAL_RCC_GET_SYSCLK_SOURCE() == RCC_SYSCLKSOURCE_STATUS_PLLCLK) && (__HAL_RCC_GET_PLL_
 125              		.loc 1 279 0
 126 001c 4A68     		ldr	r2, [r1, #4]
 127 001e 02F00C02 		and	r2, r2, #12
 128 0022 082A     		cmp	r2, #8
 129 0024 00F0F080 		beq	.L103
 130              	.LVL1:
 131              	.L8:
 280:drivers/STM32F1xx_HAL_Driver/Src/stm32f1xx_hal_rcc.c ****     {
 281:drivers/STM32F1xx_HAL_Driver/Src/stm32f1xx_hal_rcc.c ****       if((__HAL_RCC_GET_FLAG(RCC_FLAG_HSERDY) != RESET) && (RCC_OscInitStruct->HSEState == RCC_HSE_
 282:drivers/STM32F1xx_HAL_Driver/Src/stm32f1xx_hal_rcc.c ****       {
 283:drivers/STM32F1xx_HAL_Driver/Src/stm32f1xx_hal_rcc.c ****         return HAL_ERROR;
 284:drivers/STM32F1xx_HAL_Driver/Src/stm32f1xx_hal_rcc.c ****       }
 285:drivers/STM32F1xx_HAL_Driver/Src/stm32f1xx_hal_rcc.c ****     }
 286:drivers/STM32F1xx_HAL_Driver/Src/stm32f1xx_hal_rcc.c ****     else
 287:drivers/STM32F1xx_HAL_Driver/Src/stm32f1xx_hal_rcc.c ****     {
 288:drivers/STM32F1xx_HAL_Driver/Src/stm32f1xx_hal_rcc.c ****       /* Set the new HSE configuration ---------------------------------------*/
 289:drivers/STM32F1xx_HAL_Driver/Src/stm32f1xx_hal_rcc.c ****       __HAL_RCC_HSE_CONFIG(RCC_OscInitStruct->HSEState);
 132              		.loc 1 289 0
 133 0028 6368     		ldr	r3, [r4, #4]
 134 002a B3F5803F 		cmp	r3, #65536
 135 002e 00F07481 		beq	.L104
 136              		.loc 1 289 0 is_stmt 0 discriminator 2
 137 0032 002B     		cmp	r3, #0
 138 0034 00F00481 		beq	.L105
 139              		.loc 1 289 0 discriminator 4
 140 0038 B3F5A02F 		cmp	r3, #327680
 141 003c 00F0A981 		beq	.L106
 142              		.loc 1 289 0 discriminator 6
 143 0040 A04B     		ldr	r3, .L115
 144 0042 1A68     		ldr	r2, [r3]
 145 0044 22F48032 		bic	r2, r2, #65536
 146 0048 1A60     		str	r2, [r3]
 147 004a 1A68     		ldr	r2, [r3]
 148 004c 22F48022 		bic	r2, r2, #262144
 149 0050 1A60     		str	r2, [r3]
 150              	.L11:
 290:drivers/STM32F1xx_HAL_Driver/Src/stm32f1xx_hal_rcc.c ****       
 291:drivers/STM32F1xx_HAL_Driver/Src/stm32f1xx_hal_rcc.c **** 
 292:drivers/STM32F1xx_HAL_Driver/Src/stm32f1xx_hal_rcc.c ****        /* Check the HSE State */
 293:drivers/STM32F1xx_HAL_Driver/Src/stm32f1xx_hal_rcc.c ****       if(RCC_OscInitStruct->HSEState != RCC_HSE_OFF)
 294:drivers/STM32F1xx_HAL_Driver/Src/stm32f1xx_hal_rcc.c ****       {
 295:drivers/STM32F1xx_HAL_Driver/Src/stm32f1xx_hal_rcc.c ****         /* Get Start Tick */
 296:drivers/STM32F1xx_HAL_Driver/Src/stm32f1xx_hal_rcc.c ****         tickstart = HAL_GetTick();
 151              		.loc 1 296 0 is_stmt 1
ARM GAS  /tmp/ccOtixHI.s 			page 9


 152 0052 FFF7FEFF 		bl	HAL_GetTick
 153              	.LVL2:
 297:drivers/STM32F1xx_HAL_Driver/Src/stm32f1xx_hal_rcc.c ****         
 298:drivers/STM32F1xx_HAL_Driver/Src/stm32f1xx_hal_rcc.c ****         /* Wait till HSE is ready */
 299:drivers/STM32F1xx_HAL_Driver/Src/stm32f1xx_hal_rcc.c ****         while(__HAL_RCC_GET_FLAG(RCC_FLAG_HSERDY) == RESET)
 154              		.loc 1 299 0
 155 0056 9B4D     		ldr	r5, .L115
 296:drivers/STM32F1xx_HAL_Driver/Src/stm32f1xx_hal_rcc.c ****         
 156              		.loc 1 296 0
 157 0058 0646     		mov	r6, r0
 158              	.LVL3:
 159              		.loc 1 299 0
 160 005a 05E0     		b	.L15
 161              	.LVL4:
 162              	.L16:
 300:drivers/STM32F1xx_HAL_Driver/Src/stm32f1xx_hal_rcc.c ****         {
 301:drivers/STM32F1xx_HAL_Driver/Src/stm32f1xx_hal_rcc.c ****           if((HAL_GetTick() - tickstart ) > HSE_TIMEOUT_VALUE)
 163              		.loc 1 301 0
 164 005c FFF7FEFF 		bl	HAL_GetTick
 165              	.LVL5:
 166 0060 801B     		subs	r0, r0, r6
 167 0062 6428     		cmp	r0, #100
 168 0064 00F21781 		bhi	.L17
 169              	.L15:
 299:drivers/STM32F1xx_HAL_Driver/Src/stm32f1xx_hal_rcc.c ****         {
 170              		.loc 1 299 0
 171 0068 2B68     		ldr	r3, [r5]
 172 006a 9A03     		lsls	r2, r3, #14
 173 006c F6D5     		bpl	.L16
 174              	.L98:
 175 006e 2368     		ldr	r3, [r4]
 176              	.LVL6:
 177              	.L6:
 302:drivers/STM32F1xx_HAL_Driver/Src/stm32f1xx_hal_rcc.c ****           {
 303:drivers/STM32F1xx_HAL_Driver/Src/stm32f1xx_hal_rcc.c ****             return HAL_TIMEOUT;
 304:drivers/STM32F1xx_HAL_Driver/Src/stm32f1xx_hal_rcc.c ****           }
 305:drivers/STM32F1xx_HAL_Driver/Src/stm32f1xx_hal_rcc.c ****         }
 306:drivers/STM32F1xx_HAL_Driver/Src/stm32f1xx_hal_rcc.c ****       }
 307:drivers/STM32F1xx_HAL_Driver/Src/stm32f1xx_hal_rcc.c ****       else
 308:drivers/STM32F1xx_HAL_Driver/Src/stm32f1xx_hal_rcc.c ****       {
 309:drivers/STM32F1xx_HAL_Driver/Src/stm32f1xx_hal_rcc.c ****         /* Get Start Tick */
 310:drivers/STM32F1xx_HAL_Driver/Src/stm32f1xx_hal_rcc.c ****         tickstart = HAL_GetTick();
 311:drivers/STM32F1xx_HAL_Driver/Src/stm32f1xx_hal_rcc.c ****         
 312:drivers/STM32F1xx_HAL_Driver/Src/stm32f1xx_hal_rcc.c ****         /* Wait till HSE is disabled */
 313:drivers/STM32F1xx_HAL_Driver/Src/stm32f1xx_hal_rcc.c ****         while(__HAL_RCC_GET_FLAG(RCC_FLAG_HSERDY) != RESET)
 314:drivers/STM32F1xx_HAL_Driver/Src/stm32f1xx_hal_rcc.c ****         {
 315:drivers/STM32F1xx_HAL_Driver/Src/stm32f1xx_hal_rcc.c ****            if((HAL_GetTick() - tickstart ) > HSE_TIMEOUT_VALUE)
 316:drivers/STM32F1xx_HAL_Driver/Src/stm32f1xx_hal_rcc.c ****           {
 317:drivers/STM32F1xx_HAL_Driver/Src/stm32f1xx_hal_rcc.c ****             return HAL_TIMEOUT;
 318:drivers/STM32F1xx_HAL_Driver/Src/stm32f1xx_hal_rcc.c ****           }
 319:drivers/STM32F1xx_HAL_Driver/Src/stm32f1xx_hal_rcc.c ****         }
 320:drivers/STM32F1xx_HAL_Driver/Src/stm32f1xx_hal_rcc.c ****       }
 321:drivers/STM32F1xx_HAL_Driver/Src/stm32f1xx_hal_rcc.c ****     }
 322:drivers/STM32F1xx_HAL_Driver/Src/stm32f1xx_hal_rcc.c ****   }
 323:drivers/STM32F1xx_HAL_Driver/Src/stm32f1xx_hal_rcc.c ****   /*----------------------------- HSI Configuration --------------------------*/ 
 324:drivers/STM32F1xx_HAL_Driver/Src/stm32f1xx_hal_rcc.c ****   if(((RCC_OscInitStruct->OscillatorType) & RCC_OSCILLATORTYPE_HSI) == RCC_OSCILLATORTYPE_HSI)
 178              		.loc 1 324 0
ARM GAS  /tmp/ccOtixHI.s 			page 10


 179 0070 9F07     		lsls	r7, r3, #30
 180 0072 28D5     		bpl	.L19
 325:drivers/STM32F1xx_HAL_Driver/Src/stm32f1xx_hal_rcc.c ****   {
 326:drivers/STM32F1xx_HAL_Driver/Src/stm32f1xx_hal_rcc.c ****     /* Check the parameters */
 327:drivers/STM32F1xx_HAL_Driver/Src/stm32f1xx_hal_rcc.c ****     assert_param(IS_RCC_HSI(RCC_OscInitStruct->HSIState));
 328:drivers/STM32F1xx_HAL_Driver/Src/stm32f1xx_hal_rcc.c ****     assert_param(IS_RCC_CALIBRATION_VALUE(RCC_OscInitStruct->HSICalibrationValue));
 329:drivers/STM32F1xx_HAL_Driver/Src/stm32f1xx_hal_rcc.c ****     
 330:drivers/STM32F1xx_HAL_Driver/Src/stm32f1xx_hal_rcc.c ****     /* Check if HSI is used as system clock or as PLL source when PLL is selected as system clock *
 331:drivers/STM32F1xx_HAL_Driver/Src/stm32f1xx_hal_rcc.c ****     if((__HAL_RCC_GET_SYSCLK_SOURCE() == RCC_SYSCLKSOURCE_STATUS_HSI) 
 181              		.loc 1 331 0
 182 0074 934A     		ldr	r2, .L115
 183 0076 5168     		ldr	r1, [r2, #4]
 184 0078 11F00C0F 		tst	r1, #12
 185 007c 00F0A980 		beq	.L20
 332:drivers/STM32F1xx_HAL_Driver/Src/stm32f1xx_hal_rcc.c ****        || ((__HAL_RCC_GET_SYSCLK_SOURCE() == RCC_SYSCLKSOURCE_STATUS_PLLCLK) && (__HAL_RCC_GET_PLL_
 186              		.loc 1 332 0
 187 0080 5168     		ldr	r1, [r2, #4]
 188 0082 01F00C01 		and	r1, r1, #12
 189 0086 0829     		cmp	r1, #8
 190 0088 00F09F80 		beq	.L107
 191              	.L21:
 333:drivers/STM32F1xx_HAL_Driver/Src/stm32f1xx_hal_rcc.c ****     {
 334:drivers/STM32F1xx_HAL_Driver/Src/stm32f1xx_hal_rcc.c ****       /* When HSI is used as system clock it will not disabled */
 335:drivers/STM32F1xx_HAL_Driver/Src/stm32f1xx_hal_rcc.c ****       if((__HAL_RCC_GET_FLAG(RCC_FLAG_HSIRDY) != RESET) && (RCC_OscInitStruct->HSIState != RCC_HSI_
 336:drivers/STM32F1xx_HAL_Driver/Src/stm32f1xx_hal_rcc.c ****       {
 337:drivers/STM32F1xx_HAL_Driver/Src/stm32f1xx_hal_rcc.c ****         return HAL_ERROR;
 338:drivers/STM32F1xx_HAL_Driver/Src/stm32f1xx_hal_rcc.c ****       }
 339:drivers/STM32F1xx_HAL_Driver/Src/stm32f1xx_hal_rcc.c ****       /* Otherwise, just the calibration is allowed */
 340:drivers/STM32F1xx_HAL_Driver/Src/stm32f1xx_hal_rcc.c ****       else
 341:drivers/STM32F1xx_HAL_Driver/Src/stm32f1xx_hal_rcc.c ****       {
 342:drivers/STM32F1xx_HAL_Driver/Src/stm32f1xx_hal_rcc.c ****         /* Adjusts the Internal High Speed oscillator (HSI) calibration value.*/
 343:drivers/STM32F1xx_HAL_Driver/Src/stm32f1xx_hal_rcc.c ****         __HAL_RCC_HSI_CALIBRATIONVALUE_ADJUST(RCC_OscInitStruct->HSICalibrationValue);
 344:drivers/STM32F1xx_HAL_Driver/Src/stm32f1xx_hal_rcc.c ****       }
 345:drivers/STM32F1xx_HAL_Driver/Src/stm32f1xx_hal_rcc.c ****     }
 346:drivers/STM32F1xx_HAL_Driver/Src/stm32f1xx_hal_rcc.c ****     else
 347:drivers/STM32F1xx_HAL_Driver/Src/stm32f1xx_hal_rcc.c ****     {
 348:drivers/STM32F1xx_HAL_Driver/Src/stm32f1xx_hal_rcc.c ****       /* Check the HSI State */
 349:drivers/STM32F1xx_HAL_Driver/Src/stm32f1xx_hal_rcc.c ****       if(RCC_OscInitStruct->HSIState != RCC_HSI_OFF)
 192              		.loc 1 349 0
 193 008c 2369     		ldr	r3, [r4, #16]
 194 008e 002B     		cmp	r3, #0
 195 0090 00F03281 		beq	.L24
 350:drivers/STM32F1xx_HAL_Driver/Src/stm32f1xx_hal_rcc.c ****       {
 351:drivers/STM32F1xx_HAL_Driver/Src/stm32f1xx_hal_rcc.c ****        /* Enable the Internal High Speed oscillator (HSI). */
 352:drivers/STM32F1xx_HAL_Driver/Src/stm32f1xx_hal_rcc.c ****         __HAL_RCC_HSI_ENABLE();
 196              		.loc 1 352 0
 197 0094 0122     		movs	r2, #1
 198 0096 8C4B     		ldr	r3, .L115+4
 353:drivers/STM32F1xx_HAL_Driver/Src/stm32f1xx_hal_rcc.c ****         
 354:drivers/STM32F1xx_HAL_Driver/Src/stm32f1xx_hal_rcc.c ****         /* Get Start Tick */
 355:drivers/STM32F1xx_HAL_Driver/Src/stm32f1xx_hal_rcc.c ****         tickstart = HAL_GetTick();
 356:drivers/STM32F1xx_HAL_Driver/Src/stm32f1xx_hal_rcc.c ****         
 357:drivers/STM32F1xx_HAL_Driver/Src/stm32f1xx_hal_rcc.c ****         /* Wait till HSI is ready */
 358:drivers/STM32F1xx_HAL_Driver/Src/stm32f1xx_hal_rcc.c ****         while(__HAL_RCC_GET_FLAG(RCC_FLAG_HSIRDY) == RESET)
 199              		.loc 1 358 0
 200 0098 8A4D     		ldr	r5, .L115
 352:drivers/STM32F1xx_HAL_Driver/Src/stm32f1xx_hal_rcc.c ****         
ARM GAS  /tmp/ccOtixHI.s 			page 11


 201              		.loc 1 352 0
 202 009a 1A60     		str	r2, [r3]
 355:drivers/STM32F1xx_HAL_Driver/Src/stm32f1xx_hal_rcc.c ****         
 203              		.loc 1 355 0
 204 009c FFF7FEFF 		bl	HAL_GetTick
 205              	.LVL7:
 206 00a0 0646     		mov	r6, r0
 207              	.LVL8:
 208              		.loc 1 358 0
 209 00a2 05E0     		b	.L25
 210              	.LVL9:
 211              	.L26:
 359:drivers/STM32F1xx_HAL_Driver/Src/stm32f1xx_hal_rcc.c ****         {
 360:drivers/STM32F1xx_HAL_Driver/Src/stm32f1xx_hal_rcc.c ****           if((HAL_GetTick() - tickstart ) > HSI_TIMEOUT_VALUE)
 212              		.loc 1 360 0
 213 00a4 FFF7FEFF 		bl	HAL_GetTick
 214              	.LVL10:
 215 00a8 801B     		subs	r0, r0, r6
 216 00aa 0228     		cmp	r0, #2
 217 00ac 00F2F380 		bhi	.L17
 218              	.L25:
 358:drivers/STM32F1xx_HAL_Driver/Src/stm32f1xx_hal_rcc.c ****         {
 219              		.loc 1 358 0
 220 00b0 2B68     		ldr	r3, [r5]
 221 00b2 9807     		lsls	r0, r3, #30
 222 00b4 F6D5     		bpl	.L26
 361:drivers/STM32F1xx_HAL_Driver/Src/stm32f1xx_hal_rcc.c ****           {
 362:drivers/STM32F1xx_HAL_Driver/Src/stm32f1xx_hal_rcc.c ****             return HAL_TIMEOUT;
 363:drivers/STM32F1xx_HAL_Driver/Src/stm32f1xx_hal_rcc.c ****           }
 364:drivers/STM32F1xx_HAL_Driver/Src/stm32f1xx_hal_rcc.c ****         }
 365:drivers/STM32F1xx_HAL_Driver/Src/stm32f1xx_hal_rcc.c ****                 
 366:drivers/STM32F1xx_HAL_Driver/Src/stm32f1xx_hal_rcc.c ****         /* Adjusts the Internal High Speed oscillator (HSI) calibration value.*/
 367:drivers/STM32F1xx_HAL_Driver/Src/stm32f1xx_hal_rcc.c ****         __HAL_RCC_HSI_CALIBRATIONVALUE_ADJUST(RCC_OscInitStruct->HSICalibrationValue);
 223              		.loc 1 367 0
 224 00b6 2B68     		ldr	r3, [r5]
 225 00b8 6269     		ldr	r2, [r4, #20]
 226 00ba 23F0F803 		bic	r3, r3, #248
 227 00be 43EAC203 		orr	r3, r3, r2, lsl #3
 228 00c2 2B60     		str	r3, [r5]
 229 00c4 2368     		ldr	r3, [r4]
 230              	.LVL11:
 231              	.L19:
 368:drivers/STM32F1xx_HAL_Driver/Src/stm32f1xx_hal_rcc.c ****       }
 369:drivers/STM32F1xx_HAL_Driver/Src/stm32f1xx_hal_rcc.c ****       else
 370:drivers/STM32F1xx_HAL_Driver/Src/stm32f1xx_hal_rcc.c ****       {
 371:drivers/STM32F1xx_HAL_Driver/Src/stm32f1xx_hal_rcc.c ****         /* Disable the Internal High Speed oscillator (HSI). */
 372:drivers/STM32F1xx_HAL_Driver/Src/stm32f1xx_hal_rcc.c ****         __HAL_RCC_HSI_DISABLE();
 373:drivers/STM32F1xx_HAL_Driver/Src/stm32f1xx_hal_rcc.c ****         
 374:drivers/STM32F1xx_HAL_Driver/Src/stm32f1xx_hal_rcc.c ****         /* Get Start Tick */
 375:drivers/STM32F1xx_HAL_Driver/Src/stm32f1xx_hal_rcc.c ****         tickstart = HAL_GetTick();
 376:drivers/STM32F1xx_HAL_Driver/Src/stm32f1xx_hal_rcc.c ****         
 377:drivers/STM32F1xx_HAL_Driver/Src/stm32f1xx_hal_rcc.c ****         /* Wait till HSI is disabled */
 378:drivers/STM32F1xx_HAL_Driver/Src/stm32f1xx_hal_rcc.c ****         while(__HAL_RCC_GET_FLAG(RCC_FLAG_HSIRDY) != RESET)
 379:drivers/STM32F1xx_HAL_Driver/Src/stm32f1xx_hal_rcc.c ****         {
 380:drivers/STM32F1xx_HAL_Driver/Src/stm32f1xx_hal_rcc.c ****           if((HAL_GetTick() - tickstart ) > HSI_TIMEOUT_VALUE)
 381:drivers/STM32F1xx_HAL_Driver/Src/stm32f1xx_hal_rcc.c ****           {
 382:drivers/STM32F1xx_HAL_Driver/Src/stm32f1xx_hal_rcc.c ****             return HAL_TIMEOUT;
ARM GAS  /tmp/ccOtixHI.s 			page 12


 383:drivers/STM32F1xx_HAL_Driver/Src/stm32f1xx_hal_rcc.c ****           }
 384:drivers/STM32F1xx_HAL_Driver/Src/stm32f1xx_hal_rcc.c ****         }
 385:drivers/STM32F1xx_HAL_Driver/Src/stm32f1xx_hal_rcc.c ****       }
 386:drivers/STM32F1xx_HAL_Driver/Src/stm32f1xx_hal_rcc.c ****     }
 387:drivers/STM32F1xx_HAL_Driver/Src/stm32f1xx_hal_rcc.c ****   }
 388:drivers/STM32F1xx_HAL_Driver/Src/stm32f1xx_hal_rcc.c ****   /*------------------------------ LSI Configuration -------------------------*/ 
 389:drivers/STM32F1xx_HAL_Driver/Src/stm32f1xx_hal_rcc.c ****   if(((RCC_OscInitStruct->OscillatorType) & RCC_OSCILLATORTYPE_LSI) == RCC_OSCILLATORTYPE_LSI)
 232              		.loc 1 389 0
 233 00c6 1A07     		lsls	r2, r3, #28
 234 00c8 5DD4     		bmi	.L108
 235              	.L29:
 390:drivers/STM32F1xx_HAL_Driver/Src/stm32f1xx_hal_rcc.c ****   {
 391:drivers/STM32F1xx_HAL_Driver/Src/stm32f1xx_hal_rcc.c ****     /* Check the parameters */
 392:drivers/STM32F1xx_HAL_Driver/Src/stm32f1xx_hal_rcc.c ****     assert_param(IS_RCC_LSI(RCC_OscInitStruct->LSIState));
 393:drivers/STM32F1xx_HAL_Driver/Src/stm32f1xx_hal_rcc.c ****     
 394:drivers/STM32F1xx_HAL_Driver/Src/stm32f1xx_hal_rcc.c ****     /* Check the LSI State */
 395:drivers/STM32F1xx_HAL_Driver/Src/stm32f1xx_hal_rcc.c ****     if(RCC_OscInitStruct->LSIState != RCC_LSI_OFF)
 396:drivers/STM32F1xx_HAL_Driver/Src/stm32f1xx_hal_rcc.c ****     {
 397:drivers/STM32F1xx_HAL_Driver/Src/stm32f1xx_hal_rcc.c ****       /* Enable the Internal Low Speed oscillator (LSI). */
 398:drivers/STM32F1xx_HAL_Driver/Src/stm32f1xx_hal_rcc.c ****       __HAL_RCC_LSI_ENABLE();
 399:drivers/STM32F1xx_HAL_Driver/Src/stm32f1xx_hal_rcc.c ****       
 400:drivers/STM32F1xx_HAL_Driver/Src/stm32f1xx_hal_rcc.c ****       /* Get Start Tick */
 401:drivers/STM32F1xx_HAL_Driver/Src/stm32f1xx_hal_rcc.c ****       tickstart = HAL_GetTick();
 402:drivers/STM32F1xx_HAL_Driver/Src/stm32f1xx_hal_rcc.c ****       
 403:drivers/STM32F1xx_HAL_Driver/Src/stm32f1xx_hal_rcc.c ****       /* Wait till LSI is ready */  
 404:drivers/STM32F1xx_HAL_Driver/Src/stm32f1xx_hal_rcc.c ****       while(__HAL_RCC_GET_FLAG(RCC_FLAG_LSIRDY) == RESET)
 405:drivers/STM32F1xx_HAL_Driver/Src/stm32f1xx_hal_rcc.c ****       {
 406:drivers/STM32F1xx_HAL_Driver/Src/stm32f1xx_hal_rcc.c ****         if((HAL_GetTick() - tickstart ) > LSI_TIMEOUT_VALUE)
 407:drivers/STM32F1xx_HAL_Driver/Src/stm32f1xx_hal_rcc.c ****         {
 408:drivers/STM32F1xx_HAL_Driver/Src/stm32f1xx_hal_rcc.c ****           return HAL_TIMEOUT;
 409:drivers/STM32F1xx_HAL_Driver/Src/stm32f1xx_hal_rcc.c ****         }
 410:drivers/STM32F1xx_HAL_Driver/Src/stm32f1xx_hal_rcc.c ****       }
 411:drivers/STM32F1xx_HAL_Driver/Src/stm32f1xx_hal_rcc.c ****       /*  To have a fully stabilized clock in the specified range, a software delay of 1ms 
 412:drivers/STM32F1xx_HAL_Driver/Src/stm32f1xx_hal_rcc.c ****           should be added.*/
 413:drivers/STM32F1xx_HAL_Driver/Src/stm32f1xx_hal_rcc.c ****       RCC_Delay(1);
 414:drivers/STM32F1xx_HAL_Driver/Src/stm32f1xx_hal_rcc.c ****     }
 415:drivers/STM32F1xx_HAL_Driver/Src/stm32f1xx_hal_rcc.c ****     else
 416:drivers/STM32F1xx_HAL_Driver/Src/stm32f1xx_hal_rcc.c ****     {
 417:drivers/STM32F1xx_HAL_Driver/Src/stm32f1xx_hal_rcc.c ****       /* Disable the Internal Low Speed oscillator (LSI). */
 418:drivers/STM32F1xx_HAL_Driver/Src/stm32f1xx_hal_rcc.c ****       __HAL_RCC_LSI_DISABLE();
 419:drivers/STM32F1xx_HAL_Driver/Src/stm32f1xx_hal_rcc.c ****       
 420:drivers/STM32F1xx_HAL_Driver/Src/stm32f1xx_hal_rcc.c ****       /* Get Start Tick */
 421:drivers/STM32F1xx_HAL_Driver/Src/stm32f1xx_hal_rcc.c ****       tickstart = HAL_GetTick();
 422:drivers/STM32F1xx_HAL_Driver/Src/stm32f1xx_hal_rcc.c ****       
 423:drivers/STM32F1xx_HAL_Driver/Src/stm32f1xx_hal_rcc.c ****       /* Wait till LSI is disabled */  
 424:drivers/STM32F1xx_HAL_Driver/Src/stm32f1xx_hal_rcc.c ****       while(__HAL_RCC_GET_FLAG(RCC_FLAG_LSIRDY) != RESET)
 425:drivers/STM32F1xx_HAL_Driver/Src/stm32f1xx_hal_rcc.c ****       {
 426:drivers/STM32F1xx_HAL_Driver/Src/stm32f1xx_hal_rcc.c ****         if((HAL_GetTick() - tickstart ) > LSI_TIMEOUT_VALUE)
 427:drivers/STM32F1xx_HAL_Driver/Src/stm32f1xx_hal_rcc.c ****         {
 428:drivers/STM32F1xx_HAL_Driver/Src/stm32f1xx_hal_rcc.c ****           return HAL_TIMEOUT;
 429:drivers/STM32F1xx_HAL_Driver/Src/stm32f1xx_hal_rcc.c ****         }
 430:drivers/STM32F1xx_HAL_Driver/Src/stm32f1xx_hal_rcc.c ****       }
 431:drivers/STM32F1xx_HAL_Driver/Src/stm32f1xx_hal_rcc.c ****     }
 432:drivers/STM32F1xx_HAL_Driver/Src/stm32f1xx_hal_rcc.c ****   }
 433:drivers/STM32F1xx_HAL_Driver/Src/stm32f1xx_hal_rcc.c ****   /*------------------------------ LSE Configuration -------------------------*/ 
 434:drivers/STM32F1xx_HAL_Driver/Src/stm32f1xx_hal_rcc.c ****   if(((RCC_OscInitStruct->OscillatorType) & RCC_OSCILLATORTYPE_LSE) == RCC_OSCILLATORTYPE_LSE)
 236              		.loc 1 434 0
ARM GAS  /tmp/ccOtixHI.s 			page 13


 237 00ca 5D07     		lsls	r5, r3, #29
 238 00cc 3AD5     		bpl	.L37
 239              	.LVL12:
 240              	.LBB14:
 435:drivers/STM32F1xx_HAL_Driver/Src/stm32f1xx_hal_rcc.c ****   {
 436:drivers/STM32F1xx_HAL_Driver/Src/stm32f1xx_hal_rcc.c ****     FlagStatus       pwrclkchanged = RESET;
 437:drivers/STM32F1xx_HAL_Driver/Src/stm32f1xx_hal_rcc.c ****     
 438:drivers/STM32F1xx_HAL_Driver/Src/stm32f1xx_hal_rcc.c ****     /* Check the parameters */
 439:drivers/STM32F1xx_HAL_Driver/Src/stm32f1xx_hal_rcc.c ****     assert_param(IS_RCC_LSE(RCC_OscInitStruct->LSEState));
 440:drivers/STM32F1xx_HAL_Driver/Src/stm32f1xx_hal_rcc.c **** 
 441:drivers/STM32F1xx_HAL_Driver/Src/stm32f1xx_hal_rcc.c ****     /* Update LSE configuration in Backup Domain control register    */
 442:drivers/STM32F1xx_HAL_Driver/Src/stm32f1xx_hal_rcc.c ****     /* Requires to enable write access to Backup Domain of necessary */
 443:drivers/STM32F1xx_HAL_Driver/Src/stm32f1xx_hal_rcc.c ****     if(__HAL_RCC_PWR_IS_CLK_DISABLED())
 241              		.loc 1 443 0
 242 00ce 7D4B     		ldr	r3, .L115
 243 00d0 DA69     		ldr	r2, [r3, #28]
 244 00d2 D000     		lsls	r0, r2, #3
 245 00d4 00F1A680 		bmi	.L65
 444:drivers/STM32F1xx_HAL_Driver/Src/stm32f1xx_hal_rcc.c ****     {
 445:drivers/STM32F1xx_HAL_Driver/Src/stm32f1xx_hal_rcc.c ****       __HAL_RCC_PWR_CLK_ENABLE();
 446:drivers/STM32F1xx_HAL_Driver/Src/stm32f1xx_hal_rcc.c ****       pwrclkchanged = SET;
 246              		.loc 1 446 0
 247 00d8 0125     		movs	r5, #1
 248              	.LBB15:
 445:drivers/STM32F1xx_HAL_Driver/Src/stm32f1xx_hal_rcc.c ****       pwrclkchanged = SET;
 249              		.loc 1 445 0
 250 00da DA69     		ldr	r2, [r3, #28]
 251 00dc 42F08052 		orr	r2, r2, #268435456
 252 00e0 DA61     		str	r2, [r3, #28]
 253 00e2 DB69     		ldr	r3, [r3, #28]
 254 00e4 03F08053 		and	r3, r3, #268435456
 255 00e8 0093     		str	r3, [sp]
 256 00ea 009B     		ldr	r3, [sp]
 257              	.LVL13:
 258              	.L38:
 259              	.LBE15:
 447:drivers/STM32F1xx_HAL_Driver/Src/stm32f1xx_hal_rcc.c ****     }
 448:drivers/STM32F1xx_HAL_Driver/Src/stm32f1xx_hal_rcc.c ****     
 449:drivers/STM32F1xx_HAL_Driver/Src/stm32f1xx_hal_rcc.c ****     if(HAL_IS_BIT_CLR(PWR->CR, PWR_CR_DBP))
 260              		.loc 1 449 0
 261 00ec 774B     		ldr	r3, .L115+8
 262 00ee 1A68     		ldr	r2, [r3]
 263 00f0 D105     		lsls	r1, r2, #23
 264 00f2 40F1BF80 		bpl	.L39
 265              	.L44:
 450:drivers/STM32F1xx_HAL_Driver/Src/stm32f1xx_hal_rcc.c ****     {
 451:drivers/STM32F1xx_HAL_Driver/Src/stm32f1xx_hal_rcc.c ****       /* Enable write access to Backup domain */
 452:drivers/STM32F1xx_HAL_Driver/Src/stm32f1xx_hal_rcc.c ****       SET_BIT(PWR->CR, PWR_CR_DBP);
 453:drivers/STM32F1xx_HAL_Driver/Src/stm32f1xx_hal_rcc.c ****       
 454:drivers/STM32F1xx_HAL_Driver/Src/stm32f1xx_hal_rcc.c ****       /* Wait for Backup domain Write protection disable */
 455:drivers/STM32F1xx_HAL_Driver/Src/stm32f1xx_hal_rcc.c ****       tickstart = HAL_GetTick();
 456:drivers/STM32F1xx_HAL_Driver/Src/stm32f1xx_hal_rcc.c **** 
 457:drivers/STM32F1xx_HAL_Driver/Src/stm32f1xx_hal_rcc.c ****       while(HAL_IS_BIT_CLR(PWR->CR, PWR_CR_DBP))
 458:drivers/STM32F1xx_HAL_Driver/Src/stm32f1xx_hal_rcc.c ****       {
 459:drivers/STM32F1xx_HAL_Driver/Src/stm32f1xx_hal_rcc.c ****         if((HAL_GetTick() - tickstart) > RCC_DBP_TIMEOUT_VALUE)
 460:drivers/STM32F1xx_HAL_Driver/Src/stm32f1xx_hal_rcc.c ****         {
 461:drivers/STM32F1xx_HAL_Driver/Src/stm32f1xx_hal_rcc.c ****           return HAL_TIMEOUT;
ARM GAS  /tmp/ccOtixHI.s 			page 14


 462:drivers/STM32F1xx_HAL_Driver/Src/stm32f1xx_hal_rcc.c ****         }
 463:drivers/STM32F1xx_HAL_Driver/Src/stm32f1xx_hal_rcc.c ****       }
 464:drivers/STM32F1xx_HAL_Driver/Src/stm32f1xx_hal_rcc.c ****     }
 465:drivers/STM32F1xx_HAL_Driver/Src/stm32f1xx_hal_rcc.c **** 
 466:drivers/STM32F1xx_HAL_Driver/Src/stm32f1xx_hal_rcc.c ****     /* Set the new LSE configuration -----------------------------------------*/
 467:drivers/STM32F1xx_HAL_Driver/Src/stm32f1xx_hal_rcc.c ****     __HAL_RCC_LSE_CONFIG(RCC_OscInitStruct->LSEState);
 266              		.loc 1 467 0
 267 00f6 E368     		ldr	r3, [r4, #12]
 268 00f8 012B     		cmp	r3, #1
 269 00fa 00F01481 		beq	.L109
 270              		.loc 1 467 0 is_stmt 0 discriminator 2
 271 00fe 002B     		cmp	r3, #0
 272 0100 00F0CD80 		beq	.L110
 273              		.loc 1 467 0 discriminator 4
 274 0104 052B     		cmp	r3, #5
 275 0106 6F4B     		ldr	r3, .L115
 276 0108 1A6A     		ldr	r2, [r3, #32]
 277 010a 00F04F81 		beq	.L111
 278              		.loc 1 467 0 discriminator 6
 279 010e 22F00102 		bic	r2, r2, #1
 280 0112 1A62     		str	r2, [r3, #32]
 281 0114 1A6A     		ldr	r2, [r3, #32]
 282 0116 22F00402 		bic	r2, r2, #4
 283 011a 1A62     		str	r2, [r3, #32]
 284              	.L45:
 468:drivers/STM32F1xx_HAL_Driver/Src/stm32f1xx_hal_rcc.c ****     /* Check the LSE State */
 469:drivers/STM32F1xx_HAL_Driver/Src/stm32f1xx_hal_rcc.c ****     if(RCC_OscInitStruct->LSEState != RCC_LSE_OFF)
 470:drivers/STM32F1xx_HAL_Driver/Src/stm32f1xx_hal_rcc.c ****     {
 471:drivers/STM32F1xx_HAL_Driver/Src/stm32f1xx_hal_rcc.c ****       /* Get Start Tick */
 472:drivers/STM32F1xx_HAL_Driver/Src/stm32f1xx_hal_rcc.c ****       tickstart = HAL_GetTick();
 285              		.loc 1 472 0 is_stmt 1
 286 011c FFF7FEFF 		bl	HAL_GetTick
 287              	.LVL14:
 473:drivers/STM32F1xx_HAL_Driver/Src/stm32f1xx_hal_rcc.c ****       
 474:drivers/STM32F1xx_HAL_Driver/Src/stm32f1xx_hal_rcc.c ****       /* Wait till LSE is ready */  
 475:drivers/STM32F1xx_HAL_Driver/Src/stm32f1xx_hal_rcc.c ****       while(__HAL_RCC_GET_FLAG(RCC_FLAG_LSERDY) == RESET)
 288              		.loc 1 475 0
 289 0120 684E     		ldr	r6, .L115
 472:drivers/STM32F1xx_HAL_Driver/Src/stm32f1xx_hal_rcc.c ****       
 290              		.loc 1 472 0
 291 0122 8046     		mov	r8, r0
 292              	.LVL15:
 476:drivers/STM32F1xx_HAL_Driver/Src/stm32f1xx_hal_rcc.c ****       {
 477:drivers/STM32F1xx_HAL_Driver/Src/stm32f1xx_hal_rcc.c ****         if((HAL_GetTick() - tickstart ) > RCC_LSE_TIMEOUT_VALUE)
 293              		.loc 1 477 0
 294 0124 41F28837 		movw	r7, #5000
 475:drivers/STM32F1xx_HAL_Driver/Src/stm32f1xx_hal_rcc.c ****       {
 295              		.loc 1 475 0
 296 0128 06E0     		b	.L64
 297              	.LVL16:
 298              	.L49:
 299              		.loc 1 477 0
 300 012a FFF7FEFF 		bl	HAL_GetTick
 301              	.LVL17:
 302 012e A0EB0800 		sub	r0, r0, r8
 303 0132 B842     		cmp	r0, r7
 304 0134 00F2AF80 		bhi	.L17
ARM GAS  /tmp/ccOtixHI.s 			page 15


 305              	.L64:
 475:drivers/STM32F1xx_HAL_Driver/Src/stm32f1xx_hal_rcc.c ****       {
 306              		.loc 1 475 0
 307 0138 336A     		ldr	r3, [r6, #32]
 308 013a 9B07     		lsls	r3, r3, #30
 309 013c F5D5     		bpl	.L49
 478:drivers/STM32F1xx_HAL_Driver/Src/stm32f1xx_hal_rcc.c ****         {
 479:drivers/STM32F1xx_HAL_Driver/Src/stm32f1xx_hal_rcc.c ****           return HAL_TIMEOUT;
 480:drivers/STM32F1xx_HAL_Driver/Src/stm32f1xx_hal_rcc.c ****         }
 481:drivers/STM32F1xx_HAL_Driver/Src/stm32f1xx_hal_rcc.c ****       }
 482:drivers/STM32F1xx_HAL_Driver/Src/stm32f1xx_hal_rcc.c ****     }
 483:drivers/STM32F1xx_HAL_Driver/Src/stm32f1xx_hal_rcc.c ****     else
 484:drivers/STM32F1xx_HAL_Driver/Src/stm32f1xx_hal_rcc.c ****     {
 485:drivers/STM32F1xx_HAL_Driver/Src/stm32f1xx_hal_rcc.c ****       /* Get Start Tick */
 486:drivers/STM32F1xx_HAL_Driver/Src/stm32f1xx_hal_rcc.c ****       tickstart = HAL_GetTick();
 487:drivers/STM32F1xx_HAL_Driver/Src/stm32f1xx_hal_rcc.c ****       
 488:drivers/STM32F1xx_HAL_Driver/Src/stm32f1xx_hal_rcc.c ****       /* Wait till LSE is disabled */  
 489:drivers/STM32F1xx_HAL_Driver/Src/stm32f1xx_hal_rcc.c ****       while(__HAL_RCC_GET_FLAG(RCC_FLAG_LSERDY) != RESET)
 490:drivers/STM32F1xx_HAL_Driver/Src/stm32f1xx_hal_rcc.c ****       {
 491:drivers/STM32F1xx_HAL_Driver/Src/stm32f1xx_hal_rcc.c ****         if((HAL_GetTick() - tickstart ) > RCC_LSE_TIMEOUT_VALUE)
 492:drivers/STM32F1xx_HAL_Driver/Src/stm32f1xx_hal_rcc.c ****         {
 493:drivers/STM32F1xx_HAL_Driver/Src/stm32f1xx_hal_rcc.c ****           return HAL_TIMEOUT;
 494:drivers/STM32F1xx_HAL_Driver/Src/stm32f1xx_hal_rcc.c ****         }
 495:drivers/STM32F1xx_HAL_Driver/Src/stm32f1xx_hal_rcc.c ****       }
 496:drivers/STM32F1xx_HAL_Driver/Src/stm32f1xx_hal_rcc.c ****     }
 497:drivers/STM32F1xx_HAL_Driver/Src/stm32f1xx_hal_rcc.c **** 
 498:drivers/STM32F1xx_HAL_Driver/Src/stm32f1xx_hal_rcc.c ****     /* Require to disable power clock if necessary */
 499:drivers/STM32F1xx_HAL_Driver/Src/stm32f1xx_hal_rcc.c ****     if(pwrclkchanged == SET)
 310              		.loc 1 499 0
 311 013e 002D     		cmp	r5, #0
 312 0140 40F0F780 		bne	.L112
 313              	.LVL18:
 314              	.L37:
 315              	.LBE14:
 500:drivers/STM32F1xx_HAL_Driver/Src/stm32f1xx_hal_rcc.c ****     {
 501:drivers/STM32F1xx_HAL_Driver/Src/stm32f1xx_hal_rcc.c ****       __HAL_RCC_PWR_CLK_DISABLE();
 502:drivers/STM32F1xx_HAL_Driver/Src/stm32f1xx_hal_rcc.c ****     }
 503:drivers/STM32F1xx_HAL_Driver/Src/stm32f1xx_hal_rcc.c ****   }
 504:drivers/STM32F1xx_HAL_Driver/Src/stm32f1xx_hal_rcc.c **** 
 505:drivers/STM32F1xx_HAL_Driver/Src/stm32f1xx_hal_rcc.c **** #if defined(RCC_CR_PLL2ON)
 506:drivers/STM32F1xx_HAL_Driver/Src/stm32f1xx_hal_rcc.c ****   /*-------------------------------- PLL2 Configuration -----------------------*/
 507:drivers/STM32F1xx_HAL_Driver/Src/stm32f1xx_hal_rcc.c ****   /* Check the parameters */
 508:drivers/STM32F1xx_HAL_Driver/Src/stm32f1xx_hal_rcc.c ****   assert_param(IS_RCC_PLL2(RCC_OscInitStruct->PLL2.PLL2State));
 509:drivers/STM32F1xx_HAL_Driver/Src/stm32f1xx_hal_rcc.c ****   if ((RCC_OscInitStruct->PLL2.PLL2State) != RCC_PLL2_NONE)
 510:drivers/STM32F1xx_HAL_Driver/Src/stm32f1xx_hal_rcc.c ****   {
 511:drivers/STM32F1xx_HAL_Driver/Src/stm32f1xx_hal_rcc.c ****     /* This bit can not be cleared if the PLL2 clock is used indirectly as system 
 512:drivers/STM32F1xx_HAL_Driver/Src/stm32f1xx_hal_rcc.c ****       clock (i.e. it is used as PLL clock entry that is used as system clock). */
 513:drivers/STM32F1xx_HAL_Driver/Src/stm32f1xx_hal_rcc.c ****     if((__HAL_RCC_GET_PLL_OSCSOURCE() == RCC_PLLSOURCE_HSE) && \
 514:drivers/STM32F1xx_HAL_Driver/Src/stm32f1xx_hal_rcc.c ****         (__HAL_RCC_GET_SYSCLK_SOURCE() == RCC_SYSCLKSOURCE_STATUS_PLLCLK) && \
 515:drivers/STM32F1xx_HAL_Driver/Src/stm32f1xx_hal_rcc.c ****         ((READ_BIT(RCC->CFGR2,RCC_CFGR2_PREDIV1SRC)) == RCC_CFGR2_PREDIV1SRC_PLL2))
 516:drivers/STM32F1xx_HAL_Driver/Src/stm32f1xx_hal_rcc.c ****     {
 517:drivers/STM32F1xx_HAL_Driver/Src/stm32f1xx_hal_rcc.c ****       return HAL_ERROR;
 518:drivers/STM32F1xx_HAL_Driver/Src/stm32f1xx_hal_rcc.c ****     }
 519:drivers/STM32F1xx_HAL_Driver/Src/stm32f1xx_hal_rcc.c ****     else
 520:drivers/STM32F1xx_HAL_Driver/Src/stm32f1xx_hal_rcc.c ****     {
 521:drivers/STM32F1xx_HAL_Driver/Src/stm32f1xx_hal_rcc.c ****       if((RCC_OscInitStruct->PLL2.PLL2State) == RCC_PLL2_ON)
 522:drivers/STM32F1xx_HAL_Driver/Src/stm32f1xx_hal_rcc.c ****       {
ARM GAS  /tmp/ccOtixHI.s 			page 16


 523:drivers/STM32F1xx_HAL_Driver/Src/stm32f1xx_hal_rcc.c ****         /* Check the parameters */
 524:drivers/STM32F1xx_HAL_Driver/Src/stm32f1xx_hal_rcc.c ****         assert_param(IS_RCC_PLL2_MUL(RCC_OscInitStruct->PLL2.PLL2MUL));
 525:drivers/STM32F1xx_HAL_Driver/Src/stm32f1xx_hal_rcc.c ****         assert_param(IS_RCC_HSE_PREDIV2(RCC_OscInitStruct->PLL2.HSEPrediv2Value));
 526:drivers/STM32F1xx_HAL_Driver/Src/stm32f1xx_hal_rcc.c **** 
 527:drivers/STM32F1xx_HAL_Driver/Src/stm32f1xx_hal_rcc.c ****         /* Prediv2 can be written only when the PLLI2S is disabled. */
 528:drivers/STM32F1xx_HAL_Driver/Src/stm32f1xx_hal_rcc.c ****         /* Return an error only if new value is different from the programmed value */
 529:drivers/STM32F1xx_HAL_Driver/Src/stm32f1xx_hal_rcc.c ****         if (HAL_IS_BIT_SET(RCC->CR,RCC_CR_PLL3ON) && \
 530:drivers/STM32F1xx_HAL_Driver/Src/stm32f1xx_hal_rcc.c ****           (__HAL_RCC_HSE_GET_PREDIV2() != RCC_OscInitStruct->PLL2.HSEPrediv2Value))
 531:drivers/STM32F1xx_HAL_Driver/Src/stm32f1xx_hal_rcc.c ****         {
 532:drivers/STM32F1xx_HAL_Driver/Src/stm32f1xx_hal_rcc.c ****           return HAL_ERROR;
 533:drivers/STM32F1xx_HAL_Driver/Src/stm32f1xx_hal_rcc.c ****         }
 534:drivers/STM32F1xx_HAL_Driver/Src/stm32f1xx_hal_rcc.c ****         
 535:drivers/STM32F1xx_HAL_Driver/Src/stm32f1xx_hal_rcc.c ****         /* Disable the main PLL2. */
 536:drivers/STM32F1xx_HAL_Driver/Src/stm32f1xx_hal_rcc.c ****         __HAL_RCC_PLL2_DISABLE();
 537:drivers/STM32F1xx_HAL_Driver/Src/stm32f1xx_hal_rcc.c ****         
 538:drivers/STM32F1xx_HAL_Driver/Src/stm32f1xx_hal_rcc.c ****         /* Get Start Tick */
 539:drivers/STM32F1xx_HAL_Driver/Src/stm32f1xx_hal_rcc.c ****         tickstart = HAL_GetTick();
 540:drivers/STM32F1xx_HAL_Driver/Src/stm32f1xx_hal_rcc.c ****         
 541:drivers/STM32F1xx_HAL_Driver/Src/stm32f1xx_hal_rcc.c ****         /* Wait till PLL2 is disabled */
 542:drivers/STM32F1xx_HAL_Driver/Src/stm32f1xx_hal_rcc.c ****         while(__HAL_RCC_GET_FLAG(RCC_FLAG_PLL2RDY) != RESET)
 543:drivers/STM32F1xx_HAL_Driver/Src/stm32f1xx_hal_rcc.c ****         {
 544:drivers/STM32F1xx_HAL_Driver/Src/stm32f1xx_hal_rcc.c ****           if((HAL_GetTick() - tickstart ) > PLL2_TIMEOUT_VALUE)
 545:drivers/STM32F1xx_HAL_Driver/Src/stm32f1xx_hal_rcc.c ****           {
 546:drivers/STM32F1xx_HAL_Driver/Src/stm32f1xx_hal_rcc.c ****             return HAL_TIMEOUT;
 547:drivers/STM32F1xx_HAL_Driver/Src/stm32f1xx_hal_rcc.c ****           }
 548:drivers/STM32F1xx_HAL_Driver/Src/stm32f1xx_hal_rcc.c ****         }
 549:drivers/STM32F1xx_HAL_Driver/Src/stm32f1xx_hal_rcc.c ****         
 550:drivers/STM32F1xx_HAL_Driver/Src/stm32f1xx_hal_rcc.c ****         /* Configure the HSE prediv2 factor --------------------------------*/
 551:drivers/STM32F1xx_HAL_Driver/Src/stm32f1xx_hal_rcc.c ****         __HAL_RCC_HSE_PREDIV2_CONFIG(RCC_OscInitStruct->PLL2.HSEPrediv2Value);
 552:drivers/STM32F1xx_HAL_Driver/Src/stm32f1xx_hal_rcc.c **** 
 553:drivers/STM32F1xx_HAL_Driver/Src/stm32f1xx_hal_rcc.c ****         /* Configure the main PLL2 multiplication factors. */
 554:drivers/STM32F1xx_HAL_Driver/Src/stm32f1xx_hal_rcc.c ****         __HAL_RCC_PLL2_CONFIG(RCC_OscInitStruct->PLL2.PLL2MUL);
 555:drivers/STM32F1xx_HAL_Driver/Src/stm32f1xx_hal_rcc.c ****         
 556:drivers/STM32F1xx_HAL_Driver/Src/stm32f1xx_hal_rcc.c ****         /* Enable the main PLL2. */
 557:drivers/STM32F1xx_HAL_Driver/Src/stm32f1xx_hal_rcc.c ****         __HAL_RCC_PLL2_ENABLE();
 558:drivers/STM32F1xx_HAL_Driver/Src/stm32f1xx_hal_rcc.c ****         
 559:drivers/STM32F1xx_HAL_Driver/Src/stm32f1xx_hal_rcc.c ****         /* Get Start Tick */
 560:drivers/STM32F1xx_HAL_Driver/Src/stm32f1xx_hal_rcc.c ****         tickstart = HAL_GetTick();
 561:drivers/STM32F1xx_HAL_Driver/Src/stm32f1xx_hal_rcc.c ****         
 562:drivers/STM32F1xx_HAL_Driver/Src/stm32f1xx_hal_rcc.c ****         /* Wait till PLL2 is ready */
 563:drivers/STM32F1xx_HAL_Driver/Src/stm32f1xx_hal_rcc.c ****         while(__HAL_RCC_GET_FLAG(RCC_FLAG_PLL2RDY)  == RESET)
 564:drivers/STM32F1xx_HAL_Driver/Src/stm32f1xx_hal_rcc.c ****         {
 565:drivers/STM32F1xx_HAL_Driver/Src/stm32f1xx_hal_rcc.c ****           if((HAL_GetTick() - tickstart ) > PLL2_TIMEOUT_VALUE)
 566:drivers/STM32F1xx_HAL_Driver/Src/stm32f1xx_hal_rcc.c ****           {
 567:drivers/STM32F1xx_HAL_Driver/Src/stm32f1xx_hal_rcc.c ****             return HAL_TIMEOUT;
 568:drivers/STM32F1xx_HAL_Driver/Src/stm32f1xx_hal_rcc.c ****           }
 569:drivers/STM32F1xx_HAL_Driver/Src/stm32f1xx_hal_rcc.c ****         }
 570:drivers/STM32F1xx_HAL_Driver/Src/stm32f1xx_hal_rcc.c ****       }
 571:drivers/STM32F1xx_HAL_Driver/Src/stm32f1xx_hal_rcc.c ****       else
 572:drivers/STM32F1xx_HAL_Driver/Src/stm32f1xx_hal_rcc.c ****       {
 573:drivers/STM32F1xx_HAL_Driver/Src/stm32f1xx_hal_rcc.c ****        /* Set PREDIV1 source to HSE */
 574:drivers/STM32F1xx_HAL_Driver/Src/stm32f1xx_hal_rcc.c ****         CLEAR_BIT(RCC->CFGR2, RCC_CFGR2_PREDIV1SRC);
 575:drivers/STM32F1xx_HAL_Driver/Src/stm32f1xx_hal_rcc.c **** 
 576:drivers/STM32F1xx_HAL_Driver/Src/stm32f1xx_hal_rcc.c ****         /* Disable the main PLL2. */
 577:drivers/STM32F1xx_HAL_Driver/Src/stm32f1xx_hal_rcc.c ****         __HAL_RCC_PLL2_DISABLE();
 578:drivers/STM32F1xx_HAL_Driver/Src/stm32f1xx_hal_rcc.c ****  
 579:drivers/STM32F1xx_HAL_Driver/Src/stm32f1xx_hal_rcc.c ****         /* Get Start Tick */
ARM GAS  /tmp/ccOtixHI.s 			page 17


 580:drivers/STM32F1xx_HAL_Driver/Src/stm32f1xx_hal_rcc.c ****         tickstart = HAL_GetTick();
 581:drivers/STM32F1xx_HAL_Driver/Src/stm32f1xx_hal_rcc.c ****         
 582:drivers/STM32F1xx_HAL_Driver/Src/stm32f1xx_hal_rcc.c ****         /* Wait till PLL2 is disabled */  
 583:drivers/STM32F1xx_HAL_Driver/Src/stm32f1xx_hal_rcc.c ****         while(__HAL_RCC_GET_FLAG(RCC_FLAG_PLL2RDY)  != RESET)
 584:drivers/STM32F1xx_HAL_Driver/Src/stm32f1xx_hal_rcc.c ****         {
 585:drivers/STM32F1xx_HAL_Driver/Src/stm32f1xx_hal_rcc.c ****           if((HAL_GetTick() - tickstart ) > PLL2_TIMEOUT_VALUE)
 586:drivers/STM32F1xx_HAL_Driver/Src/stm32f1xx_hal_rcc.c ****           {
 587:drivers/STM32F1xx_HAL_Driver/Src/stm32f1xx_hal_rcc.c ****             return HAL_TIMEOUT;
 588:drivers/STM32F1xx_HAL_Driver/Src/stm32f1xx_hal_rcc.c ****           }
 589:drivers/STM32F1xx_HAL_Driver/Src/stm32f1xx_hal_rcc.c ****         }
 590:drivers/STM32F1xx_HAL_Driver/Src/stm32f1xx_hal_rcc.c ****       }
 591:drivers/STM32F1xx_HAL_Driver/Src/stm32f1xx_hal_rcc.c ****     }
 592:drivers/STM32F1xx_HAL_Driver/Src/stm32f1xx_hal_rcc.c ****   }
 593:drivers/STM32F1xx_HAL_Driver/Src/stm32f1xx_hal_rcc.c **** 
 594:drivers/STM32F1xx_HAL_Driver/Src/stm32f1xx_hal_rcc.c **** #endif /* RCC_CR_PLL2ON */
 595:drivers/STM32F1xx_HAL_Driver/Src/stm32f1xx_hal_rcc.c ****   /*-------------------------------- PLL Configuration -----------------------*/
 596:drivers/STM32F1xx_HAL_Driver/Src/stm32f1xx_hal_rcc.c ****   /* Check the parameters */
 597:drivers/STM32F1xx_HAL_Driver/Src/stm32f1xx_hal_rcc.c ****   assert_param(IS_RCC_PLL(RCC_OscInitStruct->PLL.PLLState));
 598:drivers/STM32F1xx_HAL_Driver/Src/stm32f1xx_hal_rcc.c ****   if ((RCC_OscInitStruct->PLL.PLLState) != RCC_PLL_NONE)
 316              		.loc 1 598 0
 317 0144 E369     		ldr	r3, [r4, #28]
 318 0146 D3B1     		cbz	r3, .L61
 599:drivers/STM32F1xx_HAL_Driver/Src/stm32f1xx_hal_rcc.c ****   {
 600:drivers/STM32F1xx_HAL_Driver/Src/stm32f1xx_hal_rcc.c ****     /* Check if the PLL is used as system clock or not */
 601:drivers/STM32F1xx_HAL_Driver/Src/stm32f1xx_hal_rcc.c ****     if(__HAL_RCC_GET_SYSCLK_SOURCE() != RCC_SYSCLKSOURCE_STATUS_PLLCLK)
 319              		.loc 1 601 0
 320 0148 5E4D     		ldr	r5, .L115
 321 014a 6A68     		ldr	r2, [r5, #4]
 322 014c 02F00C02 		and	r2, r2, #12
 323 0150 082A     		cmp	r2, #8
 324 0152 45D0     		beq	.L23
 602:drivers/STM32F1xx_HAL_Driver/Src/stm32f1xx_hal_rcc.c ****     { 
 603:drivers/STM32F1xx_HAL_Driver/Src/stm32f1xx_hal_rcc.c ****       if((RCC_OscInitStruct->PLL.PLLState) == RCC_PLL_ON)
 325              		.loc 1 603 0
 326 0154 022B     		cmp	r3, #2
 604:drivers/STM32F1xx_HAL_Driver/Src/stm32f1xx_hal_rcc.c ****       {
 605:drivers/STM32F1xx_HAL_Driver/Src/stm32f1xx_hal_rcc.c ****         /* Check the parameters */
 606:drivers/STM32F1xx_HAL_Driver/Src/stm32f1xx_hal_rcc.c ****         assert_param(IS_RCC_PLLSOURCE(RCC_OscInitStruct->PLL.PLLSource));
 607:drivers/STM32F1xx_HAL_Driver/Src/stm32f1xx_hal_rcc.c ****         assert_param(IS_RCC_PLL_MUL(RCC_OscInitStruct->PLL.PLLMUL));
 608:drivers/STM32F1xx_HAL_Driver/Src/stm32f1xx_hal_rcc.c ****   
 609:drivers/STM32F1xx_HAL_Driver/Src/stm32f1xx_hal_rcc.c ****         /* Disable the main PLL. */
 610:drivers/STM32F1xx_HAL_Driver/Src/stm32f1xx_hal_rcc.c ****         __HAL_RCC_PLL_DISABLE();
 327              		.loc 1 610 0
 328 0156 4FF00002 		mov	r2, #0
 329 015a 5D4B     		ldr	r3, .L115+12
 603:drivers/STM32F1xx_HAL_Driver/Src/stm32f1xx_hal_rcc.c ****       {
 330              		.loc 1 603 0
 331 015c 00F0EF80 		beq	.L113
 611:drivers/STM32F1xx_HAL_Driver/Src/stm32f1xx_hal_rcc.c ****         
 612:drivers/STM32F1xx_HAL_Driver/Src/stm32f1xx_hal_rcc.c ****         /* Get Start Tick */
 613:drivers/STM32F1xx_HAL_Driver/Src/stm32f1xx_hal_rcc.c ****         tickstart = HAL_GetTick();
 614:drivers/STM32F1xx_HAL_Driver/Src/stm32f1xx_hal_rcc.c ****         
 615:drivers/STM32F1xx_HAL_Driver/Src/stm32f1xx_hal_rcc.c ****         /* Wait till PLL is disabled */
 616:drivers/STM32F1xx_HAL_Driver/Src/stm32f1xx_hal_rcc.c ****         while(__HAL_RCC_GET_FLAG(RCC_FLAG_PLLRDY)  != RESET)
 617:drivers/STM32F1xx_HAL_Driver/Src/stm32f1xx_hal_rcc.c ****         {
 618:drivers/STM32F1xx_HAL_Driver/Src/stm32f1xx_hal_rcc.c ****           if((HAL_GetTick() - tickstart ) > PLL_TIMEOUT_VALUE)
 619:drivers/STM32F1xx_HAL_Driver/Src/stm32f1xx_hal_rcc.c ****           {
ARM GAS  /tmp/ccOtixHI.s 			page 18


 620:drivers/STM32F1xx_HAL_Driver/Src/stm32f1xx_hal_rcc.c ****             return HAL_TIMEOUT;
 621:drivers/STM32F1xx_HAL_Driver/Src/stm32f1xx_hal_rcc.c ****           }
 622:drivers/STM32F1xx_HAL_Driver/Src/stm32f1xx_hal_rcc.c ****         }
 623:drivers/STM32F1xx_HAL_Driver/Src/stm32f1xx_hal_rcc.c **** 
 624:drivers/STM32F1xx_HAL_Driver/Src/stm32f1xx_hal_rcc.c ****         /* Configure the HSE prediv factor --------------------------------*/
 625:drivers/STM32F1xx_HAL_Driver/Src/stm32f1xx_hal_rcc.c ****         /* It can be written only when the PLL is disabled. Not used in PLL source is different tha
 626:drivers/STM32F1xx_HAL_Driver/Src/stm32f1xx_hal_rcc.c ****         if(RCC_OscInitStruct->PLL.PLLSource == RCC_PLLSOURCE_HSE)
 627:drivers/STM32F1xx_HAL_Driver/Src/stm32f1xx_hal_rcc.c ****         {
 628:drivers/STM32F1xx_HAL_Driver/Src/stm32f1xx_hal_rcc.c ****           /* Check the parameter */
 629:drivers/STM32F1xx_HAL_Driver/Src/stm32f1xx_hal_rcc.c ****           assert_param(IS_RCC_HSE_PREDIV(RCC_OscInitStruct->HSEPredivValue));
 630:drivers/STM32F1xx_HAL_Driver/Src/stm32f1xx_hal_rcc.c **** #if defined(RCC_CFGR2_PREDIV1SRC)
 631:drivers/STM32F1xx_HAL_Driver/Src/stm32f1xx_hal_rcc.c ****           assert_param(IS_RCC_PREDIV1_SOURCE(RCC_OscInitStruct->Prediv1Source));
 632:drivers/STM32F1xx_HAL_Driver/Src/stm32f1xx_hal_rcc.c ****           
 633:drivers/STM32F1xx_HAL_Driver/Src/stm32f1xx_hal_rcc.c ****           /* Set PREDIV1 source */
 634:drivers/STM32F1xx_HAL_Driver/Src/stm32f1xx_hal_rcc.c ****           SET_BIT(RCC->CFGR2, RCC_OscInitStruct->Prediv1Source);
 635:drivers/STM32F1xx_HAL_Driver/Src/stm32f1xx_hal_rcc.c **** #endif /* RCC_CFGR2_PREDIV1SRC */
 636:drivers/STM32F1xx_HAL_Driver/Src/stm32f1xx_hal_rcc.c **** 
 637:drivers/STM32F1xx_HAL_Driver/Src/stm32f1xx_hal_rcc.c ****           /* Set PREDIV1 Value */
 638:drivers/STM32F1xx_HAL_Driver/Src/stm32f1xx_hal_rcc.c ****           __HAL_RCC_HSE_PREDIV_CONFIG(RCC_OscInitStruct->HSEPredivValue);
 639:drivers/STM32F1xx_HAL_Driver/Src/stm32f1xx_hal_rcc.c ****         }
 640:drivers/STM32F1xx_HAL_Driver/Src/stm32f1xx_hal_rcc.c **** 
 641:drivers/STM32F1xx_HAL_Driver/Src/stm32f1xx_hal_rcc.c ****         /* Configure the main PLL clock source and multiplication factors. */
 642:drivers/STM32F1xx_HAL_Driver/Src/stm32f1xx_hal_rcc.c ****         __HAL_RCC_PLL_CONFIG(RCC_OscInitStruct->PLL.PLLSource,
 643:drivers/STM32F1xx_HAL_Driver/Src/stm32f1xx_hal_rcc.c ****                              RCC_OscInitStruct->PLL.PLLMUL);
 644:drivers/STM32F1xx_HAL_Driver/Src/stm32f1xx_hal_rcc.c ****         /* Enable the main PLL. */
 645:drivers/STM32F1xx_HAL_Driver/Src/stm32f1xx_hal_rcc.c ****         __HAL_RCC_PLL_ENABLE();
 646:drivers/STM32F1xx_HAL_Driver/Src/stm32f1xx_hal_rcc.c ****         
 647:drivers/STM32F1xx_HAL_Driver/Src/stm32f1xx_hal_rcc.c ****         /* Get Start Tick */
 648:drivers/STM32F1xx_HAL_Driver/Src/stm32f1xx_hal_rcc.c ****         tickstart = HAL_GetTick();
 649:drivers/STM32F1xx_HAL_Driver/Src/stm32f1xx_hal_rcc.c ****         
 650:drivers/STM32F1xx_HAL_Driver/Src/stm32f1xx_hal_rcc.c ****         /* Wait till PLL is ready */
 651:drivers/STM32F1xx_HAL_Driver/Src/stm32f1xx_hal_rcc.c ****         while(__HAL_RCC_GET_FLAG(RCC_FLAG_PLLRDY)  == RESET)
 652:drivers/STM32F1xx_HAL_Driver/Src/stm32f1xx_hal_rcc.c ****         {
 653:drivers/STM32F1xx_HAL_Driver/Src/stm32f1xx_hal_rcc.c ****           if((HAL_GetTick() - tickstart ) > PLL_TIMEOUT_VALUE)
 654:drivers/STM32F1xx_HAL_Driver/Src/stm32f1xx_hal_rcc.c ****           {
 655:drivers/STM32F1xx_HAL_Driver/Src/stm32f1xx_hal_rcc.c ****             return HAL_TIMEOUT;
 656:drivers/STM32F1xx_HAL_Driver/Src/stm32f1xx_hal_rcc.c ****           }
 657:drivers/STM32F1xx_HAL_Driver/Src/stm32f1xx_hal_rcc.c ****         }
 658:drivers/STM32F1xx_HAL_Driver/Src/stm32f1xx_hal_rcc.c ****       }
 659:drivers/STM32F1xx_HAL_Driver/Src/stm32f1xx_hal_rcc.c ****       else
 660:drivers/STM32F1xx_HAL_Driver/Src/stm32f1xx_hal_rcc.c ****       {
 661:drivers/STM32F1xx_HAL_Driver/Src/stm32f1xx_hal_rcc.c ****         /* Disable the main PLL. */
 662:drivers/STM32F1xx_HAL_Driver/Src/stm32f1xx_hal_rcc.c ****         __HAL_RCC_PLL_DISABLE();
 332              		.loc 1 662 0
 333 0160 1A60     		str	r2, [r3]
 663:drivers/STM32F1xx_HAL_Driver/Src/stm32f1xx_hal_rcc.c ****  
 664:drivers/STM32F1xx_HAL_Driver/Src/stm32f1xx_hal_rcc.c ****         /* Get Start Tick */
 665:drivers/STM32F1xx_HAL_Driver/Src/stm32f1xx_hal_rcc.c ****         tickstart = HAL_GetTick();
 334              		.loc 1 665 0
 335 0162 FFF7FEFF 		bl	HAL_GetTick
 336              	.LVL19:
 666:drivers/STM32F1xx_HAL_Driver/Src/stm32f1xx_hal_rcc.c ****         
 667:drivers/STM32F1xx_HAL_Driver/Src/stm32f1xx_hal_rcc.c ****         /* Wait till PLL is disabled */  
 668:drivers/STM32F1xx_HAL_Driver/Src/stm32f1xx_hal_rcc.c ****         while(__HAL_RCC_GET_FLAG(RCC_FLAG_PLLRDY)  != RESET)
 337              		.loc 1 668 0
 338 0166 2C46     		mov	r4, r5
 339              	.LVL20:
ARM GAS  /tmp/ccOtixHI.s 			page 19


 665:drivers/STM32F1xx_HAL_Driver/Src/stm32f1xx_hal_rcc.c ****         
 340              		.loc 1 665 0
 341 0168 0546     		mov	r5, r0
 342              	.LVL21:
 343              		.loc 1 668 0
 344 016a 05E0     		b	.L62
 345              	.LVL22:
 346              	.L63:
 669:drivers/STM32F1xx_HAL_Driver/Src/stm32f1xx_hal_rcc.c ****         {
 670:drivers/STM32F1xx_HAL_Driver/Src/stm32f1xx_hal_rcc.c ****           if((HAL_GetTick() - tickstart ) > PLL_TIMEOUT_VALUE)
 347              		.loc 1 670 0
 348 016c FFF7FEFF 		bl	HAL_GetTick
 349              	.LVL23:
 350 0170 401B     		subs	r0, r0, r5
 351 0172 0228     		cmp	r0, #2
 352 0174 00F28F80 		bhi	.L17
 353              	.L62:
 668:drivers/STM32F1xx_HAL_Driver/Src/stm32f1xx_hal_rcc.c ****         {
 354              		.loc 1 668 0
 355 0178 2368     		ldr	r3, [r4]
 356 017a 9B01     		lsls	r3, r3, #6
 357 017c F6D4     		bmi	.L63
 358              	.LVL24:
 359              	.L61:
 671:drivers/STM32F1xx_HAL_Driver/Src/stm32f1xx_hal_rcc.c ****           {
 672:drivers/STM32F1xx_HAL_Driver/Src/stm32f1xx_hal_rcc.c ****             return HAL_TIMEOUT;
 673:drivers/STM32F1xx_HAL_Driver/Src/stm32f1xx_hal_rcc.c ****           }
 674:drivers/STM32F1xx_HAL_Driver/Src/stm32f1xx_hal_rcc.c ****         }
 675:drivers/STM32F1xx_HAL_Driver/Src/stm32f1xx_hal_rcc.c ****       }
 676:drivers/STM32F1xx_HAL_Driver/Src/stm32f1xx_hal_rcc.c ****     }
 677:drivers/STM32F1xx_HAL_Driver/Src/stm32f1xx_hal_rcc.c ****     else
 678:drivers/STM32F1xx_HAL_Driver/Src/stm32f1xx_hal_rcc.c ****     {
 679:drivers/STM32F1xx_HAL_Driver/Src/stm32f1xx_hal_rcc.c ****       return HAL_ERROR;
 680:drivers/STM32F1xx_HAL_Driver/Src/stm32f1xx_hal_rcc.c ****     }
 681:drivers/STM32F1xx_HAL_Driver/Src/stm32f1xx_hal_rcc.c ****   }
 682:drivers/STM32F1xx_HAL_Driver/Src/stm32f1xx_hal_rcc.c ****   
 683:drivers/STM32F1xx_HAL_Driver/Src/stm32f1xx_hal_rcc.c ****   return HAL_OK;
 360              		.loc 1 683 0
 361 017e 0020     		movs	r0, #0
 684:drivers/STM32F1xx_HAL_Driver/Src/stm32f1xx_hal_rcc.c **** }
 362              		.loc 1 684 0
 363 0180 02B0     		add	sp, sp, #8
 364              		.cfi_remember_state
 365              		.cfi_def_cfa_offset 24
 366              		@ sp needed
 367 0182 BDE8F081 		pop	{r4, r5, r6, r7, r8, pc}
 368              	.LVL25:
 369              	.L108:
 370              		.cfi_restore_state
 395:drivers/STM32F1xx_HAL_Driver/Src/stm32f1xx_hal_rcc.c ****     {
 371              		.loc 1 395 0
 372 0186 A369     		ldr	r3, [r4, #24]
 373 0188 002B     		cmp	r3, #0
 374 018a 2DD0     		beq	.L30
 398:drivers/STM32F1xx_HAL_Driver/Src/stm32f1xx_hal_rcc.c ****       
 375              		.loc 1 398 0
 376 018c 0122     		movs	r2, #1
ARM GAS  /tmp/ccOtixHI.s 			page 20


 377 018e 514B     		ldr	r3, .L115+16
 404:drivers/STM32F1xx_HAL_Driver/Src/stm32f1xx_hal_rcc.c ****       {
 378              		.loc 1 404 0
 379 0190 4C4D     		ldr	r5, .L115
 398:drivers/STM32F1xx_HAL_Driver/Src/stm32f1xx_hal_rcc.c ****       
 380              		.loc 1 398 0
 381 0192 1A60     		str	r2, [r3]
 401:drivers/STM32F1xx_HAL_Driver/Src/stm32f1xx_hal_rcc.c ****       
 382              		.loc 1 401 0
 383 0194 FFF7FEFF 		bl	HAL_GetTick
 384              	.LVL26:
 385 0198 0646     		mov	r6, r0
 386              	.LVL27:
 404:drivers/STM32F1xx_HAL_Driver/Src/stm32f1xx_hal_rcc.c ****       {
 387              		.loc 1 404 0
 388 019a 04E0     		b	.L31
 389              	.LVL28:
 390              	.L32:
 406:drivers/STM32F1xx_HAL_Driver/Src/stm32f1xx_hal_rcc.c ****         {
 391              		.loc 1 406 0
 392 019c FFF7FEFF 		bl	HAL_GetTick
 393              	.LVL29:
 394 01a0 801B     		subs	r0, r0, r6
 395 01a2 0228     		cmp	r0, #2
 396 01a4 77D8     		bhi	.L17
 397              	.L31:
 404:drivers/STM32F1xx_HAL_Driver/Src/stm32f1xx_hal_rcc.c ****       {
 398              		.loc 1 404 0
 399 01a6 6B6A     		ldr	r3, [r5, #36]
 400 01a8 9B07     		lsls	r3, r3, #30
 401 01aa F7D5     		bpl	.L32
 402              	.LVL30:
 403              	.LBB16:
 404              	.LBB17:
 685:drivers/STM32F1xx_HAL_Driver/Src/stm32f1xx_hal_rcc.c **** 
 686:drivers/STM32F1xx_HAL_Driver/Src/stm32f1xx_hal_rcc.c **** /**
 687:drivers/STM32F1xx_HAL_Driver/Src/stm32f1xx_hal_rcc.c ****   * @brief  Initializes the CPU, AHB and APB buses clocks according to the specified 
 688:drivers/STM32F1xx_HAL_Driver/Src/stm32f1xx_hal_rcc.c ****   *         parameters in the RCC_ClkInitStruct.
 689:drivers/STM32F1xx_HAL_Driver/Src/stm32f1xx_hal_rcc.c ****   * @param  RCC_ClkInitStruct pointer to an RCC_OscInitTypeDef structure that
 690:drivers/STM32F1xx_HAL_Driver/Src/stm32f1xx_hal_rcc.c ****   *         contains the configuration information for the RCC peripheral.
 691:drivers/STM32F1xx_HAL_Driver/Src/stm32f1xx_hal_rcc.c ****   * @param  FLatency FLASH Latency                   
 692:drivers/STM32F1xx_HAL_Driver/Src/stm32f1xx_hal_rcc.c ****   *          The value of this parameter depend on device used within the same series
 693:drivers/STM32F1xx_HAL_Driver/Src/stm32f1xx_hal_rcc.c ****   * @note   The SystemCoreClock CMSIS variable is used to store System Clock Frequency 
 694:drivers/STM32F1xx_HAL_Driver/Src/stm32f1xx_hal_rcc.c ****   *         and updated by @ref HAL_RCC_GetHCLKFreq() function called within this function
 695:drivers/STM32F1xx_HAL_Driver/Src/stm32f1xx_hal_rcc.c ****   *
 696:drivers/STM32F1xx_HAL_Driver/Src/stm32f1xx_hal_rcc.c ****   * @note   The HSI is used (enabled by hardware) as system clock source after
 697:drivers/STM32F1xx_HAL_Driver/Src/stm32f1xx_hal_rcc.c ****   *         start-up from Reset, wake-up from STOP and STANDBY mode, or in case
 698:drivers/STM32F1xx_HAL_Driver/Src/stm32f1xx_hal_rcc.c ****   *         of failure of the HSE used directly or indirectly as system clock
 699:drivers/STM32F1xx_HAL_Driver/Src/stm32f1xx_hal_rcc.c ****   *         (if the Clock Security System CSS is enabled).
 700:drivers/STM32F1xx_HAL_Driver/Src/stm32f1xx_hal_rcc.c ****   *           
 701:drivers/STM32F1xx_HAL_Driver/Src/stm32f1xx_hal_rcc.c ****   * @note   A switch from one clock source to another occurs only if the target
 702:drivers/STM32F1xx_HAL_Driver/Src/stm32f1xx_hal_rcc.c ****   *         clock source is ready (clock stable after start-up delay or PLL locked). 
 703:drivers/STM32F1xx_HAL_Driver/Src/stm32f1xx_hal_rcc.c ****   *         If a clock source which is not yet ready is selected, the switch will
 704:drivers/STM32F1xx_HAL_Driver/Src/stm32f1xx_hal_rcc.c ****   *         occur when the clock source will be ready. 
 705:drivers/STM32F1xx_HAL_Driver/Src/stm32f1xx_hal_rcc.c ****   *         You can use @ref HAL_RCC_GetClockConfig() function to know which clock is
 706:drivers/STM32F1xx_HAL_Driver/Src/stm32f1xx_hal_rcc.c ****   *         currently used as system clock source.
 707:drivers/STM32F1xx_HAL_Driver/Src/stm32f1xx_hal_rcc.c ****   * @retval HAL status
ARM GAS  /tmp/ccOtixHI.s 			page 21


 708:drivers/STM32F1xx_HAL_Driver/Src/stm32f1xx_hal_rcc.c ****   */
 709:drivers/STM32F1xx_HAL_Driver/Src/stm32f1xx_hal_rcc.c **** HAL_StatusTypeDef HAL_RCC_ClockConfig(RCC_ClkInitTypeDef  *RCC_ClkInitStruct, uint32_t FLatency)
 710:drivers/STM32F1xx_HAL_Driver/Src/stm32f1xx_hal_rcc.c **** {
 711:drivers/STM32F1xx_HAL_Driver/Src/stm32f1xx_hal_rcc.c ****   uint32_t tickstart = 0U;
 712:drivers/STM32F1xx_HAL_Driver/Src/stm32f1xx_hal_rcc.c ****   
 713:drivers/STM32F1xx_HAL_Driver/Src/stm32f1xx_hal_rcc.c ****   /* Check the parameters */
 714:drivers/STM32F1xx_HAL_Driver/Src/stm32f1xx_hal_rcc.c ****   assert_param(RCC_ClkInitStruct != NULL);
 715:drivers/STM32F1xx_HAL_Driver/Src/stm32f1xx_hal_rcc.c ****   assert_param(IS_RCC_CLOCKTYPE(RCC_ClkInitStruct->ClockType));
 716:drivers/STM32F1xx_HAL_Driver/Src/stm32f1xx_hal_rcc.c ****   assert_param(IS_FLASH_LATENCY(FLatency));
 717:drivers/STM32F1xx_HAL_Driver/Src/stm32f1xx_hal_rcc.c **** 
 718:drivers/STM32F1xx_HAL_Driver/Src/stm32f1xx_hal_rcc.c ****   /* To correctly read data from FLASH memory, the number of wait states (LATENCY) 
 719:drivers/STM32F1xx_HAL_Driver/Src/stm32f1xx_hal_rcc.c ****   must be correctly programmed according to the frequency of the CPU clock 
 720:drivers/STM32F1xx_HAL_Driver/Src/stm32f1xx_hal_rcc.c ****     (HCLK) of the device. */
 721:drivers/STM32F1xx_HAL_Driver/Src/stm32f1xx_hal_rcc.c **** 
 722:drivers/STM32F1xx_HAL_Driver/Src/stm32f1xx_hal_rcc.c **** #if defined(FLASH_ACR_LATENCY)
 723:drivers/STM32F1xx_HAL_Driver/Src/stm32f1xx_hal_rcc.c ****   /* Increasing the number of wait states because of higher CPU frequency */
 724:drivers/STM32F1xx_HAL_Driver/Src/stm32f1xx_hal_rcc.c ****   if(FLatency > (FLASH->ACR & FLASH_ACR_LATENCY))
 725:drivers/STM32F1xx_HAL_Driver/Src/stm32f1xx_hal_rcc.c ****   {    
 726:drivers/STM32F1xx_HAL_Driver/Src/stm32f1xx_hal_rcc.c ****     /* Program the new number of wait states to the LATENCY bits in the FLASH_ACR register */
 727:drivers/STM32F1xx_HAL_Driver/Src/stm32f1xx_hal_rcc.c ****     __HAL_FLASH_SET_LATENCY(FLatency);
 728:drivers/STM32F1xx_HAL_Driver/Src/stm32f1xx_hal_rcc.c ****     
 729:drivers/STM32F1xx_HAL_Driver/Src/stm32f1xx_hal_rcc.c ****     /* Check that the new number of wait states is taken into account to access the Flash
 730:drivers/STM32F1xx_HAL_Driver/Src/stm32f1xx_hal_rcc.c ****     memory by reading the FLASH_ACR register */
 731:drivers/STM32F1xx_HAL_Driver/Src/stm32f1xx_hal_rcc.c ****     if((FLASH->ACR & FLASH_ACR_LATENCY) != FLatency)
 732:drivers/STM32F1xx_HAL_Driver/Src/stm32f1xx_hal_rcc.c ****     {
 733:drivers/STM32F1xx_HAL_Driver/Src/stm32f1xx_hal_rcc.c ****       return HAL_ERROR;
 734:drivers/STM32F1xx_HAL_Driver/Src/stm32f1xx_hal_rcc.c ****     }
 735:drivers/STM32F1xx_HAL_Driver/Src/stm32f1xx_hal_rcc.c ****   }
 736:drivers/STM32F1xx_HAL_Driver/Src/stm32f1xx_hal_rcc.c **** 
 737:drivers/STM32F1xx_HAL_Driver/Src/stm32f1xx_hal_rcc.c **** #endif /* FLASH_ACR_LATENCY */
 738:drivers/STM32F1xx_HAL_Driver/Src/stm32f1xx_hal_rcc.c ****   /*-------------------------- HCLK Configuration --------------------------*/
 739:drivers/STM32F1xx_HAL_Driver/Src/stm32f1xx_hal_rcc.c ****   if(((RCC_ClkInitStruct->ClockType) & RCC_CLOCKTYPE_HCLK) == RCC_CLOCKTYPE_HCLK)
 740:drivers/STM32F1xx_HAL_Driver/Src/stm32f1xx_hal_rcc.c ****   {
 741:drivers/STM32F1xx_HAL_Driver/Src/stm32f1xx_hal_rcc.c ****     assert_param(IS_RCC_HCLK(RCC_ClkInitStruct->AHBCLKDivider));
 742:drivers/STM32F1xx_HAL_Driver/Src/stm32f1xx_hal_rcc.c ****     MODIFY_REG(RCC->CFGR, RCC_CFGR_HPRE, RCC_ClkInitStruct->AHBCLKDivider);
 743:drivers/STM32F1xx_HAL_Driver/Src/stm32f1xx_hal_rcc.c ****   }
 744:drivers/STM32F1xx_HAL_Driver/Src/stm32f1xx_hal_rcc.c **** 
 745:drivers/STM32F1xx_HAL_Driver/Src/stm32f1xx_hal_rcc.c ****   /*------------------------- SYSCLK Configuration ---------------------------*/ 
 746:drivers/STM32F1xx_HAL_Driver/Src/stm32f1xx_hal_rcc.c ****   if(((RCC_ClkInitStruct->ClockType) & RCC_CLOCKTYPE_SYSCLK) == RCC_CLOCKTYPE_SYSCLK)
 747:drivers/STM32F1xx_HAL_Driver/Src/stm32f1xx_hal_rcc.c ****   {    
 748:drivers/STM32F1xx_HAL_Driver/Src/stm32f1xx_hal_rcc.c ****     assert_param(IS_RCC_SYSCLKSOURCE(RCC_ClkInitStruct->SYSCLKSource));
 749:drivers/STM32F1xx_HAL_Driver/Src/stm32f1xx_hal_rcc.c ****     
 750:drivers/STM32F1xx_HAL_Driver/Src/stm32f1xx_hal_rcc.c ****     /* HSE is selected as System Clock Source */
 751:drivers/STM32F1xx_HAL_Driver/Src/stm32f1xx_hal_rcc.c ****     if(RCC_ClkInitStruct->SYSCLKSource == RCC_SYSCLKSOURCE_HSE)
 752:drivers/STM32F1xx_HAL_Driver/Src/stm32f1xx_hal_rcc.c ****     {
 753:drivers/STM32F1xx_HAL_Driver/Src/stm32f1xx_hal_rcc.c ****       /* Check the HSE ready flag */  
 754:drivers/STM32F1xx_HAL_Driver/Src/stm32f1xx_hal_rcc.c ****       if(__HAL_RCC_GET_FLAG(RCC_FLAG_HSERDY) == RESET)
 755:drivers/STM32F1xx_HAL_Driver/Src/stm32f1xx_hal_rcc.c ****       {
 756:drivers/STM32F1xx_HAL_Driver/Src/stm32f1xx_hal_rcc.c ****         return HAL_ERROR;
 757:drivers/STM32F1xx_HAL_Driver/Src/stm32f1xx_hal_rcc.c ****       }
 758:drivers/STM32F1xx_HAL_Driver/Src/stm32f1xx_hal_rcc.c ****     }
 759:drivers/STM32F1xx_HAL_Driver/Src/stm32f1xx_hal_rcc.c ****     /* PLL is selected as System Clock Source */
 760:drivers/STM32F1xx_HAL_Driver/Src/stm32f1xx_hal_rcc.c ****     else if(RCC_ClkInitStruct->SYSCLKSource == RCC_SYSCLKSOURCE_PLLCLK)
 761:drivers/STM32F1xx_HAL_Driver/Src/stm32f1xx_hal_rcc.c ****     {
 762:drivers/STM32F1xx_HAL_Driver/Src/stm32f1xx_hal_rcc.c ****       /* Check the PLL ready flag */  
 763:drivers/STM32F1xx_HAL_Driver/Src/stm32f1xx_hal_rcc.c ****       if(__HAL_RCC_GET_FLAG(RCC_FLAG_PLLRDY) == RESET)
 764:drivers/STM32F1xx_HAL_Driver/Src/stm32f1xx_hal_rcc.c ****       {
ARM GAS  /tmp/ccOtixHI.s 			page 22


 765:drivers/STM32F1xx_HAL_Driver/Src/stm32f1xx_hal_rcc.c ****         return HAL_ERROR;
 766:drivers/STM32F1xx_HAL_Driver/Src/stm32f1xx_hal_rcc.c ****       }
 767:drivers/STM32F1xx_HAL_Driver/Src/stm32f1xx_hal_rcc.c ****     }
 768:drivers/STM32F1xx_HAL_Driver/Src/stm32f1xx_hal_rcc.c ****     /* HSI is selected as System Clock Source */
 769:drivers/STM32F1xx_HAL_Driver/Src/stm32f1xx_hal_rcc.c ****     else
 770:drivers/STM32F1xx_HAL_Driver/Src/stm32f1xx_hal_rcc.c ****     {
 771:drivers/STM32F1xx_HAL_Driver/Src/stm32f1xx_hal_rcc.c ****       /* Check the HSI ready flag */  
 772:drivers/STM32F1xx_HAL_Driver/Src/stm32f1xx_hal_rcc.c ****       if(__HAL_RCC_GET_FLAG(RCC_FLAG_HSIRDY) == RESET)
 773:drivers/STM32F1xx_HAL_Driver/Src/stm32f1xx_hal_rcc.c ****       {
 774:drivers/STM32F1xx_HAL_Driver/Src/stm32f1xx_hal_rcc.c ****         return HAL_ERROR;
 775:drivers/STM32F1xx_HAL_Driver/Src/stm32f1xx_hal_rcc.c ****       }
 776:drivers/STM32F1xx_HAL_Driver/Src/stm32f1xx_hal_rcc.c ****     }
 777:drivers/STM32F1xx_HAL_Driver/Src/stm32f1xx_hal_rcc.c ****     __HAL_RCC_SYSCLK_CONFIG(RCC_ClkInitStruct->SYSCLKSource);
 778:drivers/STM32F1xx_HAL_Driver/Src/stm32f1xx_hal_rcc.c **** 
 779:drivers/STM32F1xx_HAL_Driver/Src/stm32f1xx_hal_rcc.c ****     /* Get Start Tick */
 780:drivers/STM32F1xx_HAL_Driver/Src/stm32f1xx_hal_rcc.c ****     tickstart = HAL_GetTick();
 781:drivers/STM32F1xx_HAL_Driver/Src/stm32f1xx_hal_rcc.c ****     
 782:drivers/STM32F1xx_HAL_Driver/Src/stm32f1xx_hal_rcc.c ****     if(RCC_ClkInitStruct->SYSCLKSource == RCC_SYSCLKSOURCE_HSE)
 783:drivers/STM32F1xx_HAL_Driver/Src/stm32f1xx_hal_rcc.c ****     {
 784:drivers/STM32F1xx_HAL_Driver/Src/stm32f1xx_hal_rcc.c ****       while (__HAL_RCC_GET_SYSCLK_SOURCE() != RCC_SYSCLKSOURCE_STATUS_HSE)
 785:drivers/STM32F1xx_HAL_Driver/Src/stm32f1xx_hal_rcc.c ****       {
 786:drivers/STM32F1xx_HAL_Driver/Src/stm32f1xx_hal_rcc.c ****         if((HAL_GetTick() - tickstart ) > CLOCKSWITCH_TIMEOUT_VALUE)
 787:drivers/STM32F1xx_HAL_Driver/Src/stm32f1xx_hal_rcc.c ****         {
 788:drivers/STM32F1xx_HAL_Driver/Src/stm32f1xx_hal_rcc.c ****           return HAL_TIMEOUT;
 789:drivers/STM32F1xx_HAL_Driver/Src/stm32f1xx_hal_rcc.c ****         }
 790:drivers/STM32F1xx_HAL_Driver/Src/stm32f1xx_hal_rcc.c ****       }
 791:drivers/STM32F1xx_HAL_Driver/Src/stm32f1xx_hal_rcc.c ****     }
 792:drivers/STM32F1xx_HAL_Driver/Src/stm32f1xx_hal_rcc.c ****     else if(RCC_ClkInitStruct->SYSCLKSource == RCC_SYSCLKSOURCE_PLLCLK)
 793:drivers/STM32F1xx_HAL_Driver/Src/stm32f1xx_hal_rcc.c ****     {
 794:drivers/STM32F1xx_HAL_Driver/Src/stm32f1xx_hal_rcc.c ****       while (__HAL_RCC_GET_SYSCLK_SOURCE() != RCC_SYSCLKSOURCE_STATUS_PLLCLK)
 795:drivers/STM32F1xx_HAL_Driver/Src/stm32f1xx_hal_rcc.c ****       {
 796:drivers/STM32F1xx_HAL_Driver/Src/stm32f1xx_hal_rcc.c ****         if((HAL_GetTick() - tickstart ) > CLOCKSWITCH_TIMEOUT_VALUE)
 797:drivers/STM32F1xx_HAL_Driver/Src/stm32f1xx_hal_rcc.c ****         {
 798:drivers/STM32F1xx_HAL_Driver/Src/stm32f1xx_hal_rcc.c ****           return HAL_TIMEOUT;
 799:drivers/STM32F1xx_HAL_Driver/Src/stm32f1xx_hal_rcc.c ****         }
 800:drivers/STM32F1xx_HAL_Driver/Src/stm32f1xx_hal_rcc.c ****       }
 801:drivers/STM32F1xx_HAL_Driver/Src/stm32f1xx_hal_rcc.c ****     }
 802:drivers/STM32F1xx_HAL_Driver/Src/stm32f1xx_hal_rcc.c ****     else
 803:drivers/STM32F1xx_HAL_Driver/Src/stm32f1xx_hal_rcc.c ****     {
 804:drivers/STM32F1xx_HAL_Driver/Src/stm32f1xx_hal_rcc.c ****       while (__HAL_RCC_GET_SYSCLK_SOURCE() != RCC_SYSCLKSOURCE_STATUS_HSI)
 805:drivers/STM32F1xx_HAL_Driver/Src/stm32f1xx_hal_rcc.c ****       {
 806:drivers/STM32F1xx_HAL_Driver/Src/stm32f1xx_hal_rcc.c ****         if((HAL_GetTick() - tickstart ) > CLOCKSWITCH_TIMEOUT_VALUE)
 807:drivers/STM32F1xx_HAL_Driver/Src/stm32f1xx_hal_rcc.c ****         {
 808:drivers/STM32F1xx_HAL_Driver/Src/stm32f1xx_hal_rcc.c ****           return HAL_TIMEOUT;
 809:drivers/STM32F1xx_HAL_Driver/Src/stm32f1xx_hal_rcc.c ****         }
 810:drivers/STM32F1xx_HAL_Driver/Src/stm32f1xx_hal_rcc.c ****       }
 811:drivers/STM32F1xx_HAL_Driver/Src/stm32f1xx_hal_rcc.c ****     }      
 812:drivers/STM32F1xx_HAL_Driver/Src/stm32f1xx_hal_rcc.c ****   }    
 813:drivers/STM32F1xx_HAL_Driver/Src/stm32f1xx_hal_rcc.c **** #if defined(FLASH_ACR_LATENCY)
 814:drivers/STM32F1xx_HAL_Driver/Src/stm32f1xx_hal_rcc.c ****   /* Decreasing the number of wait states because of lower CPU frequency */
 815:drivers/STM32F1xx_HAL_Driver/Src/stm32f1xx_hal_rcc.c ****   if(FLatency < (FLASH->ACR & FLASH_ACR_LATENCY))
 816:drivers/STM32F1xx_HAL_Driver/Src/stm32f1xx_hal_rcc.c ****   {    
 817:drivers/STM32F1xx_HAL_Driver/Src/stm32f1xx_hal_rcc.c ****     /* Program the new number of wait states to the LATENCY bits in the FLASH_ACR register */
 818:drivers/STM32F1xx_HAL_Driver/Src/stm32f1xx_hal_rcc.c ****     __HAL_FLASH_SET_LATENCY(FLatency);
 819:drivers/STM32F1xx_HAL_Driver/Src/stm32f1xx_hal_rcc.c ****     
 820:drivers/STM32F1xx_HAL_Driver/Src/stm32f1xx_hal_rcc.c ****     /* Check that the new number of wait states is taken into account to access the Flash
 821:drivers/STM32F1xx_HAL_Driver/Src/stm32f1xx_hal_rcc.c ****     memory by reading the FLASH_ACR register */
ARM GAS  /tmp/ccOtixHI.s 			page 23


 822:drivers/STM32F1xx_HAL_Driver/Src/stm32f1xx_hal_rcc.c ****     if((FLASH->ACR & FLASH_ACR_LATENCY) != FLatency)
 823:drivers/STM32F1xx_HAL_Driver/Src/stm32f1xx_hal_rcc.c ****     {
 824:drivers/STM32F1xx_HAL_Driver/Src/stm32f1xx_hal_rcc.c ****       return HAL_ERROR;
 825:drivers/STM32F1xx_HAL_Driver/Src/stm32f1xx_hal_rcc.c ****     }
 826:drivers/STM32F1xx_HAL_Driver/Src/stm32f1xx_hal_rcc.c ****   }    
 827:drivers/STM32F1xx_HAL_Driver/Src/stm32f1xx_hal_rcc.c **** #endif /* FLASH_ACR_LATENCY */
 828:drivers/STM32F1xx_HAL_Driver/Src/stm32f1xx_hal_rcc.c **** 
 829:drivers/STM32F1xx_HAL_Driver/Src/stm32f1xx_hal_rcc.c ****   /*-------------------------- PCLK1 Configuration ---------------------------*/ 
 830:drivers/STM32F1xx_HAL_Driver/Src/stm32f1xx_hal_rcc.c ****   if(((RCC_ClkInitStruct->ClockType) & RCC_CLOCKTYPE_PCLK1) == RCC_CLOCKTYPE_PCLK1)
 831:drivers/STM32F1xx_HAL_Driver/Src/stm32f1xx_hal_rcc.c ****   {
 832:drivers/STM32F1xx_HAL_Driver/Src/stm32f1xx_hal_rcc.c ****     assert_param(IS_RCC_PCLK(RCC_ClkInitStruct->APB1CLKDivider));
 833:drivers/STM32F1xx_HAL_Driver/Src/stm32f1xx_hal_rcc.c ****     MODIFY_REG(RCC->CFGR, RCC_CFGR_PPRE1, RCC_ClkInitStruct->APB1CLKDivider);
 834:drivers/STM32F1xx_HAL_Driver/Src/stm32f1xx_hal_rcc.c ****   }
 835:drivers/STM32F1xx_HAL_Driver/Src/stm32f1xx_hal_rcc.c ****   
 836:drivers/STM32F1xx_HAL_Driver/Src/stm32f1xx_hal_rcc.c ****   /*-------------------------- PCLK2 Configuration ---------------------------*/ 
 837:drivers/STM32F1xx_HAL_Driver/Src/stm32f1xx_hal_rcc.c ****   if(((RCC_ClkInitStruct->ClockType) & RCC_CLOCKTYPE_PCLK2) == RCC_CLOCKTYPE_PCLK2)
 838:drivers/STM32F1xx_HAL_Driver/Src/stm32f1xx_hal_rcc.c ****   {
 839:drivers/STM32F1xx_HAL_Driver/Src/stm32f1xx_hal_rcc.c ****     assert_param(IS_RCC_PCLK(RCC_ClkInitStruct->APB2CLKDivider));
 840:drivers/STM32F1xx_HAL_Driver/Src/stm32f1xx_hal_rcc.c ****     MODIFY_REG(RCC->CFGR, RCC_CFGR_PPRE2, ((RCC_ClkInitStruct->APB2CLKDivider) << 3));
 841:drivers/STM32F1xx_HAL_Driver/Src/stm32f1xx_hal_rcc.c ****   }
 842:drivers/STM32F1xx_HAL_Driver/Src/stm32f1xx_hal_rcc.c ****  
 843:drivers/STM32F1xx_HAL_Driver/Src/stm32f1xx_hal_rcc.c ****   /* Update the SystemCoreClock global variable */
 844:drivers/STM32F1xx_HAL_Driver/Src/stm32f1xx_hal_rcc.c ****   SystemCoreClock = HAL_RCC_GetSysClockFreq() >> AHBPrescTable[(RCC->CFGR & RCC_CFGR_HPRE)>> RCC_CF
 845:drivers/STM32F1xx_HAL_Driver/Src/stm32f1xx_hal_rcc.c **** 
 846:drivers/STM32F1xx_HAL_Driver/Src/stm32f1xx_hal_rcc.c ****   /* Configure the source of time base considering new system clocks settings*/
 847:drivers/STM32F1xx_HAL_Driver/Src/stm32f1xx_hal_rcc.c ****   HAL_InitTick (TICK_INT_PRIORITY);
 848:drivers/STM32F1xx_HAL_Driver/Src/stm32f1xx_hal_rcc.c ****   
 849:drivers/STM32F1xx_HAL_Driver/Src/stm32f1xx_hal_rcc.c ****   return HAL_OK;
 850:drivers/STM32F1xx_HAL_Driver/Src/stm32f1xx_hal_rcc.c **** }
 851:drivers/STM32F1xx_HAL_Driver/Src/stm32f1xx_hal_rcc.c **** 
 852:drivers/STM32F1xx_HAL_Driver/Src/stm32f1xx_hal_rcc.c **** /**
 853:drivers/STM32F1xx_HAL_Driver/Src/stm32f1xx_hal_rcc.c ****   * @}
 854:drivers/STM32F1xx_HAL_Driver/Src/stm32f1xx_hal_rcc.c ****   */
 855:drivers/STM32F1xx_HAL_Driver/Src/stm32f1xx_hal_rcc.c **** 
 856:drivers/STM32F1xx_HAL_Driver/Src/stm32f1xx_hal_rcc.c **** /** @defgroup RCC_Exported_Functions_Group2 Peripheral Control functions
 857:drivers/STM32F1xx_HAL_Driver/Src/stm32f1xx_hal_rcc.c ****   *  @brief   RCC clocks control functions
 858:drivers/STM32F1xx_HAL_Driver/Src/stm32f1xx_hal_rcc.c ****   *
 859:drivers/STM32F1xx_HAL_Driver/Src/stm32f1xx_hal_rcc.c ****   @verbatim   
 860:drivers/STM32F1xx_HAL_Driver/Src/stm32f1xx_hal_rcc.c ****   ===============================================================================
 861:drivers/STM32F1xx_HAL_Driver/Src/stm32f1xx_hal_rcc.c ****                   ##### Peripheral Control functions #####
 862:drivers/STM32F1xx_HAL_Driver/Src/stm32f1xx_hal_rcc.c ****   ===============================================================================  
 863:drivers/STM32F1xx_HAL_Driver/Src/stm32f1xx_hal_rcc.c ****     [..]
 864:drivers/STM32F1xx_HAL_Driver/Src/stm32f1xx_hal_rcc.c ****     This subsection provides a set of functions allowing to control the RCC Clocks 
 865:drivers/STM32F1xx_HAL_Driver/Src/stm32f1xx_hal_rcc.c ****     frequencies.
 866:drivers/STM32F1xx_HAL_Driver/Src/stm32f1xx_hal_rcc.c **** 
 867:drivers/STM32F1xx_HAL_Driver/Src/stm32f1xx_hal_rcc.c ****   @endverbatim
 868:drivers/STM32F1xx_HAL_Driver/Src/stm32f1xx_hal_rcc.c ****   * @{
 869:drivers/STM32F1xx_HAL_Driver/Src/stm32f1xx_hal_rcc.c ****   */
 870:drivers/STM32F1xx_HAL_Driver/Src/stm32f1xx_hal_rcc.c **** 
 871:drivers/STM32F1xx_HAL_Driver/Src/stm32f1xx_hal_rcc.c **** /**
 872:drivers/STM32F1xx_HAL_Driver/Src/stm32f1xx_hal_rcc.c ****   * @brief  Selects the clock source to output on MCO pin.
 873:drivers/STM32F1xx_HAL_Driver/Src/stm32f1xx_hal_rcc.c ****   * @note   MCO pin should be configured in alternate function mode.
 874:drivers/STM32F1xx_HAL_Driver/Src/stm32f1xx_hal_rcc.c ****   * @param  RCC_MCOx specifies the output direction for the clock source.
 875:drivers/STM32F1xx_HAL_Driver/Src/stm32f1xx_hal_rcc.c ****   *          This parameter can be one of the following values:
 876:drivers/STM32F1xx_HAL_Driver/Src/stm32f1xx_hal_rcc.c ****   *            @arg @ref RCC_MCO1 Clock source to output on MCO1 pin(PA8).
 877:drivers/STM32F1xx_HAL_Driver/Src/stm32f1xx_hal_rcc.c ****   * @param  RCC_MCOSource specifies the clock source to output.
 878:drivers/STM32F1xx_HAL_Driver/Src/stm32f1xx_hal_rcc.c ****   *          This parameter can be one of the following values:
ARM GAS  /tmp/ccOtixHI.s 			page 24


 879:drivers/STM32F1xx_HAL_Driver/Src/stm32f1xx_hal_rcc.c ****   *            @arg @ref RCC_MCO1SOURCE_NOCLOCK     No clock selected as MCO clock
 880:drivers/STM32F1xx_HAL_Driver/Src/stm32f1xx_hal_rcc.c ****   *            @arg @ref RCC_MCO1SOURCE_SYSCLK      System clock selected as MCO clock
 881:drivers/STM32F1xx_HAL_Driver/Src/stm32f1xx_hal_rcc.c ****   *            @arg @ref RCC_MCO1SOURCE_HSI         HSI selected as MCO clock
 882:drivers/STM32F1xx_HAL_Driver/Src/stm32f1xx_hal_rcc.c ****   *            @arg @ref RCC_MCO1SOURCE_HSE         HSE selected as MCO clock
 883:drivers/STM32F1xx_HAL_Driver/Src/stm32f1xx_hal_rcc.c ****   @if STM32F105xC
 884:drivers/STM32F1xx_HAL_Driver/Src/stm32f1xx_hal_rcc.c ****   *            @arg @ref RCC_MCO1SOURCE_PLLCLK       PLL clock divided by 2 selected as MCO source
 885:drivers/STM32F1xx_HAL_Driver/Src/stm32f1xx_hal_rcc.c ****   *            @arg @ref RCC_MCO1SOURCE_PLL2CLK      PLL2 clock selected as MCO source
 886:drivers/STM32F1xx_HAL_Driver/Src/stm32f1xx_hal_rcc.c ****   *            @arg @ref RCC_MCO1SOURCE_PLL3CLK_DIV2 PLL3 clock divided by 2 selected as MCO source
 887:drivers/STM32F1xx_HAL_Driver/Src/stm32f1xx_hal_rcc.c ****   *            @arg @ref RCC_MCO1SOURCE_EXT_HSE      XT1 external 3-25 MHz oscillator clock selecte
 888:drivers/STM32F1xx_HAL_Driver/Src/stm32f1xx_hal_rcc.c ****   *            @arg @ref RCC_MCO1SOURCE_PLL3CLK      PLL3 clock selected as MCO source
 889:drivers/STM32F1xx_HAL_Driver/Src/stm32f1xx_hal_rcc.c ****   @endif
 890:drivers/STM32F1xx_HAL_Driver/Src/stm32f1xx_hal_rcc.c ****   @if STM32F107xC
 891:drivers/STM32F1xx_HAL_Driver/Src/stm32f1xx_hal_rcc.c ****   *            @arg @ref RCC_MCO1SOURCE_PLLCLK       PLL clock divided by 2 selected as MCO source
 892:drivers/STM32F1xx_HAL_Driver/Src/stm32f1xx_hal_rcc.c ****   *            @arg @ref RCC_MCO1SOURCE_PLL2CLK      PLL2 clock selected as MCO source
 893:drivers/STM32F1xx_HAL_Driver/Src/stm32f1xx_hal_rcc.c ****   *            @arg @ref RCC_MCO1SOURCE_PLL3CLK_DIV2 PLL3 clock divided by 2 selected as MCO source
 894:drivers/STM32F1xx_HAL_Driver/Src/stm32f1xx_hal_rcc.c ****   *            @arg @ref RCC_MCO1SOURCE_EXT_HSE XT1  external 3-25 MHz oscillator clock selected as
 895:drivers/STM32F1xx_HAL_Driver/Src/stm32f1xx_hal_rcc.c ****   *            @arg @ref RCC_MCO1SOURCE_PLL3CLK      PLL3 clock selected as MCO source
 896:drivers/STM32F1xx_HAL_Driver/Src/stm32f1xx_hal_rcc.c ****   @endif
 897:drivers/STM32F1xx_HAL_Driver/Src/stm32f1xx_hal_rcc.c ****   * @param  RCC_MCODiv specifies the MCO DIV.
 898:drivers/STM32F1xx_HAL_Driver/Src/stm32f1xx_hal_rcc.c ****   *          This parameter can be one of the following values:
 899:drivers/STM32F1xx_HAL_Driver/Src/stm32f1xx_hal_rcc.c ****   *            @arg @ref RCC_MCODIV_1 no division applied to MCO clock
 900:drivers/STM32F1xx_HAL_Driver/Src/stm32f1xx_hal_rcc.c ****   * @retval None
 901:drivers/STM32F1xx_HAL_Driver/Src/stm32f1xx_hal_rcc.c ****   */
 902:drivers/STM32F1xx_HAL_Driver/Src/stm32f1xx_hal_rcc.c **** void HAL_RCC_MCOConfig(uint32_t RCC_MCOx, uint32_t RCC_MCOSource, uint32_t RCC_MCODiv)
 903:drivers/STM32F1xx_HAL_Driver/Src/stm32f1xx_hal_rcc.c **** {
 904:drivers/STM32F1xx_HAL_Driver/Src/stm32f1xx_hal_rcc.c ****   GPIO_InitTypeDef gpio = {0U};
 905:drivers/STM32F1xx_HAL_Driver/Src/stm32f1xx_hal_rcc.c **** 
 906:drivers/STM32F1xx_HAL_Driver/Src/stm32f1xx_hal_rcc.c ****   /* Check the parameters */
 907:drivers/STM32F1xx_HAL_Driver/Src/stm32f1xx_hal_rcc.c ****   assert_param(IS_RCC_MCO(RCC_MCOx));
 908:drivers/STM32F1xx_HAL_Driver/Src/stm32f1xx_hal_rcc.c ****   assert_param(IS_RCC_MCODIV(RCC_MCODiv));
 909:drivers/STM32F1xx_HAL_Driver/Src/stm32f1xx_hal_rcc.c ****   assert_param(IS_RCC_MCO1SOURCE(RCC_MCOSource));
 910:drivers/STM32F1xx_HAL_Driver/Src/stm32f1xx_hal_rcc.c **** 
 911:drivers/STM32F1xx_HAL_Driver/Src/stm32f1xx_hal_rcc.c ****   /* Prevent unused argument(s) compilation warning */
 912:drivers/STM32F1xx_HAL_Driver/Src/stm32f1xx_hal_rcc.c ****   UNUSED(RCC_MCOx);
 913:drivers/STM32F1xx_HAL_Driver/Src/stm32f1xx_hal_rcc.c ****   UNUSED(RCC_MCODiv);
 914:drivers/STM32F1xx_HAL_Driver/Src/stm32f1xx_hal_rcc.c **** 
 915:drivers/STM32F1xx_HAL_Driver/Src/stm32f1xx_hal_rcc.c ****   /* Configure the MCO1 pin in alternate function mode */
 916:drivers/STM32F1xx_HAL_Driver/Src/stm32f1xx_hal_rcc.c ****   gpio.Mode      = GPIO_MODE_AF_PP;
 917:drivers/STM32F1xx_HAL_Driver/Src/stm32f1xx_hal_rcc.c ****   gpio.Speed     = GPIO_SPEED_FREQ_HIGH;
 918:drivers/STM32F1xx_HAL_Driver/Src/stm32f1xx_hal_rcc.c ****   gpio.Pull      = GPIO_NOPULL;
 919:drivers/STM32F1xx_HAL_Driver/Src/stm32f1xx_hal_rcc.c ****   gpio.Pin       = MCO1_PIN;
 920:drivers/STM32F1xx_HAL_Driver/Src/stm32f1xx_hal_rcc.c **** 
 921:drivers/STM32F1xx_HAL_Driver/Src/stm32f1xx_hal_rcc.c ****   /* MCO1 Clock Enable */
 922:drivers/STM32F1xx_HAL_Driver/Src/stm32f1xx_hal_rcc.c ****   MCO1_CLK_ENABLE();
 923:drivers/STM32F1xx_HAL_Driver/Src/stm32f1xx_hal_rcc.c **** 
 924:drivers/STM32F1xx_HAL_Driver/Src/stm32f1xx_hal_rcc.c ****   HAL_GPIO_Init(MCO1_GPIO_PORT, &gpio);
 925:drivers/STM32F1xx_HAL_Driver/Src/stm32f1xx_hal_rcc.c **** 
 926:drivers/STM32F1xx_HAL_Driver/Src/stm32f1xx_hal_rcc.c ****   /* Configure the MCO clock source */
 927:drivers/STM32F1xx_HAL_Driver/Src/stm32f1xx_hal_rcc.c ****   __HAL_RCC_MCO1_CONFIG(RCC_MCOSource, RCC_MCODiv);
 928:drivers/STM32F1xx_HAL_Driver/Src/stm32f1xx_hal_rcc.c **** }
 929:drivers/STM32F1xx_HAL_Driver/Src/stm32f1xx_hal_rcc.c **** 
 930:drivers/STM32F1xx_HAL_Driver/Src/stm32f1xx_hal_rcc.c **** /**
 931:drivers/STM32F1xx_HAL_Driver/Src/stm32f1xx_hal_rcc.c ****   * @brief  Enables the Clock Security System.
 932:drivers/STM32F1xx_HAL_Driver/Src/stm32f1xx_hal_rcc.c ****   * @note   If a failure is detected on the HSE oscillator clock, this oscillator
 933:drivers/STM32F1xx_HAL_Driver/Src/stm32f1xx_hal_rcc.c ****   *         is automatically disabled and an interrupt is generated to inform the
 934:drivers/STM32F1xx_HAL_Driver/Src/stm32f1xx_hal_rcc.c ****   *         software about the failure (Clock Security System Interrupt, CSSI),
 935:drivers/STM32F1xx_HAL_Driver/Src/stm32f1xx_hal_rcc.c ****   *         allowing the MCU to perform rescue operations. The CSSI is linked to 
ARM GAS  /tmp/ccOtixHI.s 			page 25


 936:drivers/STM32F1xx_HAL_Driver/Src/stm32f1xx_hal_rcc.c ****   *         the Cortex-M3 NMI (Non-Maskable Interrupt) exception vector.  
 937:drivers/STM32F1xx_HAL_Driver/Src/stm32f1xx_hal_rcc.c ****   * @retval None
 938:drivers/STM32F1xx_HAL_Driver/Src/stm32f1xx_hal_rcc.c ****   */
 939:drivers/STM32F1xx_HAL_Driver/Src/stm32f1xx_hal_rcc.c **** void HAL_RCC_EnableCSS(void)
 940:drivers/STM32F1xx_HAL_Driver/Src/stm32f1xx_hal_rcc.c **** {
 941:drivers/STM32F1xx_HAL_Driver/Src/stm32f1xx_hal_rcc.c ****   *(__IO uint32_t *) RCC_CR_CSSON_BB = (uint32_t)ENABLE;
 942:drivers/STM32F1xx_HAL_Driver/Src/stm32f1xx_hal_rcc.c **** }
 943:drivers/STM32F1xx_HAL_Driver/Src/stm32f1xx_hal_rcc.c **** 
 944:drivers/STM32F1xx_HAL_Driver/Src/stm32f1xx_hal_rcc.c **** /**
 945:drivers/STM32F1xx_HAL_Driver/Src/stm32f1xx_hal_rcc.c ****   * @brief  Disables the Clock Security System.
 946:drivers/STM32F1xx_HAL_Driver/Src/stm32f1xx_hal_rcc.c ****   * @retval None
 947:drivers/STM32F1xx_HAL_Driver/Src/stm32f1xx_hal_rcc.c ****   */
 948:drivers/STM32F1xx_HAL_Driver/Src/stm32f1xx_hal_rcc.c **** void HAL_RCC_DisableCSS(void)
 949:drivers/STM32F1xx_HAL_Driver/Src/stm32f1xx_hal_rcc.c **** {
 950:drivers/STM32F1xx_HAL_Driver/Src/stm32f1xx_hal_rcc.c ****   *(__IO uint32_t *) RCC_CR_CSSON_BB = (uint32_t)DISABLE;
 951:drivers/STM32F1xx_HAL_Driver/Src/stm32f1xx_hal_rcc.c **** }
 952:drivers/STM32F1xx_HAL_Driver/Src/stm32f1xx_hal_rcc.c **** 
 953:drivers/STM32F1xx_HAL_Driver/Src/stm32f1xx_hal_rcc.c **** /**
 954:drivers/STM32F1xx_HAL_Driver/Src/stm32f1xx_hal_rcc.c ****   * @brief  Returns the SYSCLK frequency     
 955:drivers/STM32F1xx_HAL_Driver/Src/stm32f1xx_hal_rcc.c ****   * @note   The system frequency computed by this function is not the real 
 956:drivers/STM32F1xx_HAL_Driver/Src/stm32f1xx_hal_rcc.c ****   *         frequency in the chip. It is calculated based on the predefined 
 957:drivers/STM32F1xx_HAL_Driver/Src/stm32f1xx_hal_rcc.c ****   *         constant and the selected clock source:
 958:drivers/STM32F1xx_HAL_Driver/Src/stm32f1xx_hal_rcc.c ****   * @note     If SYSCLK source is HSI, function returns values based on HSI_VALUE(*)
 959:drivers/STM32F1xx_HAL_Driver/Src/stm32f1xx_hal_rcc.c ****   * @note     If SYSCLK source is HSE, function returns a value based on HSE_VALUE
 960:drivers/STM32F1xx_HAL_Driver/Src/stm32f1xx_hal_rcc.c ****   *           divided by PREDIV factor(**)
 961:drivers/STM32F1xx_HAL_Driver/Src/stm32f1xx_hal_rcc.c ****   * @note     If SYSCLK source is PLL, function returns a value based on HSE_VALUE
 962:drivers/STM32F1xx_HAL_Driver/Src/stm32f1xx_hal_rcc.c ****   *           divided by PREDIV factor(**) or HSI_VALUE(*) multiplied by the PLL factor.
 963:drivers/STM32F1xx_HAL_Driver/Src/stm32f1xx_hal_rcc.c ****   * @note     (*) HSI_VALUE is a constant defined in stm32f1xx_hal_conf.h file (default value
 964:drivers/STM32F1xx_HAL_Driver/Src/stm32f1xx_hal_rcc.c ****   *               8 MHz) but the real value may vary depending on the variations
 965:drivers/STM32F1xx_HAL_Driver/Src/stm32f1xx_hal_rcc.c ****   *               in voltage and temperature.
 966:drivers/STM32F1xx_HAL_Driver/Src/stm32f1xx_hal_rcc.c ****   * @note     (**) HSE_VALUE is a constant defined in stm32f1xx_hal_conf.h file (default value
 967:drivers/STM32F1xx_HAL_Driver/Src/stm32f1xx_hal_rcc.c ****   *                8 MHz), user has to ensure that HSE_VALUE is same as the real
 968:drivers/STM32F1xx_HAL_Driver/Src/stm32f1xx_hal_rcc.c ****   *                frequency of the crystal used. Otherwise, this function may
 969:drivers/STM32F1xx_HAL_Driver/Src/stm32f1xx_hal_rcc.c ****   *                have wrong result.
 970:drivers/STM32F1xx_HAL_Driver/Src/stm32f1xx_hal_rcc.c ****   *                  
 971:drivers/STM32F1xx_HAL_Driver/Src/stm32f1xx_hal_rcc.c ****   * @note   The result of this function could be not correct when using fractional
 972:drivers/STM32F1xx_HAL_Driver/Src/stm32f1xx_hal_rcc.c ****   *         value for HSE crystal.
 973:drivers/STM32F1xx_HAL_Driver/Src/stm32f1xx_hal_rcc.c ****   *           
 974:drivers/STM32F1xx_HAL_Driver/Src/stm32f1xx_hal_rcc.c ****   * @note   This function can be used by the user application to compute the 
 975:drivers/STM32F1xx_HAL_Driver/Src/stm32f1xx_hal_rcc.c ****   *         baud-rate for the communication peripherals or configure other parameters.
 976:drivers/STM32F1xx_HAL_Driver/Src/stm32f1xx_hal_rcc.c ****   *           
 977:drivers/STM32F1xx_HAL_Driver/Src/stm32f1xx_hal_rcc.c ****   * @note   Each time SYSCLK changes, this function must be called to update the
 978:drivers/STM32F1xx_HAL_Driver/Src/stm32f1xx_hal_rcc.c ****   *         right SYSCLK value. Otherwise, any configuration based on this function will be incorre
 979:drivers/STM32F1xx_HAL_Driver/Src/stm32f1xx_hal_rcc.c ****   *         
 980:drivers/STM32F1xx_HAL_Driver/Src/stm32f1xx_hal_rcc.c ****   * @retval SYSCLK frequency
 981:drivers/STM32F1xx_HAL_Driver/Src/stm32f1xx_hal_rcc.c ****   */
 982:drivers/STM32F1xx_HAL_Driver/Src/stm32f1xx_hal_rcc.c **** uint32_t HAL_RCC_GetSysClockFreq(void)
 983:drivers/STM32F1xx_HAL_Driver/Src/stm32f1xx_hal_rcc.c **** {
 984:drivers/STM32F1xx_HAL_Driver/Src/stm32f1xx_hal_rcc.c **** #if defined(RCC_CFGR2_PREDIV1SRC)
 985:drivers/STM32F1xx_HAL_Driver/Src/stm32f1xx_hal_rcc.c ****   const uint8_t aPLLMULFactorTable[14] = {0, 0, 4, 5, 6, 7, 8, 9, 0, 0, 0, 0, 0, 13};
 986:drivers/STM32F1xx_HAL_Driver/Src/stm32f1xx_hal_rcc.c ****   const uint8_t aPredivFactorTable[16] = {1, 2, 3, 4, 5, 6, 7, 8, 9, 10, 11, 12, 13, 14, 15, 16};
 987:drivers/STM32F1xx_HAL_Driver/Src/stm32f1xx_hal_rcc.c **** #else
 988:drivers/STM32F1xx_HAL_Driver/Src/stm32f1xx_hal_rcc.c ****   const uint8_t aPLLMULFactorTable[16] = {2, 3, 4, 5, 6, 7, 8, 9, 10, 11, 12, 13, 14, 15, 16, 16};
 989:drivers/STM32F1xx_HAL_Driver/Src/stm32f1xx_hal_rcc.c **** #if defined(RCC_CFGR2_PREDIV1)
 990:drivers/STM32F1xx_HAL_Driver/Src/stm32f1xx_hal_rcc.c ****   const uint8_t aPredivFactorTable[16] = {1, 2, 3, 4, 5, 6, 7, 8, 9, 10, 11, 12, 13, 14, 15, 16};
 991:drivers/STM32F1xx_HAL_Driver/Src/stm32f1xx_hal_rcc.c **** #else
 992:drivers/STM32F1xx_HAL_Driver/Src/stm32f1xx_hal_rcc.c ****   const uint8_t aPredivFactorTable[2] = {1, 2};
ARM GAS  /tmp/ccOtixHI.s 			page 26


 993:drivers/STM32F1xx_HAL_Driver/Src/stm32f1xx_hal_rcc.c **** #endif /*RCC_CFGR2_PREDIV1*/
 994:drivers/STM32F1xx_HAL_Driver/Src/stm32f1xx_hal_rcc.c **** 
 995:drivers/STM32F1xx_HAL_Driver/Src/stm32f1xx_hal_rcc.c **** #endif
 996:drivers/STM32F1xx_HAL_Driver/Src/stm32f1xx_hal_rcc.c ****   uint32_t tmpreg = 0U, prediv = 0U, pllclk = 0U, pllmul = 0U;
 997:drivers/STM32F1xx_HAL_Driver/Src/stm32f1xx_hal_rcc.c ****   uint32_t sysclockfreq = 0U;
 998:drivers/STM32F1xx_HAL_Driver/Src/stm32f1xx_hal_rcc.c **** #if defined(RCC_CFGR2_PREDIV1SRC)
 999:drivers/STM32F1xx_HAL_Driver/Src/stm32f1xx_hal_rcc.c ****   uint32_t prediv2 = 0U, pll2mul = 0U;
1000:drivers/STM32F1xx_HAL_Driver/Src/stm32f1xx_hal_rcc.c **** #endif /*RCC_CFGR2_PREDIV1SRC*/
1001:drivers/STM32F1xx_HAL_Driver/Src/stm32f1xx_hal_rcc.c ****   
1002:drivers/STM32F1xx_HAL_Driver/Src/stm32f1xx_hal_rcc.c ****   tmpreg = RCC->CFGR;
1003:drivers/STM32F1xx_HAL_Driver/Src/stm32f1xx_hal_rcc.c ****   
1004:drivers/STM32F1xx_HAL_Driver/Src/stm32f1xx_hal_rcc.c ****   /* Get SYSCLK source -------------------------------------------------------*/
1005:drivers/STM32F1xx_HAL_Driver/Src/stm32f1xx_hal_rcc.c ****   switch (tmpreg & RCC_CFGR_SWS)
1006:drivers/STM32F1xx_HAL_Driver/Src/stm32f1xx_hal_rcc.c ****   {
1007:drivers/STM32F1xx_HAL_Driver/Src/stm32f1xx_hal_rcc.c ****     case RCC_SYSCLKSOURCE_STATUS_HSE:  /* HSE used as system clock */
1008:drivers/STM32F1xx_HAL_Driver/Src/stm32f1xx_hal_rcc.c ****     {
1009:drivers/STM32F1xx_HAL_Driver/Src/stm32f1xx_hal_rcc.c ****       sysclockfreq = HSE_VALUE;
1010:drivers/STM32F1xx_HAL_Driver/Src/stm32f1xx_hal_rcc.c ****       break;
1011:drivers/STM32F1xx_HAL_Driver/Src/stm32f1xx_hal_rcc.c ****     }
1012:drivers/STM32F1xx_HAL_Driver/Src/stm32f1xx_hal_rcc.c ****     case RCC_SYSCLKSOURCE_STATUS_PLLCLK:  /* PLL used as system clock */
1013:drivers/STM32F1xx_HAL_Driver/Src/stm32f1xx_hal_rcc.c ****     {
1014:drivers/STM32F1xx_HAL_Driver/Src/stm32f1xx_hal_rcc.c ****       pllmul = aPLLMULFactorTable[(uint32_t)(tmpreg & RCC_CFGR_PLLMULL) >> RCC_CFGR_PLLMULL_Pos];
1015:drivers/STM32F1xx_HAL_Driver/Src/stm32f1xx_hal_rcc.c ****       if ((tmpreg & RCC_CFGR_PLLSRC) != RCC_PLLSOURCE_HSI_DIV2)
1016:drivers/STM32F1xx_HAL_Driver/Src/stm32f1xx_hal_rcc.c ****       {
1017:drivers/STM32F1xx_HAL_Driver/Src/stm32f1xx_hal_rcc.c **** #if defined(RCC_CFGR2_PREDIV1)
1018:drivers/STM32F1xx_HAL_Driver/Src/stm32f1xx_hal_rcc.c ****         prediv = aPredivFactorTable[(uint32_t)(RCC->CFGR2 & RCC_CFGR2_PREDIV1) >> RCC_CFGR2_PREDIV1
1019:drivers/STM32F1xx_HAL_Driver/Src/stm32f1xx_hal_rcc.c **** #else
1020:drivers/STM32F1xx_HAL_Driver/Src/stm32f1xx_hal_rcc.c ****         prediv = aPredivFactorTable[(uint32_t)(RCC->CFGR & RCC_CFGR_PLLXTPRE) >> RCC_CFGR_PLLXTPRE_
1021:drivers/STM32F1xx_HAL_Driver/Src/stm32f1xx_hal_rcc.c **** #endif /*RCC_CFGR2_PREDIV1*/
1022:drivers/STM32F1xx_HAL_Driver/Src/stm32f1xx_hal_rcc.c **** #if defined(RCC_CFGR2_PREDIV1SRC)
1023:drivers/STM32F1xx_HAL_Driver/Src/stm32f1xx_hal_rcc.c **** 
1024:drivers/STM32F1xx_HAL_Driver/Src/stm32f1xx_hal_rcc.c ****         if(HAL_IS_BIT_SET(RCC->CFGR2, RCC_CFGR2_PREDIV1SRC))
1025:drivers/STM32F1xx_HAL_Driver/Src/stm32f1xx_hal_rcc.c ****         {
1026:drivers/STM32F1xx_HAL_Driver/Src/stm32f1xx_hal_rcc.c ****           /* PLL2 selected as Prediv1 source */
1027:drivers/STM32F1xx_HAL_Driver/Src/stm32f1xx_hal_rcc.c ****           /* PLLCLK = PLL2CLK / PREDIV1 * PLLMUL with PLL2CLK = HSE/PREDIV2 * PLL2MUL */
1028:drivers/STM32F1xx_HAL_Driver/Src/stm32f1xx_hal_rcc.c ****           prediv2 = ((RCC->CFGR2 & RCC_CFGR2_PREDIV2) >> RCC_CFGR2_PREDIV2_Pos) + 1;
1029:drivers/STM32F1xx_HAL_Driver/Src/stm32f1xx_hal_rcc.c ****           pll2mul = ((RCC->CFGR2 & RCC_CFGR2_PLL2MUL) >> RCC_CFGR2_PLL2MUL_Pos) + 2;
1030:drivers/STM32F1xx_HAL_Driver/Src/stm32f1xx_hal_rcc.c ****           pllclk = (uint32_t)((((HSE_VALUE / prediv2) * pll2mul) / prediv) * pllmul);
1031:drivers/STM32F1xx_HAL_Driver/Src/stm32f1xx_hal_rcc.c ****         }
1032:drivers/STM32F1xx_HAL_Driver/Src/stm32f1xx_hal_rcc.c ****         else
1033:drivers/STM32F1xx_HAL_Driver/Src/stm32f1xx_hal_rcc.c ****         {
1034:drivers/STM32F1xx_HAL_Driver/Src/stm32f1xx_hal_rcc.c ****           /* HSE used as PLL clock source : PLLCLK = HSE/PREDIV1 * PLLMUL */
1035:drivers/STM32F1xx_HAL_Driver/Src/stm32f1xx_hal_rcc.c ****           pllclk = (uint32_t)((HSE_VALUE / prediv) * pllmul);
1036:drivers/STM32F1xx_HAL_Driver/Src/stm32f1xx_hal_rcc.c ****         }
1037:drivers/STM32F1xx_HAL_Driver/Src/stm32f1xx_hal_rcc.c ****         
1038:drivers/STM32F1xx_HAL_Driver/Src/stm32f1xx_hal_rcc.c ****         /* If PLLMUL was set to 13 means that it was to cover the case PLLMUL 6.5 (avoid using floa
1039:drivers/STM32F1xx_HAL_Driver/Src/stm32f1xx_hal_rcc.c ****         /* In this case need to divide pllclk by 2 */
1040:drivers/STM32F1xx_HAL_Driver/Src/stm32f1xx_hal_rcc.c ****         if (pllmul == aPLLMULFactorTable[(uint32_t)(RCC_CFGR_PLLMULL6_5) >> RCC_CFGR_PLLMULL_Pos])
1041:drivers/STM32F1xx_HAL_Driver/Src/stm32f1xx_hal_rcc.c ****         {
1042:drivers/STM32F1xx_HAL_Driver/Src/stm32f1xx_hal_rcc.c ****             pllclk = pllclk / 2;
1043:drivers/STM32F1xx_HAL_Driver/Src/stm32f1xx_hal_rcc.c ****         }
1044:drivers/STM32F1xx_HAL_Driver/Src/stm32f1xx_hal_rcc.c **** #else
1045:drivers/STM32F1xx_HAL_Driver/Src/stm32f1xx_hal_rcc.c ****         /* HSE used as PLL clock source : PLLCLK = HSE/PREDIV1 * PLLMUL */
1046:drivers/STM32F1xx_HAL_Driver/Src/stm32f1xx_hal_rcc.c ****         pllclk = (uint32_t)((HSE_VALUE / prediv) * pllmul);
1047:drivers/STM32F1xx_HAL_Driver/Src/stm32f1xx_hal_rcc.c **** #endif /*RCC_CFGR2_PREDIV1SRC*/
1048:drivers/STM32F1xx_HAL_Driver/Src/stm32f1xx_hal_rcc.c ****       }
1049:drivers/STM32F1xx_HAL_Driver/Src/stm32f1xx_hal_rcc.c ****       else
ARM GAS  /tmp/ccOtixHI.s 			page 27


1050:drivers/STM32F1xx_HAL_Driver/Src/stm32f1xx_hal_rcc.c ****       {
1051:drivers/STM32F1xx_HAL_Driver/Src/stm32f1xx_hal_rcc.c ****         /* HSI used as PLL clock source : PLLCLK = HSI/2 * PLLMUL */
1052:drivers/STM32F1xx_HAL_Driver/Src/stm32f1xx_hal_rcc.c ****         pllclk = (uint32_t)((HSI_VALUE >> 1) * pllmul);
1053:drivers/STM32F1xx_HAL_Driver/Src/stm32f1xx_hal_rcc.c ****       }
1054:drivers/STM32F1xx_HAL_Driver/Src/stm32f1xx_hal_rcc.c ****       sysclockfreq = pllclk;
1055:drivers/STM32F1xx_HAL_Driver/Src/stm32f1xx_hal_rcc.c ****       break;
1056:drivers/STM32F1xx_HAL_Driver/Src/stm32f1xx_hal_rcc.c ****     }
1057:drivers/STM32F1xx_HAL_Driver/Src/stm32f1xx_hal_rcc.c ****     case RCC_SYSCLKSOURCE_STATUS_HSI:  /* HSI used as system clock source */
1058:drivers/STM32F1xx_HAL_Driver/Src/stm32f1xx_hal_rcc.c ****     default: /* HSI used as system clock */
1059:drivers/STM32F1xx_HAL_Driver/Src/stm32f1xx_hal_rcc.c ****     {
1060:drivers/STM32F1xx_HAL_Driver/Src/stm32f1xx_hal_rcc.c ****       sysclockfreq = HSI_VALUE;
1061:drivers/STM32F1xx_HAL_Driver/Src/stm32f1xx_hal_rcc.c ****       break;
1062:drivers/STM32F1xx_HAL_Driver/Src/stm32f1xx_hal_rcc.c ****     }
1063:drivers/STM32F1xx_HAL_Driver/Src/stm32f1xx_hal_rcc.c ****   }
1064:drivers/STM32F1xx_HAL_Driver/Src/stm32f1xx_hal_rcc.c ****   return sysclockfreq;
1065:drivers/STM32F1xx_HAL_Driver/Src/stm32f1xx_hal_rcc.c **** }
1066:drivers/STM32F1xx_HAL_Driver/Src/stm32f1xx_hal_rcc.c **** 
1067:drivers/STM32F1xx_HAL_Driver/Src/stm32f1xx_hal_rcc.c **** /**
1068:drivers/STM32F1xx_HAL_Driver/Src/stm32f1xx_hal_rcc.c ****   * @brief  Returns the HCLK frequency     
1069:drivers/STM32F1xx_HAL_Driver/Src/stm32f1xx_hal_rcc.c ****   * @note   Each time HCLK changes, this function must be called to update the
1070:drivers/STM32F1xx_HAL_Driver/Src/stm32f1xx_hal_rcc.c ****   *         right HCLK value. Otherwise, any configuration based on this function will be incorrect
1071:drivers/STM32F1xx_HAL_Driver/Src/stm32f1xx_hal_rcc.c ****   * 
1072:drivers/STM32F1xx_HAL_Driver/Src/stm32f1xx_hal_rcc.c ****   * @note   The SystemCoreClock CMSIS variable is used to store System Clock Frequency 
1073:drivers/STM32F1xx_HAL_Driver/Src/stm32f1xx_hal_rcc.c ****   *         and updated within this function
1074:drivers/STM32F1xx_HAL_Driver/Src/stm32f1xx_hal_rcc.c ****   * @retval HCLK frequency
1075:drivers/STM32F1xx_HAL_Driver/Src/stm32f1xx_hal_rcc.c ****   */
1076:drivers/STM32F1xx_HAL_Driver/Src/stm32f1xx_hal_rcc.c **** uint32_t HAL_RCC_GetHCLKFreq(void)
1077:drivers/STM32F1xx_HAL_Driver/Src/stm32f1xx_hal_rcc.c **** {
1078:drivers/STM32F1xx_HAL_Driver/Src/stm32f1xx_hal_rcc.c ****   return SystemCoreClock;
1079:drivers/STM32F1xx_HAL_Driver/Src/stm32f1xx_hal_rcc.c **** }
1080:drivers/STM32F1xx_HAL_Driver/Src/stm32f1xx_hal_rcc.c **** 
1081:drivers/STM32F1xx_HAL_Driver/Src/stm32f1xx_hal_rcc.c **** /**
1082:drivers/STM32F1xx_HAL_Driver/Src/stm32f1xx_hal_rcc.c ****   * @brief  Returns the PCLK1 frequency     
1083:drivers/STM32F1xx_HAL_Driver/Src/stm32f1xx_hal_rcc.c ****   * @note   Each time PCLK1 changes, this function must be called to update the
1084:drivers/STM32F1xx_HAL_Driver/Src/stm32f1xx_hal_rcc.c ****   *         right PCLK1 value. Otherwise, any configuration based on this function will be incorrec
1085:drivers/STM32F1xx_HAL_Driver/Src/stm32f1xx_hal_rcc.c ****   * @retval PCLK1 frequency
1086:drivers/STM32F1xx_HAL_Driver/Src/stm32f1xx_hal_rcc.c ****   */
1087:drivers/STM32F1xx_HAL_Driver/Src/stm32f1xx_hal_rcc.c **** uint32_t HAL_RCC_GetPCLK1Freq(void)
1088:drivers/STM32F1xx_HAL_Driver/Src/stm32f1xx_hal_rcc.c **** {
1089:drivers/STM32F1xx_HAL_Driver/Src/stm32f1xx_hal_rcc.c ****   /* Get HCLK source and Compute PCLK1 frequency ---------------------------*/
1090:drivers/STM32F1xx_HAL_Driver/Src/stm32f1xx_hal_rcc.c ****   return (HAL_RCC_GetHCLKFreq() >> APBPrescTable[(RCC->CFGR & RCC_CFGR_PPRE1) >> RCC_CFGR_PPRE1_Pos
1091:drivers/STM32F1xx_HAL_Driver/Src/stm32f1xx_hal_rcc.c **** }    
1092:drivers/STM32F1xx_HAL_Driver/Src/stm32f1xx_hal_rcc.c **** 
1093:drivers/STM32F1xx_HAL_Driver/Src/stm32f1xx_hal_rcc.c **** /**
1094:drivers/STM32F1xx_HAL_Driver/Src/stm32f1xx_hal_rcc.c ****   * @brief  Returns the PCLK2 frequency     
1095:drivers/STM32F1xx_HAL_Driver/Src/stm32f1xx_hal_rcc.c ****   * @note   Each time PCLK2 changes, this function must be called to update the
1096:drivers/STM32F1xx_HAL_Driver/Src/stm32f1xx_hal_rcc.c ****   *         right PCLK2 value. Otherwise, any configuration based on this function will be incorrec
1097:drivers/STM32F1xx_HAL_Driver/Src/stm32f1xx_hal_rcc.c ****   * @retval PCLK2 frequency
1098:drivers/STM32F1xx_HAL_Driver/Src/stm32f1xx_hal_rcc.c ****   */
1099:drivers/STM32F1xx_HAL_Driver/Src/stm32f1xx_hal_rcc.c **** uint32_t HAL_RCC_GetPCLK2Freq(void)
1100:drivers/STM32F1xx_HAL_Driver/Src/stm32f1xx_hal_rcc.c **** {
1101:drivers/STM32F1xx_HAL_Driver/Src/stm32f1xx_hal_rcc.c ****   /* Get HCLK source and Compute PCLK2 frequency ---------------------------*/
1102:drivers/STM32F1xx_HAL_Driver/Src/stm32f1xx_hal_rcc.c ****   return (HAL_RCC_GetHCLKFreq()>> APBPrescTable[(RCC->CFGR & RCC_CFGR_PPRE2) >> RCC_CFGR_PPRE2_Pos]
1103:drivers/STM32F1xx_HAL_Driver/Src/stm32f1xx_hal_rcc.c **** } 
1104:drivers/STM32F1xx_HAL_Driver/Src/stm32f1xx_hal_rcc.c **** 
1105:drivers/STM32F1xx_HAL_Driver/Src/stm32f1xx_hal_rcc.c **** /**
1106:drivers/STM32F1xx_HAL_Driver/Src/stm32f1xx_hal_rcc.c ****   * @brief  Configures the RCC_OscInitStruct according to the internal 
ARM GAS  /tmp/ccOtixHI.s 			page 28


1107:drivers/STM32F1xx_HAL_Driver/Src/stm32f1xx_hal_rcc.c ****   * RCC configuration registers.
1108:drivers/STM32F1xx_HAL_Driver/Src/stm32f1xx_hal_rcc.c ****   * @param  RCC_OscInitStruct pointer to an RCC_OscInitTypeDef structure that 
1109:drivers/STM32F1xx_HAL_Driver/Src/stm32f1xx_hal_rcc.c ****   * will be configured.
1110:drivers/STM32F1xx_HAL_Driver/Src/stm32f1xx_hal_rcc.c ****   * @retval None
1111:drivers/STM32F1xx_HAL_Driver/Src/stm32f1xx_hal_rcc.c ****   */
1112:drivers/STM32F1xx_HAL_Driver/Src/stm32f1xx_hal_rcc.c **** void HAL_RCC_GetOscConfig(RCC_OscInitTypeDef  *RCC_OscInitStruct)
1113:drivers/STM32F1xx_HAL_Driver/Src/stm32f1xx_hal_rcc.c **** {
1114:drivers/STM32F1xx_HAL_Driver/Src/stm32f1xx_hal_rcc.c ****   /* Check the parameters */
1115:drivers/STM32F1xx_HAL_Driver/Src/stm32f1xx_hal_rcc.c ****   assert_param(RCC_OscInitStruct != NULL);
1116:drivers/STM32F1xx_HAL_Driver/Src/stm32f1xx_hal_rcc.c **** 
1117:drivers/STM32F1xx_HAL_Driver/Src/stm32f1xx_hal_rcc.c ****   /* Set all possible values for the Oscillator type parameter ---------------*/
1118:drivers/STM32F1xx_HAL_Driver/Src/stm32f1xx_hal_rcc.c ****   RCC_OscInitStruct->OscillatorType = RCC_OSCILLATORTYPE_HSE | RCC_OSCILLATORTYPE_HSI  \
1119:drivers/STM32F1xx_HAL_Driver/Src/stm32f1xx_hal_rcc.c ****                   | RCC_OSCILLATORTYPE_LSE | RCC_OSCILLATORTYPE_LSI;
1120:drivers/STM32F1xx_HAL_Driver/Src/stm32f1xx_hal_rcc.c **** 
1121:drivers/STM32F1xx_HAL_Driver/Src/stm32f1xx_hal_rcc.c **** #if defined(RCC_CFGR2_PREDIV1SRC)
1122:drivers/STM32F1xx_HAL_Driver/Src/stm32f1xx_hal_rcc.c ****   /* Get the Prediv1 source --------------------------------------------------*/
1123:drivers/STM32F1xx_HAL_Driver/Src/stm32f1xx_hal_rcc.c ****   RCC_OscInitStruct->Prediv1Source = READ_BIT(RCC->CFGR2,RCC_CFGR2_PREDIV1SRC);
1124:drivers/STM32F1xx_HAL_Driver/Src/stm32f1xx_hal_rcc.c **** #endif /* RCC_CFGR2_PREDIV1SRC */
1125:drivers/STM32F1xx_HAL_Driver/Src/stm32f1xx_hal_rcc.c **** 
1126:drivers/STM32F1xx_HAL_Driver/Src/stm32f1xx_hal_rcc.c ****   /* Get the HSE configuration -----------------------------------------------*/
1127:drivers/STM32F1xx_HAL_Driver/Src/stm32f1xx_hal_rcc.c ****   if((RCC->CR &RCC_CR_HSEBYP) == RCC_CR_HSEBYP)
1128:drivers/STM32F1xx_HAL_Driver/Src/stm32f1xx_hal_rcc.c ****   {
1129:drivers/STM32F1xx_HAL_Driver/Src/stm32f1xx_hal_rcc.c ****     RCC_OscInitStruct->HSEState = RCC_HSE_BYPASS;
1130:drivers/STM32F1xx_HAL_Driver/Src/stm32f1xx_hal_rcc.c ****   }
1131:drivers/STM32F1xx_HAL_Driver/Src/stm32f1xx_hal_rcc.c ****   else if((RCC->CR &RCC_CR_HSEON) == RCC_CR_HSEON)
1132:drivers/STM32F1xx_HAL_Driver/Src/stm32f1xx_hal_rcc.c ****   {
1133:drivers/STM32F1xx_HAL_Driver/Src/stm32f1xx_hal_rcc.c ****     RCC_OscInitStruct->HSEState = RCC_HSE_ON;
1134:drivers/STM32F1xx_HAL_Driver/Src/stm32f1xx_hal_rcc.c ****   }
1135:drivers/STM32F1xx_HAL_Driver/Src/stm32f1xx_hal_rcc.c ****   else
1136:drivers/STM32F1xx_HAL_Driver/Src/stm32f1xx_hal_rcc.c ****   {
1137:drivers/STM32F1xx_HAL_Driver/Src/stm32f1xx_hal_rcc.c ****     RCC_OscInitStruct->HSEState = RCC_HSE_OFF;
1138:drivers/STM32F1xx_HAL_Driver/Src/stm32f1xx_hal_rcc.c ****   }
1139:drivers/STM32F1xx_HAL_Driver/Src/stm32f1xx_hal_rcc.c ****   RCC_OscInitStruct->HSEPredivValue = __HAL_RCC_HSE_GET_PREDIV();
1140:drivers/STM32F1xx_HAL_Driver/Src/stm32f1xx_hal_rcc.c **** 
1141:drivers/STM32F1xx_HAL_Driver/Src/stm32f1xx_hal_rcc.c ****   /* Get the HSI configuration -----------------------------------------------*/
1142:drivers/STM32F1xx_HAL_Driver/Src/stm32f1xx_hal_rcc.c ****   if((RCC->CR &RCC_CR_HSION) == RCC_CR_HSION)
1143:drivers/STM32F1xx_HAL_Driver/Src/stm32f1xx_hal_rcc.c ****   {
1144:drivers/STM32F1xx_HAL_Driver/Src/stm32f1xx_hal_rcc.c ****     RCC_OscInitStruct->HSIState = RCC_HSI_ON;
1145:drivers/STM32F1xx_HAL_Driver/Src/stm32f1xx_hal_rcc.c ****   }
1146:drivers/STM32F1xx_HAL_Driver/Src/stm32f1xx_hal_rcc.c ****   else
1147:drivers/STM32F1xx_HAL_Driver/Src/stm32f1xx_hal_rcc.c ****   {
1148:drivers/STM32F1xx_HAL_Driver/Src/stm32f1xx_hal_rcc.c ****     RCC_OscInitStruct->HSIState = RCC_HSI_OFF;
1149:drivers/STM32F1xx_HAL_Driver/Src/stm32f1xx_hal_rcc.c ****   }
1150:drivers/STM32F1xx_HAL_Driver/Src/stm32f1xx_hal_rcc.c ****   
1151:drivers/STM32F1xx_HAL_Driver/Src/stm32f1xx_hal_rcc.c ****   RCC_OscInitStruct->HSICalibrationValue = (uint32_t)((RCC->CR & RCC_CR_HSITRIM) >> RCC_CR_HSITRIM_
1152:drivers/STM32F1xx_HAL_Driver/Src/stm32f1xx_hal_rcc.c ****   
1153:drivers/STM32F1xx_HAL_Driver/Src/stm32f1xx_hal_rcc.c ****   /* Get the LSE configuration -----------------------------------------------*/
1154:drivers/STM32F1xx_HAL_Driver/Src/stm32f1xx_hal_rcc.c ****   if((RCC->BDCR &RCC_BDCR_LSEBYP) == RCC_BDCR_LSEBYP)
1155:drivers/STM32F1xx_HAL_Driver/Src/stm32f1xx_hal_rcc.c ****   {
1156:drivers/STM32F1xx_HAL_Driver/Src/stm32f1xx_hal_rcc.c ****     RCC_OscInitStruct->LSEState = RCC_LSE_BYPASS;
1157:drivers/STM32F1xx_HAL_Driver/Src/stm32f1xx_hal_rcc.c ****   }
1158:drivers/STM32F1xx_HAL_Driver/Src/stm32f1xx_hal_rcc.c ****   else if((RCC->BDCR &RCC_BDCR_LSEON) == RCC_BDCR_LSEON)
1159:drivers/STM32F1xx_HAL_Driver/Src/stm32f1xx_hal_rcc.c ****   {
1160:drivers/STM32F1xx_HAL_Driver/Src/stm32f1xx_hal_rcc.c ****     RCC_OscInitStruct->LSEState = RCC_LSE_ON;
1161:drivers/STM32F1xx_HAL_Driver/Src/stm32f1xx_hal_rcc.c ****   }
1162:drivers/STM32F1xx_HAL_Driver/Src/stm32f1xx_hal_rcc.c ****   else
1163:drivers/STM32F1xx_HAL_Driver/Src/stm32f1xx_hal_rcc.c ****   {
ARM GAS  /tmp/ccOtixHI.s 			page 29


1164:drivers/STM32F1xx_HAL_Driver/Src/stm32f1xx_hal_rcc.c ****     RCC_OscInitStruct->LSEState = RCC_LSE_OFF;
1165:drivers/STM32F1xx_HAL_Driver/Src/stm32f1xx_hal_rcc.c ****   }
1166:drivers/STM32F1xx_HAL_Driver/Src/stm32f1xx_hal_rcc.c ****   
1167:drivers/STM32F1xx_HAL_Driver/Src/stm32f1xx_hal_rcc.c ****   /* Get the LSI configuration -----------------------------------------------*/
1168:drivers/STM32F1xx_HAL_Driver/Src/stm32f1xx_hal_rcc.c ****   if((RCC->CSR &RCC_CSR_LSION) == RCC_CSR_LSION)
1169:drivers/STM32F1xx_HAL_Driver/Src/stm32f1xx_hal_rcc.c ****   {
1170:drivers/STM32F1xx_HAL_Driver/Src/stm32f1xx_hal_rcc.c ****     RCC_OscInitStruct->LSIState = RCC_LSI_ON;
1171:drivers/STM32F1xx_HAL_Driver/Src/stm32f1xx_hal_rcc.c ****   }
1172:drivers/STM32F1xx_HAL_Driver/Src/stm32f1xx_hal_rcc.c ****   else
1173:drivers/STM32F1xx_HAL_Driver/Src/stm32f1xx_hal_rcc.c ****   {
1174:drivers/STM32F1xx_HAL_Driver/Src/stm32f1xx_hal_rcc.c ****     RCC_OscInitStruct->LSIState = RCC_LSI_OFF;
1175:drivers/STM32F1xx_HAL_Driver/Src/stm32f1xx_hal_rcc.c ****   }
1176:drivers/STM32F1xx_HAL_Driver/Src/stm32f1xx_hal_rcc.c ****   
1177:drivers/STM32F1xx_HAL_Driver/Src/stm32f1xx_hal_rcc.c **** 
1178:drivers/STM32F1xx_HAL_Driver/Src/stm32f1xx_hal_rcc.c ****   /* Get the PLL configuration -----------------------------------------------*/
1179:drivers/STM32F1xx_HAL_Driver/Src/stm32f1xx_hal_rcc.c ****   if((RCC->CR &RCC_CR_PLLON) == RCC_CR_PLLON)
1180:drivers/STM32F1xx_HAL_Driver/Src/stm32f1xx_hal_rcc.c ****   {
1181:drivers/STM32F1xx_HAL_Driver/Src/stm32f1xx_hal_rcc.c ****     RCC_OscInitStruct->PLL.PLLState = RCC_PLL_ON;
1182:drivers/STM32F1xx_HAL_Driver/Src/stm32f1xx_hal_rcc.c ****   }
1183:drivers/STM32F1xx_HAL_Driver/Src/stm32f1xx_hal_rcc.c ****   else
1184:drivers/STM32F1xx_HAL_Driver/Src/stm32f1xx_hal_rcc.c ****   {
1185:drivers/STM32F1xx_HAL_Driver/Src/stm32f1xx_hal_rcc.c ****     RCC_OscInitStruct->PLL.PLLState = RCC_PLL_OFF;
1186:drivers/STM32F1xx_HAL_Driver/Src/stm32f1xx_hal_rcc.c ****   }
1187:drivers/STM32F1xx_HAL_Driver/Src/stm32f1xx_hal_rcc.c ****   RCC_OscInitStruct->PLL.PLLSource = (uint32_t)(RCC->CFGR & RCC_CFGR_PLLSRC);
1188:drivers/STM32F1xx_HAL_Driver/Src/stm32f1xx_hal_rcc.c ****   RCC_OscInitStruct->PLL.PLLMUL = (uint32_t)(RCC->CFGR & RCC_CFGR_PLLMULL);
1189:drivers/STM32F1xx_HAL_Driver/Src/stm32f1xx_hal_rcc.c **** #if defined(RCC_CR_PLL2ON)
1190:drivers/STM32F1xx_HAL_Driver/Src/stm32f1xx_hal_rcc.c ****   /* Get the PLL2 configuration -----------------------------------------------*/
1191:drivers/STM32F1xx_HAL_Driver/Src/stm32f1xx_hal_rcc.c ****   if((RCC->CR &RCC_CR_PLL2ON) == RCC_CR_PLL2ON)
1192:drivers/STM32F1xx_HAL_Driver/Src/stm32f1xx_hal_rcc.c ****   {
1193:drivers/STM32F1xx_HAL_Driver/Src/stm32f1xx_hal_rcc.c ****     RCC_OscInitStruct->PLL2.PLL2State = RCC_PLL2_ON;
1194:drivers/STM32F1xx_HAL_Driver/Src/stm32f1xx_hal_rcc.c ****   }
1195:drivers/STM32F1xx_HAL_Driver/Src/stm32f1xx_hal_rcc.c ****   else
1196:drivers/STM32F1xx_HAL_Driver/Src/stm32f1xx_hal_rcc.c ****   {
1197:drivers/STM32F1xx_HAL_Driver/Src/stm32f1xx_hal_rcc.c ****     RCC_OscInitStruct->PLL2.PLL2State = RCC_PLL2_OFF;
1198:drivers/STM32F1xx_HAL_Driver/Src/stm32f1xx_hal_rcc.c ****   }
1199:drivers/STM32F1xx_HAL_Driver/Src/stm32f1xx_hal_rcc.c ****   RCC_OscInitStruct->PLL2.HSEPrediv2Value = __HAL_RCC_HSE_GET_PREDIV2();
1200:drivers/STM32F1xx_HAL_Driver/Src/stm32f1xx_hal_rcc.c ****   RCC_OscInitStruct->PLL2.PLL2MUL = (uint32_t)(RCC->CFGR2 & RCC_CFGR2_PLL2MUL);
1201:drivers/STM32F1xx_HAL_Driver/Src/stm32f1xx_hal_rcc.c **** #endif /* RCC_CR_PLL2ON */
1202:drivers/STM32F1xx_HAL_Driver/Src/stm32f1xx_hal_rcc.c **** }
1203:drivers/STM32F1xx_HAL_Driver/Src/stm32f1xx_hal_rcc.c **** 
1204:drivers/STM32F1xx_HAL_Driver/Src/stm32f1xx_hal_rcc.c **** /**
1205:drivers/STM32F1xx_HAL_Driver/Src/stm32f1xx_hal_rcc.c ****   * @brief  Get the RCC_ClkInitStruct according to the internal 
1206:drivers/STM32F1xx_HAL_Driver/Src/stm32f1xx_hal_rcc.c ****   * RCC configuration registers.
1207:drivers/STM32F1xx_HAL_Driver/Src/stm32f1xx_hal_rcc.c ****   * @param  RCC_ClkInitStruct pointer to an RCC_ClkInitTypeDef structure that 
1208:drivers/STM32F1xx_HAL_Driver/Src/stm32f1xx_hal_rcc.c ****   * contains the current clock configuration.
1209:drivers/STM32F1xx_HAL_Driver/Src/stm32f1xx_hal_rcc.c ****   * @param  pFLatency Pointer on the Flash Latency.
1210:drivers/STM32F1xx_HAL_Driver/Src/stm32f1xx_hal_rcc.c ****   * @retval None
1211:drivers/STM32F1xx_HAL_Driver/Src/stm32f1xx_hal_rcc.c ****   */
1212:drivers/STM32F1xx_HAL_Driver/Src/stm32f1xx_hal_rcc.c **** void HAL_RCC_GetClockConfig(RCC_ClkInitTypeDef  *RCC_ClkInitStruct, uint32_t *pFLatency)
1213:drivers/STM32F1xx_HAL_Driver/Src/stm32f1xx_hal_rcc.c **** {
1214:drivers/STM32F1xx_HAL_Driver/Src/stm32f1xx_hal_rcc.c ****   /* Check the parameters */
1215:drivers/STM32F1xx_HAL_Driver/Src/stm32f1xx_hal_rcc.c ****   assert_param(RCC_ClkInitStruct != NULL);
1216:drivers/STM32F1xx_HAL_Driver/Src/stm32f1xx_hal_rcc.c ****   assert_param(pFLatency != NULL);
1217:drivers/STM32F1xx_HAL_Driver/Src/stm32f1xx_hal_rcc.c **** 
1218:drivers/STM32F1xx_HAL_Driver/Src/stm32f1xx_hal_rcc.c ****   /* Set all possible values for the Clock type parameter --------------------*/
1219:drivers/STM32F1xx_HAL_Driver/Src/stm32f1xx_hal_rcc.c ****   RCC_ClkInitStruct->ClockType = RCC_CLOCKTYPE_SYSCLK | RCC_CLOCKTYPE_HCLK | RCC_CLOCKTYPE_PCLK1 | 
1220:drivers/STM32F1xx_HAL_Driver/Src/stm32f1xx_hal_rcc.c ****   
ARM GAS  /tmp/ccOtixHI.s 			page 30


1221:drivers/STM32F1xx_HAL_Driver/Src/stm32f1xx_hal_rcc.c ****   /* Get the SYSCLK configuration --------------------------------------------*/ 
1222:drivers/STM32F1xx_HAL_Driver/Src/stm32f1xx_hal_rcc.c ****   RCC_ClkInitStruct->SYSCLKSource = (uint32_t)(RCC->CFGR & RCC_CFGR_SW);
1223:drivers/STM32F1xx_HAL_Driver/Src/stm32f1xx_hal_rcc.c ****   
1224:drivers/STM32F1xx_HAL_Driver/Src/stm32f1xx_hal_rcc.c ****   /* Get the HCLK configuration ----------------------------------------------*/ 
1225:drivers/STM32F1xx_HAL_Driver/Src/stm32f1xx_hal_rcc.c ****   RCC_ClkInitStruct->AHBCLKDivider = (uint32_t)(RCC->CFGR & RCC_CFGR_HPRE); 
1226:drivers/STM32F1xx_HAL_Driver/Src/stm32f1xx_hal_rcc.c ****   
1227:drivers/STM32F1xx_HAL_Driver/Src/stm32f1xx_hal_rcc.c ****   /* Get the APB1 configuration ----------------------------------------------*/ 
1228:drivers/STM32F1xx_HAL_Driver/Src/stm32f1xx_hal_rcc.c ****   RCC_ClkInitStruct->APB1CLKDivider = (uint32_t)(RCC->CFGR & RCC_CFGR_PPRE1);   
1229:drivers/STM32F1xx_HAL_Driver/Src/stm32f1xx_hal_rcc.c ****   
1230:drivers/STM32F1xx_HAL_Driver/Src/stm32f1xx_hal_rcc.c ****   /* Get the APB2 configuration ----------------------------------------------*/ 
1231:drivers/STM32F1xx_HAL_Driver/Src/stm32f1xx_hal_rcc.c ****   RCC_ClkInitStruct->APB2CLKDivider = (uint32_t)((RCC->CFGR & RCC_CFGR_PPRE2) >> 3);
1232:drivers/STM32F1xx_HAL_Driver/Src/stm32f1xx_hal_rcc.c ****   
1233:drivers/STM32F1xx_HAL_Driver/Src/stm32f1xx_hal_rcc.c **** #if   defined(FLASH_ACR_LATENCY)
1234:drivers/STM32F1xx_HAL_Driver/Src/stm32f1xx_hal_rcc.c ****   /* Get the Flash Wait State (Latency) configuration ------------------------*/   
1235:drivers/STM32F1xx_HAL_Driver/Src/stm32f1xx_hal_rcc.c ****   *pFLatency = (uint32_t)(FLASH->ACR & FLASH_ACR_LATENCY); 
1236:drivers/STM32F1xx_HAL_Driver/Src/stm32f1xx_hal_rcc.c **** #else
1237:drivers/STM32F1xx_HAL_Driver/Src/stm32f1xx_hal_rcc.c ****   /* For VALUE lines devices, only LATENCY_0 can be set*/
1238:drivers/STM32F1xx_HAL_Driver/Src/stm32f1xx_hal_rcc.c ****   *pFLatency = (uint32_t)FLASH_LATENCY_0; 
1239:drivers/STM32F1xx_HAL_Driver/Src/stm32f1xx_hal_rcc.c **** #endif
1240:drivers/STM32F1xx_HAL_Driver/Src/stm32f1xx_hal_rcc.c **** }
1241:drivers/STM32F1xx_HAL_Driver/Src/stm32f1xx_hal_rcc.c **** 
1242:drivers/STM32F1xx_HAL_Driver/Src/stm32f1xx_hal_rcc.c **** /**
1243:drivers/STM32F1xx_HAL_Driver/Src/stm32f1xx_hal_rcc.c ****   * @brief This function handles the RCC CSS interrupt request.
1244:drivers/STM32F1xx_HAL_Driver/Src/stm32f1xx_hal_rcc.c ****   * @note This API should be called under the NMI_Handler().
1245:drivers/STM32F1xx_HAL_Driver/Src/stm32f1xx_hal_rcc.c ****   * @retval None
1246:drivers/STM32F1xx_HAL_Driver/Src/stm32f1xx_hal_rcc.c ****   */
1247:drivers/STM32F1xx_HAL_Driver/Src/stm32f1xx_hal_rcc.c **** void HAL_RCC_NMI_IRQHandler(void)
1248:drivers/STM32F1xx_HAL_Driver/Src/stm32f1xx_hal_rcc.c **** {
1249:drivers/STM32F1xx_HAL_Driver/Src/stm32f1xx_hal_rcc.c ****   /* Check RCC CSSF flag  */
1250:drivers/STM32F1xx_HAL_Driver/Src/stm32f1xx_hal_rcc.c ****   if(__HAL_RCC_GET_IT(RCC_IT_CSS))
1251:drivers/STM32F1xx_HAL_Driver/Src/stm32f1xx_hal_rcc.c ****   {
1252:drivers/STM32F1xx_HAL_Driver/Src/stm32f1xx_hal_rcc.c ****     /* RCC Clock Security System interrupt user callback */
1253:drivers/STM32F1xx_HAL_Driver/Src/stm32f1xx_hal_rcc.c ****     HAL_RCC_CSSCallback();
1254:drivers/STM32F1xx_HAL_Driver/Src/stm32f1xx_hal_rcc.c ****     
1255:drivers/STM32F1xx_HAL_Driver/Src/stm32f1xx_hal_rcc.c ****     /* Clear RCC CSS pending bit */
1256:drivers/STM32F1xx_HAL_Driver/Src/stm32f1xx_hal_rcc.c ****     __HAL_RCC_CLEAR_IT(RCC_IT_CSS);
1257:drivers/STM32F1xx_HAL_Driver/Src/stm32f1xx_hal_rcc.c ****   }
1258:drivers/STM32F1xx_HAL_Driver/Src/stm32f1xx_hal_rcc.c **** }
1259:drivers/STM32F1xx_HAL_Driver/Src/stm32f1xx_hal_rcc.c **** 
1260:drivers/STM32F1xx_HAL_Driver/Src/stm32f1xx_hal_rcc.c **** /**
1261:drivers/STM32F1xx_HAL_Driver/Src/stm32f1xx_hal_rcc.c ****   * @brief  This function provides delay (in milliseconds) based on CPU cycles method.
1262:drivers/STM32F1xx_HAL_Driver/Src/stm32f1xx_hal_rcc.c ****   * @param  mdelay: specifies the delay time length, in milliseconds.
1263:drivers/STM32F1xx_HAL_Driver/Src/stm32f1xx_hal_rcc.c ****   * @retval None
1264:drivers/STM32F1xx_HAL_Driver/Src/stm32f1xx_hal_rcc.c ****   */
1265:drivers/STM32F1xx_HAL_Driver/Src/stm32f1xx_hal_rcc.c **** static void RCC_Delay(uint32_t mdelay)
1266:drivers/STM32F1xx_HAL_Driver/Src/stm32f1xx_hal_rcc.c **** {
1267:drivers/STM32F1xx_HAL_Driver/Src/stm32f1xx_hal_rcc.c ****   __IO uint32_t Delay = mdelay * (SystemCoreClock / 8U / 1000U);
 405              		.loc 1 1267 0
 406 01ac 4A4B     		ldr	r3, .L115+20
 407 01ae 4B4A     		ldr	r2, .L115+24
 408 01b0 1B68     		ldr	r3, [r3]
 409 01b2 A2FB0323 		umull	r2, r3, r2, r3
 410 01b6 5B0A     		lsrs	r3, r3, #9
 411 01b8 0193     		str	r3, [sp, #4]
 412              	.L33:
 413              	.LBB18:
 414              	.LBB19:
ARM GAS  /tmp/ccOtixHI.s 			page 31


 415              		.file 2 "drivers/CMSIS/Include/cmsis_gcc.h"
   1:drivers/CMSIS/Include/cmsis_gcc.h **** /**************************************************************************//**
   2:drivers/CMSIS/Include/cmsis_gcc.h ****  * @file     cmsis_gcc.h
   3:drivers/CMSIS/Include/cmsis_gcc.h ****  * @brief    CMSIS Cortex-M Core Function/Instruction Header File
   4:drivers/CMSIS/Include/cmsis_gcc.h ****  * @version  V4.30
   5:drivers/CMSIS/Include/cmsis_gcc.h ****  * @date     20. October 2015
   6:drivers/CMSIS/Include/cmsis_gcc.h ****  ******************************************************************************/
   7:drivers/CMSIS/Include/cmsis_gcc.h **** /* Copyright (c) 2009 - 2015 ARM LIMITED
   8:drivers/CMSIS/Include/cmsis_gcc.h **** 
   9:drivers/CMSIS/Include/cmsis_gcc.h ****    All rights reserved.
  10:drivers/CMSIS/Include/cmsis_gcc.h ****    Redistribution and use in source and binary forms, with or without
  11:drivers/CMSIS/Include/cmsis_gcc.h ****    modification, are permitted provided that the following conditions are met:
  12:drivers/CMSIS/Include/cmsis_gcc.h ****    - Redistributions of source code must retain the above copyright
  13:drivers/CMSIS/Include/cmsis_gcc.h ****      notice, this list of conditions and the following disclaimer.
  14:drivers/CMSIS/Include/cmsis_gcc.h ****    - Redistributions in binary form must reproduce the above copyright
  15:drivers/CMSIS/Include/cmsis_gcc.h ****      notice, this list of conditions and the following disclaimer in the
  16:drivers/CMSIS/Include/cmsis_gcc.h ****      documentation and/or other materials provided with the distribution.
  17:drivers/CMSIS/Include/cmsis_gcc.h ****    - Neither the name of ARM nor the names of its contributors may be used
  18:drivers/CMSIS/Include/cmsis_gcc.h ****      to endorse or promote products derived from this software without
  19:drivers/CMSIS/Include/cmsis_gcc.h ****      specific prior written permission.
  20:drivers/CMSIS/Include/cmsis_gcc.h ****    *
  21:drivers/CMSIS/Include/cmsis_gcc.h ****    THIS SOFTWARE IS PROVIDED BY THE COPYRIGHT HOLDERS AND CONTRIBUTORS "AS IS"
  22:drivers/CMSIS/Include/cmsis_gcc.h ****    AND ANY EXPRESS OR IMPLIED WARRANTIES, INCLUDING, BUT NOT LIMITED TO, THE
  23:drivers/CMSIS/Include/cmsis_gcc.h ****    IMPLIED WARRANTIES OF MERCHANTABILITY AND FITNESS FOR A PARTICULAR PURPOSE
  24:drivers/CMSIS/Include/cmsis_gcc.h ****    ARE DISCLAIMED. IN NO EVENT SHALL COPYRIGHT HOLDERS AND CONTRIBUTORS BE
  25:drivers/CMSIS/Include/cmsis_gcc.h ****    LIABLE FOR ANY DIRECT, INDIRECT, INCIDENTAL, SPECIAL, EXEMPLARY, OR
  26:drivers/CMSIS/Include/cmsis_gcc.h ****    CONSEQUENTIAL DAMAGES (INCLUDING, BUT NOT LIMITED TO, PROCUREMENT OF
  27:drivers/CMSIS/Include/cmsis_gcc.h ****    SUBSTITUTE GOODS OR SERVICES; LOSS OF USE, DATA, OR PROFITS; OR BUSINESS
  28:drivers/CMSIS/Include/cmsis_gcc.h ****    INTERRUPTION) HOWEVER CAUSED AND ON ANY THEORY OF LIABILITY, WHETHER IN
  29:drivers/CMSIS/Include/cmsis_gcc.h ****    CONTRACT, STRICT LIABILITY, OR TORT (INCLUDING NEGLIGENCE OR OTHERWISE)
  30:drivers/CMSIS/Include/cmsis_gcc.h ****    ARISING IN ANY WAY OUT OF THE USE OF THIS SOFTWARE, EVEN IF ADVISED OF THE
  31:drivers/CMSIS/Include/cmsis_gcc.h ****    POSSIBILITY OF SUCH DAMAGE.
  32:drivers/CMSIS/Include/cmsis_gcc.h ****    ---------------------------------------------------------------------------*/
  33:drivers/CMSIS/Include/cmsis_gcc.h **** 
  34:drivers/CMSIS/Include/cmsis_gcc.h **** 
  35:drivers/CMSIS/Include/cmsis_gcc.h **** #ifndef __CMSIS_GCC_H
  36:drivers/CMSIS/Include/cmsis_gcc.h **** #define __CMSIS_GCC_H
  37:drivers/CMSIS/Include/cmsis_gcc.h **** 
  38:drivers/CMSIS/Include/cmsis_gcc.h **** /* ignore some GCC warnings */
  39:drivers/CMSIS/Include/cmsis_gcc.h **** #if defined ( __GNUC__ )
  40:drivers/CMSIS/Include/cmsis_gcc.h **** #pragma GCC diagnostic push
  41:drivers/CMSIS/Include/cmsis_gcc.h **** #pragma GCC diagnostic ignored "-Wsign-conversion"
  42:drivers/CMSIS/Include/cmsis_gcc.h **** #pragma GCC diagnostic ignored "-Wconversion"
  43:drivers/CMSIS/Include/cmsis_gcc.h **** #pragma GCC diagnostic ignored "-Wunused-parameter"
  44:drivers/CMSIS/Include/cmsis_gcc.h **** #endif
  45:drivers/CMSIS/Include/cmsis_gcc.h **** 
  46:drivers/CMSIS/Include/cmsis_gcc.h **** 
  47:drivers/CMSIS/Include/cmsis_gcc.h **** /* ###########################  Core Function Access  ########################### */
  48:drivers/CMSIS/Include/cmsis_gcc.h **** /** \ingroup  CMSIS_Core_FunctionInterface
  49:drivers/CMSIS/Include/cmsis_gcc.h ****     \defgroup CMSIS_Core_RegAccFunctions CMSIS Core Register Access Functions
  50:drivers/CMSIS/Include/cmsis_gcc.h ****   @{
  51:drivers/CMSIS/Include/cmsis_gcc.h ****  */
  52:drivers/CMSIS/Include/cmsis_gcc.h **** 
  53:drivers/CMSIS/Include/cmsis_gcc.h **** /**
  54:drivers/CMSIS/Include/cmsis_gcc.h ****   \brief   Enable IRQ Interrupts
  55:drivers/CMSIS/Include/cmsis_gcc.h ****   \details Enables IRQ interrupts by clearing the I-bit in the CPSR.
  56:drivers/CMSIS/Include/cmsis_gcc.h ****            Can only be executed in Privileged modes.
ARM GAS  /tmp/ccOtixHI.s 			page 32


  57:drivers/CMSIS/Include/cmsis_gcc.h ****  */
  58:drivers/CMSIS/Include/cmsis_gcc.h **** __attribute__( ( always_inline ) ) __STATIC_INLINE void __enable_irq(void)
  59:drivers/CMSIS/Include/cmsis_gcc.h **** {
  60:drivers/CMSIS/Include/cmsis_gcc.h ****   __ASM volatile ("cpsie i" : : : "memory");
  61:drivers/CMSIS/Include/cmsis_gcc.h **** }
  62:drivers/CMSIS/Include/cmsis_gcc.h **** 
  63:drivers/CMSIS/Include/cmsis_gcc.h **** 
  64:drivers/CMSIS/Include/cmsis_gcc.h **** /**
  65:drivers/CMSIS/Include/cmsis_gcc.h ****   \brief   Disable IRQ Interrupts
  66:drivers/CMSIS/Include/cmsis_gcc.h ****   \details Disables IRQ interrupts by setting the I-bit in the CPSR.
  67:drivers/CMSIS/Include/cmsis_gcc.h ****   Can only be executed in Privileged modes.
  68:drivers/CMSIS/Include/cmsis_gcc.h ****  */
  69:drivers/CMSIS/Include/cmsis_gcc.h **** __attribute__( ( always_inline ) ) __STATIC_INLINE void __disable_irq(void)
  70:drivers/CMSIS/Include/cmsis_gcc.h **** {
  71:drivers/CMSIS/Include/cmsis_gcc.h ****   __ASM volatile ("cpsid i" : : : "memory");
  72:drivers/CMSIS/Include/cmsis_gcc.h **** }
  73:drivers/CMSIS/Include/cmsis_gcc.h **** 
  74:drivers/CMSIS/Include/cmsis_gcc.h **** 
  75:drivers/CMSIS/Include/cmsis_gcc.h **** /**
  76:drivers/CMSIS/Include/cmsis_gcc.h ****   \brief   Get Control Register
  77:drivers/CMSIS/Include/cmsis_gcc.h ****   \details Returns the content of the Control Register.
  78:drivers/CMSIS/Include/cmsis_gcc.h ****   \return               Control Register value
  79:drivers/CMSIS/Include/cmsis_gcc.h ****  */
  80:drivers/CMSIS/Include/cmsis_gcc.h **** __attribute__( ( always_inline ) ) __STATIC_INLINE uint32_t __get_CONTROL(void)
  81:drivers/CMSIS/Include/cmsis_gcc.h **** {
  82:drivers/CMSIS/Include/cmsis_gcc.h ****   uint32_t result;
  83:drivers/CMSIS/Include/cmsis_gcc.h **** 
  84:drivers/CMSIS/Include/cmsis_gcc.h ****   __ASM volatile ("MRS %0, control" : "=r" (result) );
  85:drivers/CMSIS/Include/cmsis_gcc.h ****   return(result);
  86:drivers/CMSIS/Include/cmsis_gcc.h **** }
  87:drivers/CMSIS/Include/cmsis_gcc.h **** 
  88:drivers/CMSIS/Include/cmsis_gcc.h **** 
  89:drivers/CMSIS/Include/cmsis_gcc.h **** /**
  90:drivers/CMSIS/Include/cmsis_gcc.h ****   \brief   Set Control Register
  91:drivers/CMSIS/Include/cmsis_gcc.h ****   \details Writes the given value to the Control Register.
  92:drivers/CMSIS/Include/cmsis_gcc.h ****   \param [in]    control  Control Register value to set
  93:drivers/CMSIS/Include/cmsis_gcc.h ****  */
  94:drivers/CMSIS/Include/cmsis_gcc.h **** __attribute__( ( always_inline ) ) __STATIC_INLINE void __set_CONTROL(uint32_t control)
  95:drivers/CMSIS/Include/cmsis_gcc.h **** {
  96:drivers/CMSIS/Include/cmsis_gcc.h ****   __ASM volatile ("MSR control, %0" : : "r" (control) : "memory");
  97:drivers/CMSIS/Include/cmsis_gcc.h **** }
  98:drivers/CMSIS/Include/cmsis_gcc.h **** 
  99:drivers/CMSIS/Include/cmsis_gcc.h **** 
 100:drivers/CMSIS/Include/cmsis_gcc.h **** /**
 101:drivers/CMSIS/Include/cmsis_gcc.h ****   \brief   Get IPSR Register
 102:drivers/CMSIS/Include/cmsis_gcc.h ****   \details Returns the content of the IPSR Register.
 103:drivers/CMSIS/Include/cmsis_gcc.h ****   \return               IPSR Register value
 104:drivers/CMSIS/Include/cmsis_gcc.h ****  */
 105:drivers/CMSIS/Include/cmsis_gcc.h **** __attribute__( ( always_inline ) ) __STATIC_INLINE uint32_t __get_IPSR(void)
 106:drivers/CMSIS/Include/cmsis_gcc.h **** {
 107:drivers/CMSIS/Include/cmsis_gcc.h ****   uint32_t result;
 108:drivers/CMSIS/Include/cmsis_gcc.h **** 
 109:drivers/CMSIS/Include/cmsis_gcc.h ****   __ASM volatile ("MRS %0, ipsr" : "=r" (result) );
 110:drivers/CMSIS/Include/cmsis_gcc.h ****   return(result);
 111:drivers/CMSIS/Include/cmsis_gcc.h **** }
 112:drivers/CMSIS/Include/cmsis_gcc.h **** 
 113:drivers/CMSIS/Include/cmsis_gcc.h **** 
ARM GAS  /tmp/ccOtixHI.s 			page 33


 114:drivers/CMSIS/Include/cmsis_gcc.h **** /**
 115:drivers/CMSIS/Include/cmsis_gcc.h ****   \brief   Get APSR Register
 116:drivers/CMSIS/Include/cmsis_gcc.h ****   \details Returns the content of the APSR Register.
 117:drivers/CMSIS/Include/cmsis_gcc.h ****   \return               APSR Register value
 118:drivers/CMSIS/Include/cmsis_gcc.h ****  */
 119:drivers/CMSIS/Include/cmsis_gcc.h **** __attribute__( ( always_inline ) ) __STATIC_INLINE uint32_t __get_APSR(void)
 120:drivers/CMSIS/Include/cmsis_gcc.h **** {
 121:drivers/CMSIS/Include/cmsis_gcc.h ****   uint32_t result;
 122:drivers/CMSIS/Include/cmsis_gcc.h **** 
 123:drivers/CMSIS/Include/cmsis_gcc.h ****   __ASM volatile ("MRS %0, apsr" : "=r" (result) );
 124:drivers/CMSIS/Include/cmsis_gcc.h ****   return(result);
 125:drivers/CMSIS/Include/cmsis_gcc.h **** }
 126:drivers/CMSIS/Include/cmsis_gcc.h **** 
 127:drivers/CMSIS/Include/cmsis_gcc.h **** 
 128:drivers/CMSIS/Include/cmsis_gcc.h **** /**
 129:drivers/CMSIS/Include/cmsis_gcc.h ****   \brief   Get xPSR Register
 130:drivers/CMSIS/Include/cmsis_gcc.h ****   \details Returns the content of the xPSR Register.
 131:drivers/CMSIS/Include/cmsis_gcc.h **** 
 132:drivers/CMSIS/Include/cmsis_gcc.h ****     \return               xPSR Register value
 133:drivers/CMSIS/Include/cmsis_gcc.h ****  */
 134:drivers/CMSIS/Include/cmsis_gcc.h **** __attribute__( ( always_inline ) ) __STATIC_INLINE uint32_t __get_xPSR(void)
 135:drivers/CMSIS/Include/cmsis_gcc.h **** {
 136:drivers/CMSIS/Include/cmsis_gcc.h ****   uint32_t result;
 137:drivers/CMSIS/Include/cmsis_gcc.h **** 
 138:drivers/CMSIS/Include/cmsis_gcc.h ****   __ASM volatile ("MRS %0, xpsr" : "=r" (result) );
 139:drivers/CMSIS/Include/cmsis_gcc.h ****   return(result);
 140:drivers/CMSIS/Include/cmsis_gcc.h **** }
 141:drivers/CMSIS/Include/cmsis_gcc.h **** 
 142:drivers/CMSIS/Include/cmsis_gcc.h **** 
 143:drivers/CMSIS/Include/cmsis_gcc.h **** /**
 144:drivers/CMSIS/Include/cmsis_gcc.h ****   \brief   Get Process Stack Pointer
 145:drivers/CMSIS/Include/cmsis_gcc.h ****   \details Returns the current value of the Process Stack Pointer (PSP).
 146:drivers/CMSIS/Include/cmsis_gcc.h ****   \return               PSP Register value
 147:drivers/CMSIS/Include/cmsis_gcc.h ****  */
 148:drivers/CMSIS/Include/cmsis_gcc.h **** __attribute__( ( always_inline ) ) __STATIC_INLINE uint32_t __get_PSP(void)
 149:drivers/CMSIS/Include/cmsis_gcc.h **** {
 150:drivers/CMSIS/Include/cmsis_gcc.h ****   register uint32_t result;
 151:drivers/CMSIS/Include/cmsis_gcc.h **** 
 152:drivers/CMSIS/Include/cmsis_gcc.h ****   __ASM volatile ("MRS %0, psp\n"  : "=r" (result) );
 153:drivers/CMSIS/Include/cmsis_gcc.h ****   return(result);
 154:drivers/CMSIS/Include/cmsis_gcc.h **** }
 155:drivers/CMSIS/Include/cmsis_gcc.h **** 
 156:drivers/CMSIS/Include/cmsis_gcc.h **** 
 157:drivers/CMSIS/Include/cmsis_gcc.h **** /**
 158:drivers/CMSIS/Include/cmsis_gcc.h ****   \brief   Set Process Stack Pointer
 159:drivers/CMSIS/Include/cmsis_gcc.h ****   \details Assigns the given value to the Process Stack Pointer (PSP).
 160:drivers/CMSIS/Include/cmsis_gcc.h ****   \param [in]    topOfProcStack  Process Stack Pointer value to set
 161:drivers/CMSIS/Include/cmsis_gcc.h ****  */
 162:drivers/CMSIS/Include/cmsis_gcc.h **** __attribute__( ( always_inline ) ) __STATIC_INLINE void __set_PSP(uint32_t topOfProcStack)
 163:drivers/CMSIS/Include/cmsis_gcc.h **** {
 164:drivers/CMSIS/Include/cmsis_gcc.h ****   __ASM volatile ("MSR psp, %0\n" : : "r" (topOfProcStack) : "sp");
 165:drivers/CMSIS/Include/cmsis_gcc.h **** }
 166:drivers/CMSIS/Include/cmsis_gcc.h **** 
 167:drivers/CMSIS/Include/cmsis_gcc.h **** 
 168:drivers/CMSIS/Include/cmsis_gcc.h **** /**
 169:drivers/CMSIS/Include/cmsis_gcc.h ****   \brief   Get Main Stack Pointer
 170:drivers/CMSIS/Include/cmsis_gcc.h ****   \details Returns the current value of the Main Stack Pointer (MSP).
ARM GAS  /tmp/ccOtixHI.s 			page 34


 171:drivers/CMSIS/Include/cmsis_gcc.h ****   \return               MSP Register value
 172:drivers/CMSIS/Include/cmsis_gcc.h ****  */
 173:drivers/CMSIS/Include/cmsis_gcc.h **** __attribute__( ( always_inline ) ) __STATIC_INLINE uint32_t __get_MSP(void)
 174:drivers/CMSIS/Include/cmsis_gcc.h **** {
 175:drivers/CMSIS/Include/cmsis_gcc.h ****   register uint32_t result;
 176:drivers/CMSIS/Include/cmsis_gcc.h **** 
 177:drivers/CMSIS/Include/cmsis_gcc.h ****   __ASM volatile ("MRS %0, msp\n" : "=r" (result) );
 178:drivers/CMSIS/Include/cmsis_gcc.h ****   return(result);
 179:drivers/CMSIS/Include/cmsis_gcc.h **** }
 180:drivers/CMSIS/Include/cmsis_gcc.h **** 
 181:drivers/CMSIS/Include/cmsis_gcc.h **** 
 182:drivers/CMSIS/Include/cmsis_gcc.h **** /**
 183:drivers/CMSIS/Include/cmsis_gcc.h ****   \brief   Set Main Stack Pointer
 184:drivers/CMSIS/Include/cmsis_gcc.h ****   \details Assigns the given value to the Main Stack Pointer (MSP).
 185:drivers/CMSIS/Include/cmsis_gcc.h **** 
 186:drivers/CMSIS/Include/cmsis_gcc.h ****     \param [in]    topOfMainStack  Main Stack Pointer value to set
 187:drivers/CMSIS/Include/cmsis_gcc.h ****  */
 188:drivers/CMSIS/Include/cmsis_gcc.h **** __attribute__( ( always_inline ) ) __STATIC_INLINE void __set_MSP(uint32_t topOfMainStack)
 189:drivers/CMSIS/Include/cmsis_gcc.h **** {
 190:drivers/CMSIS/Include/cmsis_gcc.h ****   __ASM volatile ("MSR msp, %0\n" : : "r" (topOfMainStack) : "sp");
 191:drivers/CMSIS/Include/cmsis_gcc.h **** }
 192:drivers/CMSIS/Include/cmsis_gcc.h **** 
 193:drivers/CMSIS/Include/cmsis_gcc.h **** 
 194:drivers/CMSIS/Include/cmsis_gcc.h **** /**
 195:drivers/CMSIS/Include/cmsis_gcc.h ****   \brief   Get Priority Mask
 196:drivers/CMSIS/Include/cmsis_gcc.h ****   \details Returns the current state of the priority mask bit from the Priority Mask Register.
 197:drivers/CMSIS/Include/cmsis_gcc.h ****   \return               Priority Mask value
 198:drivers/CMSIS/Include/cmsis_gcc.h ****  */
 199:drivers/CMSIS/Include/cmsis_gcc.h **** __attribute__( ( always_inline ) ) __STATIC_INLINE uint32_t __get_PRIMASK(void)
 200:drivers/CMSIS/Include/cmsis_gcc.h **** {
 201:drivers/CMSIS/Include/cmsis_gcc.h ****   uint32_t result;
 202:drivers/CMSIS/Include/cmsis_gcc.h **** 
 203:drivers/CMSIS/Include/cmsis_gcc.h ****   __ASM volatile ("MRS %0, primask" : "=r" (result) );
 204:drivers/CMSIS/Include/cmsis_gcc.h ****   return(result);
 205:drivers/CMSIS/Include/cmsis_gcc.h **** }
 206:drivers/CMSIS/Include/cmsis_gcc.h **** 
 207:drivers/CMSIS/Include/cmsis_gcc.h **** 
 208:drivers/CMSIS/Include/cmsis_gcc.h **** /**
 209:drivers/CMSIS/Include/cmsis_gcc.h ****   \brief   Set Priority Mask
 210:drivers/CMSIS/Include/cmsis_gcc.h ****   \details Assigns the given value to the Priority Mask Register.
 211:drivers/CMSIS/Include/cmsis_gcc.h ****   \param [in]    priMask  Priority Mask
 212:drivers/CMSIS/Include/cmsis_gcc.h ****  */
 213:drivers/CMSIS/Include/cmsis_gcc.h **** __attribute__( ( always_inline ) ) __STATIC_INLINE void __set_PRIMASK(uint32_t priMask)
 214:drivers/CMSIS/Include/cmsis_gcc.h **** {
 215:drivers/CMSIS/Include/cmsis_gcc.h ****   __ASM volatile ("MSR primask, %0" : : "r" (priMask) : "memory");
 216:drivers/CMSIS/Include/cmsis_gcc.h **** }
 217:drivers/CMSIS/Include/cmsis_gcc.h **** 
 218:drivers/CMSIS/Include/cmsis_gcc.h **** 
 219:drivers/CMSIS/Include/cmsis_gcc.h **** #if       (__CORTEX_M >= 0x03U)
 220:drivers/CMSIS/Include/cmsis_gcc.h **** 
 221:drivers/CMSIS/Include/cmsis_gcc.h **** /**
 222:drivers/CMSIS/Include/cmsis_gcc.h ****   \brief   Enable FIQ
 223:drivers/CMSIS/Include/cmsis_gcc.h ****   \details Enables FIQ interrupts by clearing the F-bit in the CPSR.
 224:drivers/CMSIS/Include/cmsis_gcc.h ****            Can only be executed in Privileged modes.
 225:drivers/CMSIS/Include/cmsis_gcc.h ****  */
 226:drivers/CMSIS/Include/cmsis_gcc.h **** __attribute__( ( always_inline ) ) __STATIC_INLINE void __enable_fault_irq(void)
 227:drivers/CMSIS/Include/cmsis_gcc.h **** {
ARM GAS  /tmp/ccOtixHI.s 			page 35


 228:drivers/CMSIS/Include/cmsis_gcc.h ****   __ASM volatile ("cpsie f" : : : "memory");
 229:drivers/CMSIS/Include/cmsis_gcc.h **** }
 230:drivers/CMSIS/Include/cmsis_gcc.h **** 
 231:drivers/CMSIS/Include/cmsis_gcc.h **** 
 232:drivers/CMSIS/Include/cmsis_gcc.h **** /**
 233:drivers/CMSIS/Include/cmsis_gcc.h ****   \brief   Disable FIQ
 234:drivers/CMSIS/Include/cmsis_gcc.h ****   \details Disables FIQ interrupts by setting the F-bit in the CPSR.
 235:drivers/CMSIS/Include/cmsis_gcc.h ****            Can only be executed in Privileged modes.
 236:drivers/CMSIS/Include/cmsis_gcc.h ****  */
 237:drivers/CMSIS/Include/cmsis_gcc.h **** __attribute__( ( always_inline ) ) __STATIC_INLINE void __disable_fault_irq(void)
 238:drivers/CMSIS/Include/cmsis_gcc.h **** {
 239:drivers/CMSIS/Include/cmsis_gcc.h ****   __ASM volatile ("cpsid f" : : : "memory");
 240:drivers/CMSIS/Include/cmsis_gcc.h **** }
 241:drivers/CMSIS/Include/cmsis_gcc.h **** 
 242:drivers/CMSIS/Include/cmsis_gcc.h **** 
 243:drivers/CMSIS/Include/cmsis_gcc.h **** /**
 244:drivers/CMSIS/Include/cmsis_gcc.h ****   \brief   Get Base Priority
 245:drivers/CMSIS/Include/cmsis_gcc.h ****   \details Returns the current value of the Base Priority register.
 246:drivers/CMSIS/Include/cmsis_gcc.h ****   \return               Base Priority register value
 247:drivers/CMSIS/Include/cmsis_gcc.h ****  */
 248:drivers/CMSIS/Include/cmsis_gcc.h **** __attribute__( ( always_inline ) ) __STATIC_INLINE uint32_t __get_BASEPRI(void)
 249:drivers/CMSIS/Include/cmsis_gcc.h **** {
 250:drivers/CMSIS/Include/cmsis_gcc.h ****   uint32_t result;
 251:drivers/CMSIS/Include/cmsis_gcc.h **** 
 252:drivers/CMSIS/Include/cmsis_gcc.h ****   __ASM volatile ("MRS %0, basepri" : "=r" (result) );
 253:drivers/CMSIS/Include/cmsis_gcc.h ****   return(result);
 254:drivers/CMSIS/Include/cmsis_gcc.h **** }
 255:drivers/CMSIS/Include/cmsis_gcc.h **** 
 256:drivers/CMSIS/Include/cmsis_gcc.h **** 
 257:drivers/CMSIS/Include/cmsis_gcc.h **** /**
 258:drivers/CMSIS/Include/cmsis_gcc.h ****   \brief   Set Base Priority
 259:drivers/CMSIS/Include/cmsis_gcc.h ****   \details Assigns the given value to the Base Priority register.
 260:drivers/CMSIS/Include/cmsis_gcc.h ****   \param [in]    basePri  Base Priority value to set
 261:drivers/CMSIS/Include/cmsis_gcc.h ****  */
 262:drivers/CMSIS/Include/cmsis_gcc.h **** __attribute__( ( always_inline ) ) __STATIC_INLINE void __set_BASEPRI(uint32_t value)
 263:drivers/CMSIS/Include/cmsis_gcc.h **** {
 264:drivers/CMSIS/Include/cmsis_gcc.h ****   __ASM volatile ("MSR basepri, %0" : : "r" (value) : "memory");
 265:drivers/CMSIS/Include/cmsis_gcc.h **** }
 266:drivers/CMSIS/Include/cmsis_gcc.h **** 
 267:drivers/CMSIS/Include/cmsis_gcc.h **** 
 268:drivers/CMSIS/Include/cmsis_gcc.h **** /**
 269:drivers/CMSIS/Include/cmsis_gcc.h ****   \brief   Set Base Priority with condition
 270:drivers/CMSIS/Include/cmsis_gcc.h ****   \details Assigns the given value to the Base Priority register only if BASEPRI masking is disable
 271:drivers/CMSIS/Include/cmsis_gcc.h ****            or the new value increases the BASEPRI priority level.
 272:drivers/CMSIS/Include/cmsis_gcc.h ****   \param [in]    basePri  Base Priority value to set
 273:drivers/CMSIS/Include/cmsis_gcc.h ****  */
 274:drivers/CMSIS/Include/cmsis_gcc.h **** __attribute__( ( always_inline ) ) __STATIC_INLINE void __set_BASEPRI_MAX(uint32_t value)
 275:drivers/CMSIS/Include/cmsis_gcc.h **** {
 276:drivers/CMSIS/Include/cmsis_gcc.h ****   __ASM volatile ("MSR basepri_max, %0" : : "r" (value) : "memory");
 277:drivers/CMSIS/Include/cmsis_gcc.h **** }
 278:drivers/CMSIS/Include/cmsis_gcc.h **** 
 279:drivers/CMSIS/Include/cmsis_gcc.h **** 
 280:drivers/CMSIS/Include/cmsis_gcc.h **** /**
 281:drivers/CMSIS/Include/cmsis_gcc.h ****   \brief   Get Fault Mask
 282:drivers/CMSIS/Include/cmsis_gcc.h ****   \details Returns the current value of the Fault Mask register.
 283:drivers/CMSIS/Include/cmsis_gcc.h ****   \return               Fault Mask register value
 284:drivers/CMSIS/Include/cmsis_gcc.h ****  */
ARM GAS  /tmp/ccOtixHI.s 			page 36


 285:drivers/CMSIS/Include/cmsis_gcc.h **** __attribute__( ( always_inline ) ) __STATIC_INLINE uint32_t __get_FAULTMASK(void)
 286:drivers/CMSIS/Include/cmsis_gcc.h **** {
 287:drivers/CMSIS/Include/cmsis_gcc.h ****   uint32_t result;
 288:drivers/CMSIS/Include/cmsis_gcc.h **** 
 289:drivers/CMSIS/Include/cmsis_gcc.h ****   __ASM volatile ("MRS %0, faultmask" : "=r" (result) );
 290:drivers/CMSIS/Include/cmsis_gcc.h ****   return(result);
 291:drivers/CMSIS/Include/cmsis_gcc.h **** }
 292:drivers/CMSIS/Include/cmsis_gcc.h **** 
 293:drivers/CMSIS/Include/cmsis_gcc.h **** 
 294:drivers/CMSIS/Include/cmsis_gcc.h **** /**
 295:drivers/CMSIS/Include/cmsis_gcc.h ****   \brief   Set Fault Mask
 296:drivers/CMSIS/Include/cmsis_gcc.h ****   \details Assigns the given value to the Fault Mask register.
 297:drivers/CMSIS/Include/cmsis_gcc.h ****   \param [in]    faultMask  Fault Mask value to set
 298:drivers/CMSIS/Include/cmsis_gcc.h ****  */
 299:drivers/CMSIS/Include/cmsis_gcc.h **** __attribute__( ( always_inline ) ) __STATIC_INLINE void __set_FAULTMASK(uint32_t faultMask)
 300:drivers/CMSIS/Include/cmsis_gcc.h **** {
 301:drivers/CMSIS/Include/cmsis_gcc.h ****   __ASM volatile ("MSR faultmask, %0" : : "r" (faultMask) : "memory");
 302:drivers/CMSIS/Include/cmsis_gcc.h **** }
 303:drivers/CMSIS/Include/cmsis_gcc.h **** 
 304:drivers/CMSIS/Include/cmsis_gcc.h **** #endif /* (__CORTEX_M >= 0x03U) */
 305:drivers/CMSIS/Include/cmsis_gcc.h **** 
 306:drivers/CMSIS/Include/cmsis_gcc.h **** 
 307:drivers/CMSIS/Include/cmsis_gcc.h **** #if       (__CORTEX_M == 0x04U) || (__CORTEX_M == 0x07U)
 308:drivers/CMSIS/Include/cmsis_gcc.h **** 
 309:drivers/CMSIS/Include/cmsis_gcc.h **** /**
 310:drivers/CMSIS/Include/cmsis_gcc.h ****   \brief   Get FPSCR
 311:drivers/CMSIS/Include/cmsis_gcc.h ****   \details Returns the current value of the Floating Point Status/Control register.
 312:drivers/CMSIS/Include/cmsis_gcc.h ****   \return               Floating Point Status/Control register value
 313:drivers/CMSIS/Include/cmsis_gcc.h ****  */
 314:drivers/CMSIS/Include/cmsis_gcc.h **** __attribute__( ( always_inline ) ) __STATIC_INLINE uint32_t __get_FPSCR(void)
 315:drivers/CMSIS/Include/cmsis_gcc.h **** {
 316:drivers/CMSIS/Include/cmsis_gcc.h **** #if (__FPU_PRESENT == 1U) && (__FPU_USED == 1U)
 317:drivers/CMSIS/Include/cmsis_gcc.h ****   uint32_t result;
 318:drivers/CMSIS/Include/cmsis_gcc.h **** 
 319:drivers/CMSIS/Include/cmsis_gcc.h ****   /* Empty asm statement works as a scheduling barrier */
 320:drivers/CMSIS/Include/cmsis_gcc.h ****   __ASM volatile ("");
 321:drivers/CMSIS/Include/cmsis_gcc.h ****   __ASM volatile ("VMRS %0, fpscr" : "=r" (result) );
 322:drivers/CMSIS/Include/cmsis_gcc.h ****   __ASM volatile ("");
 323:drivers/CMSIS/Include/cmsis_gcc.h ****   return(result);
 324:drivers/CMSIS/Include/cmsis_gcc.h **** #else
 325:drivers/CMSIS/Include/cmsis_gcc.h ****    return(0);
 326:drivers/CMSIS/Include/cmsis_gcc.h **** #endif
 327:drivers/CMSIS/Include/cmsis_gcc.h **** }
 328:drivers/CMSIS/Include/cmsis_gcc.h **** 
 329:drivers/CMSIS/Include/cmsis_gcc.h **** 
 330:drivers/CMSIS/Include/cmsis_gcc.h **** /**
 331:drivers/CMSIS/Include/cmsis_gcc.h ****   \brief   Set FPSCR
 332:drivers/CMSIS/Include/cmsis_gcc.h ****   \details Assigns the given value to the Floating Point Status/Control register.
 333:drivers/CMSIS/Include/cmsis_gcc.h ****   \param [in]    fpscr  Floating Point Status/Control value to set
 334:drivers/CMSIS/Include/cmsis_gcc.h ****  */
 335:drivers/CMSIS/Include/cmsis_gcc.h **** __attribute__( ( always_inline ) ) __STATIC_INLINE void __set_FPSCR(uint32_t fpscr)
 336:drivers/CMSIS/Include/cmsis_gcc.h **** {
 337:drivers/CMSIS/Include/cmsis_gcc.h **** #if (__FPU_PRESENT == 1U) && (__FPU_USED == 1U)
 338:drivers/CMSIS/Include/cmsis_gcc.h ****   /* Empty asm statement works as a scheduling barrier */
 339:drivers/CMSIS/Include/cmsis_gcc.h ****   __ASM volatile ("");
 340:drivers/CMSIS/Include/cmsis_gcc.h ****   __ASM volatile ("VMSR fpscr, %0" : : "r" (fpscr) : "vfpcc");
 341:drivers/CMSIS/Include/cmsis_gcc.h ****   __ASM volatile ("");
ARM GAS  /tmp/ccOtixHI.s 			page 37


 342:drivers/CMSIS/Include/cmsis_gcc.h **** #endif
 343:drivers/CMSIS/Include/cmsis_gcc.h **** }
 344:drivers/CMSIS/Include/cmsis_gcc.h **** 
 345:drivers/CMSIS/Include/cmsis_gcc.h **** #endif /* (__CORTEX_M == 0x04U) || (__CORTEX_M == 0x07U) */
 346:drivers/CMSIS/Include/cmsis_gcc.h **** 
 347:drivers/CMSIS/Include/cmsis_gcc.h **** 
 348:drivers/CMSIS/Include/cmsis_gcc.h **** 
 349:drivers/CMSIS/Include/cmsis_gcc.h **** /*@} end of CMSIS_Core_RegAccFunctions */
 350:drivers/CMSIS/Include/cmsis_gcc.h **** 
 351:drivers/CMSIS/Include/cmsis_gcc.h **** 
 352:drivers/CMSIS/Include/cmsis_gcc.h **** /* ##########################  Core Instruction Access  ######################### */
 353:drivers/CMSIS/Include/cmsis_gcc.h **** /** \defgroup CMSIS_Core_InstructionInterface CMSIS Core Instruction Interface
 354:drivers/CMSIS/Include/cmsis_gcc.h ****   Access to dedicated instructions
 355:drivers/CMSIS/Include/cmsis_gcc.h ****   @{
 356:drivers/CMSIS/Include/cmsis_gcc.h **** */
 357:drivers/CMSIS/Include/cmsis_gcc.h **** 
 358:drivers/CMSIS/Include/cmsis_gcc.h **** /* Define macros for porting to both thumb1 and thumb2.
 359:drivers/CMSIS/Include/cmsis_gcc.h ****  * For thumb1, use low register (r0-r7), specified by constraint "l"
 360:drivers/CMSIS/Include/cmsis_gcc.h ****  * Otherwise, use general registers, specified by constraint "r" */
 361:drivers/CMSIS/Include/cmsis_gcc.h **** #if defined (__thumb__) && !defined (__thumb2__)
 362:drivers/CMSIS/Include/cmsis_gcc.h **** #define __CMSIS_GCC_OUT_REG(r) "=l" (r)
 363:drivers/CMSIS/Include/cmsis_gcc.h **** #define __CMSIS_GCC_USE_REG(r) "l" (r)
 364:drivers/CMSIS/Include/cmsis_gcc.h **** #else
 365:drivers/CMSIS/Include/cmsis_gcc.h **** #define __CMSIS_GCC_OUT_REG(r) "=r" (r)
 366:drivers/CMSIS/Include/cmsis_gcc.h **** #define __CMSIS_GCC_USE_REG(r) "r" (r)
 367:drivers/CMSIS/Include/cmsis_gcc.h **** #endif
 368:drivers/CMSIS/Include/cmsis_gcc.h **** 
 369:drivers/CMSIS/Include/cmsis_gcc.h **** /**
 370:drivers/CMSIS/Include/cmsis_gcc.h ****   \brief   No Operation
 371:drivers/CMSIS/Include/cmsis_gcc.h ****   \details No Operation does nothing. This instruction can be used for code alignment purposes.
 372:drivers/CMSIS/Include/cmsis_gcc.h ****  */
 373:drivers/CMSIS/Include/cmsis_gcc.h **** __attribute__((always_inline)) __STATIC_INLINE void __NOP(void)
 374:drivers/CMSIS/Include/cmsis_gcc.h **** {
 375:drivers/CMSIS/Include/cmsis_gcc.h ****   __ASM volatile ("nop");
 416              		.loc 2 375 0
 417              		.syntax unified
 418              	@ 375 "drivers/CMSIS/Include/cmsis_gcc.h" 1
 419 01ba 00BF     		nop
 420              	@ 0 "" 2
 421              		.thumb
 422              		.syntax unified
 423              	.LBE19:
 424              	.LBE18:
1268:drivers/STM32F1xx_HAL_Driver/Src/stm32f1xx_hal_rcc.c ****   do 
1269:drivers/STM32F1xx_HAL_Driver/Src/stm32f1xx_hal_rcc.c ****   {
1270:drivers/STM32F1xx_HAL_Driver/Src/stm32f1xx_hal_rcc.c ****     __NOP();
1271:drivers/STM32F1xx_HAL_Driver/Src/stm32f1xx_hal_rcc.c ****   } 
1272:drivers/STM32F1xx_HAL_Driver/Src/stm32f1xx_hal_rcc.c ****   while (Delay --);
 425              		.loc 1 1272 0
 426 01bc 019B     		ldr	r3, [sp, #4]
 427 01be 5A1E     		subs	r2, r3, #1
 428 01c0 0192     		str	r2, [sp, #4]
 429 01c2 002B     		cmp	r3, #0
 430 01c4 F9D1     		bne	.L33
 431              	.LVL31:
 432              	.L99:
 433 01c6 2368     		ldr	r3, [r4]
ARM GAS  /tmp/ccOtixHI.s 			page 38


 434 01c8 7FE7     		b	.L29
 435              	.LVL32:
 436              	.L107:
 437              	.LBE17:
 438              	.LBE16:
 332:drivers/STM32F1xx_HAL_Driver/Src/stm32f1xx_hal_rcc.c ****     {
 439              		.loc 1 332 0 discriminator 1
 440 01ca 5268     		ldr	r2, [r2, #4]
 441 01cc D603     		lsls	r6, r2, #15
 442 01ce 3FF55DAF 		bmi	.L21
 443              	.L20:
 335:drivers/STM32F1xx_HAL_Driver/Src/stm32f1xx_hal_rcc.c ****       {
 444              		.loc 1 335 0
 445 01d2 3C4A     		ldr	r2, .L115
 446 01d4 1268     		ldr	r2, [r2]
 447 01d6 9507     		lsls	r5, r2, #30
 448 01d8 26D5     		bpl	.L22
 335:drivers/STM32F1xx_HAL_Driver/Src/stm32f1xx_hal_rcc.c ****       {
 449              		.loc 1 335 0 is_stmt 0 discriminator 1
 450 01da 2269     		ldr	r2, [r4, #16]
 451 01dc 012A     		cmp	r2, #1
 452 01de 23D0     		beq	.L22
 453              	.L23:
 283:drivers/STM32F1xx_HAL_Driver/Src/stm32f1xx_hal_rcc.c ****       }
 454              		.loc 1 283 0 is_stmt 1
 455 01e0 0120     		movs	r0, #1
 684:drivers/STM32F1xx_HAL_Driver/Src/stm32f1xx_hal_rcc.c **** 
 456              		.loc 1 684 0
 457 01e2 02B0     		add	sp, sp, #8
 458              		.cfi_remember_state
 459              		.cfi_def_cfa_offset 24
 460              		@ sp needed
 461 01e4 BDE8F081 		pop	{r4, r5, r6, r7, r8, pc}
 462              	.LVL33:
 463              	.L30:
 464              		.cfi_restore_state
 418:drivers/STM32F1xx_HAL_Driver/Src/stm32f1xx_hal_rcc.c ****       
 465              		.loc 1 418 0
 466 01e8 3A4A     		ldr	r2, .L115+16
 424:drivers/STM32F1xx_HAL_Driver/Src/stm32f1xx_hal_rcc.c ****       {
 467              		.loc 1 424 0
 468 01ea 364D     		ldr	r5, .L115
 418:drivers/STM32F1xx_HAL_Driver/Src/stm32f1xx_hal_rcc.c ****       
 469              		.loc 1 418 0
 470 01ec 1360     		str	r3, [r2]
 421:drivers/STM32F1xx_HAL_Driver/Src/stm32f1xx_hal_rcc.c ****       
 471              		.loc 1 421 0
 472 01ee FFF7FEFF 		bl	HAL_GetTick
 473              	.LVL34:
 474 01f2 0646     		mov	r6, r0
 475              	.LVL35:
 424:drivers/STM32F1xx_HAL_Driver/Src/stm32f1xx_hal_rcc.c ****       {
 476              		.loc 1 424 0
 477 01f4 04E0     		b	.L34
 478              	.LVL36:
 479              	.L35:
 426:drivers/STM32F1xx_HAL_Driver/Src/stm32f1xx_hal_rcc.c ****         {
ARM GAS  /tmp/ccOtixHI.s 			page 39


 480              		.loc 1 426 0
 481 01f6 FFF7FEFF 		bl	HAL_GetTick
 482              	.LVL37:
 483 01fa 801B     		subs	r0, r0, r6
 484 01fc 0228     		cmp	r0, #2
 485 01fe 4AD8     		bhi	.L17
 486              	.L34:
 424:drivers/STM32F1xx_HAL_Driver/Src/stm32f1xx_hal_rcc.c ****       {
 487              		.loc 1 424 0
 488 0200 6B6A     		ldr	r3, [r5, #36]
 489 0202 9F07     		lsls	r7, r3, #30
 490 0204 F7D4     		bmi	.L35
 491 0206 DEE7     		b	.L99
 492              	.LVL38:
 493              	.L103:
 279:drivers/STM32F1xx_HAL_Driver/Src/stm32f1xx_hal_rcc.c ****     {
 494              		.loc 1 279 0 discriminator 1
 495 0208 4A68     		ldr	r2, [r1, #4]
 496 020a D003     		lsls	r0, r2, #15
 497              	.LVL39:
 498 020c 7FF50CAF 		bpl	.L8
 499              	.L7:
 281:drivers/STM32F1xx_HAL_Driver/Src/stm32f1xx_hal_rcc.c ****       {
 500              		.loc 1 281 0
 501 0210 2C4A     		ldr	r2, .L115
 502 0212 1268     		ldr	r2, [r2]
 503 0214 9103     		lsls	r1, r2, #14
 504 0216 7FF52BAF 		bpl	.L6
 281:drivers/STM32F1xx_HAL_Driver/Src/stm32f1xx_hal_rcc.c ****       {
 505              		.loc 1 281 0 is_stmt 0 discriminator 1
 506 021a 6268     		ldr	r2, [r4, #4]
 507 021c 002A     		cmp	r2, #0
 508 021e 7FF427AF 		bne	.L6
 509 0222 DDE7     		b	.L23
 510              	.LVL40:
 511              	.L65:
 512              	.LBB20:
 436:drivers/STM32F1xx_HAL_Driver/Src/stm32f1xx_hal_rcc.c ****     
 513              		.loc 1 436 0 is_stmt 1
 514 0224 0025     		movs	r5, #0
 515 0226 61E7     		b	.L38
 516              	.LVL41:
 517              	.L22:
 518              	.LBE20:
 343:drivers/STM32F1xx_HAL_Driver/Src/stm32f1xx_hal_rcc.c ****       }
 519              		.loc 1 343 0
 520 0228 2649     		ldr	r1, .L115
 521 022a 6069     		ldr	r0, [r4, #20]
 522 022c 0A68     		ldr	r2, [r1]
 523 022e 22F0F802 		bic	r2, r2, #248
 524 0232 42EAC002 		orr	r2, r2, r0, lsl #3
 525 0236 0A60     		str	r2, [r1]
 389:drivers/STM32F1xx_HAL_Driver/Src/stm32f1xx_hal_rcc.c ****   {
 526              		.loc 1 389 0
 527 0238 1A07     		lsls	r2, r3, #28
 528 023a 7FF546AF 		bpl	.L29
 529 023e A2E7     		b	.L108
ARM GAS  /tmp/ccOtixHI.s 			page 40


 530              	.LVL42:
 531              	.L105:
 289:drivers/STM32F1xx_HAL_Driver/Src/stm32f1xx_hal_rcc.c ****       
 532              		.loc 1 289 0 discriminator 3
 533 0240 03F18043 		add	r3, r3, #1073741824
 534 0244 03F50433 		add	r3, r3, #135168
 535 0248 1A68     		ldr	r2, [r3]
 313:drivers/STM32F1xx_HAL_Driver/Src/stm32f1xx_hal_rcc.c ****         {
 536              		.loc 1 313 0 discriminator 3
 537 024a 1D46     		mov	r5, r3
 289:drivers/STM32F1xx_HAL_Driver/Src/stm32f1xx_hal_rcc.c ****       
 538              		.loc 1 289 0 discriminator 3
 539 024c 22F48032 		bic	r2, r2, #65536
 540 0250 1A60     		str	r2, [r3]
 541 0252 1A68     		ldr	r2, [r3]
 542 0254 22F48022 		bic	r2, r2, #262144
 543 0258 1A60     		str	r2, [r3]
 310:drivers/STM32F1xx_HAL_Driver/Src/stm32f1xx_hal_rcc.c ****         
 544              		.loc 1 310 0 discriminator 3
 545 025a FFF7FEFF 		bl	HAL_GetTick
 546              	.LVL43:
 547 025e 0646     		mov	r6, r0
 548              	.LVL44:
 313:drivers/STM32F1xx_HAL_Driver/Src/stm32f1xx_hal_rcc.c ****         {
 549              		.loc 1 313 0 discriminator 3
 550 0260 04E0     		b	.L13
 551              	.LVL45:
 552              	.L18:
 315:drivers/STM32F1xx_HAL_Driver/Src/stm32f1xx_hal_rcc.c ****           {
 553              		.loc 1 315 0
 554 0262 FFF7FEFF 		bl	HAL_GetTick
 555              	.LVL46:
 556 0266 801B     		subs	r0, r0, r6
 557 0268 6428     		cmp	r0, #100
 558 026a 14D8     		bhi	.L17
 559              	.L13:
 313:drivers/STM32F1xx_HAL_Driver/Src/stm32f1xx_hal_rcc.c ****         {
 560              		.loc 1 313 0
 561 026c 2B68     		ldr	r3, [r5]
 562 026e 9B03     		lsls	r3, r3, #14
 563 0270 F7D4     		bmi	.L18
 564 0272 FCE6     		b	.L98
 565              	.LVL47:
 566              	.L39:
 567              	.LBB21:
 452:drivers/STM32F1xx_HAL_Driver/Src/stm32f1xx_hal_rcc.c ****       
 568              		.loc 1 452 0
 569 0274 1A68     		ldr	r2, [r3]
 457:drivers/STM32F1xx_HAL_Driver/Src/stm32f1xx_hal_rcc.c ****       {
 570              		.loc 1 457 0
 571 0276 1E46     		mov	r6, r3
 452:drivers/STM32F1xx_HAL_Driver/Src/stm32f1xx_hal_rcc.c ****       
 572              		.loc 1 452 0
 573 0278 42F48072 		orr	r2, r2, #256
 574 027c 1A60     		str	r2, [r3]
 455:drivers/STM32F1xx_HAL_Driver/Src/stm32f1xx_hal_rcc.c **** 
 575              		.loc 1 455 0
ARM GAS  /tmp/ccOtixHI.s 			page 41


 576 027e FFF7FEFF 		bl	HAL_GetTick
 577              	.LVL48:
 578 0282 0746     		mov	r7, r0
 579              	.LVL49:
 580              	.L42:
 457:drivers/STM32F1xx_HAL_Driver/Src/stm32f1xx_hal_rcc.c ****       {
 581              		.loc 1 457 0
 582 0284 3368     		ldr	r3, [r6]
 583 0286 DA05     		lsls	r2, r3, #23
 584 0288 3FF535AF 		bmi	.L44
 459:drivers/STM32F1xx_HAL_Driver/Src/stm32f1xx_hal_rcc.c ****         {
 585              		.loc 1 459 0
 586 028c FFF7FEFF 		bl	HAL_GetTick
 587              	.LVL50:
 588 0290 C01B     		subs	r0, r0, r7
 589 0292 6428     		cmp	r0, #100
 590 0294 F6D9     		bls	.L42
 591              	.LVL51:
 592              	.L17:
 593              	.LBE21:
 303:drivers/STM32F1xx_HAL_Driver/Src/stm32f1xx_hal_rcc.c ****           }
 594              		.loc 1 303 0
 595 0296 0320     		movs	r0, #3
 684:drivers/STM32F1xx_HAL_Driver/Src/stm32f1xx_hal_rcc.c **** 
 596              		.loc 1 684 0
 597 0298 02B0     		add	sp, sp, #8
 598              		.cfi_remember_state
 599              		.cfi_def_cfa_offset 24
 600              		@ sp needed
 601 029a BDE8F081 		pop	{r4, r5, r6, r7, r8, pc}
 602              	.LVL52:
 603              	.L110:
 604              		.cfi_restore_state
 605              	.LBB22:
 467:drivers/STM32F1xx_HAL_Driver/Src/stm32f1xx_hal_rcc.c ****     /* Check the LSE State */
 606              		.loc 1 467 0 discriminator 3
 607 029e 03F18043 		add	r3, r3, #1073741824
 608 02a2 03F50433 		add	r3, r3, #135168
 609 02a6 1A6A     		ldr	r2, [r3, #32]
 489:drivers/STM32F1xx_HAL_Driver/Src/stm32f1xx_hal_rcc.c ****       {
 610              		.loc 1 489 0 discriminator 3
 611 02a8 1E46     		mov	r6, r3
 467:drivers/STM32F1xx_HAL_Driver/Src/stm32f1xx_hal_rcc.c ****     /* Check the LSE State */
 612              		.loc 1 467 0 discriminator 3
 613 02aa 22F00102 		bic	r2, r2, #1
 614 02ae 1A62     		str	r2, [r3, #32]
 615 02b0 1A6A     		ldr	r2, [r3, #32]
 491:drivers/STM32F1xx_HAL_Driver/Src/stm32f1xx_hal_rcc.c ****         {
 616              		.loc 1 491 0 discriminator 3
 617 02b2 41F28838 		movw	r8, #5000
 467:drivers/STM32F1xx_HAL_Driver/Src/stm32f1xx_hal_rcc.c ****     /* Check the LSE State */
 618              		.loc 1 467 0 discriminator 3
 619 02b6 22F00402 		bic	r2, r2, #4
 620 02ba 1A62     		str	r2, [r3, #32]
 486:drivers/STM32F1xx_HAL_Driver/Src/stm32f1xx_hal_rcc.c ****       
 621              		.loc 1 486 0 discriminator 3
 622 02bc FFF7FEFF 		bl	HAL_GetTick
ARM GAS  /tmp/ccOtixHI.s 			page 42


 623              	.LVL53:
 624 02c0 0746     		mov	r7, r0
 625              	.LVL54:
 489:drivers/STM32F1xx_HAL_Driver/Src/stm32f1xx_hal_rcc.c ****       {
 626              		.loc 1 489 0 discriminator 3
 627 02c2 12E0     		b	.L47
 628              	.L116:
 629              		.align	2
 630              	.L115:
 631 02c4 00100240 		.word	1073876992
 632 02c8 00004242 		.word	1111621632
 633 02cc 00700040 		.word	1073770496
 634 02d0 60004242 		.word	1111621728
 635 02d4 80044242 		.word	1111622784
 636 02d8 00000000 		.word	SystemCoreClock
 637 02dc D34D6210 		.word	274877907
 638              	.LVL55:
 639              	.L52:
 491:drivers/STM32F1xx_HAL_Driver/Src/stm32f1xx_hal_rcc.c ****         {
 640              		.loc 1 491 0
 641 02e0 FFF7FEFF 		bl	HAL_GetTick
 642              	.LVL56:
 643 02e4 C01B     		subs	r0, r0, r7
 644 02e6 4045     		cmp	r0, r8
 645 02e8 D5D8     		bhi	.L17
 646              	.L47:
 489:drivers/STM32F1xx_HAL_Driver/Src/stm32f1xx_hal_rcc.c ****       {
 647              		.loc 1 489 0
 648 02ea 336A     		ldr	r3, [r6, #32]
 649 02ec 9807     		lsls	r0, r3, #30
 650 02ee F7D4     		bmi	.L52
 499:drivers/STM32F1xx_HAL_Driver/Src/stm32f1xx_hal_rcc.c ****     {
 651              		.loc 1 499 0
 652 02f0 002D     		cmp	r5, #0
 653 02f2 3FF427AF 		beq	.L37
 654 02f6 1CE0     		b	.L112
 655              	.LVL57:
 656              	.L24:
 657              	.LBE22:
 372:drivers/STM32F1xx_HAL_Driver/Src/stm32f1xx_hal_rcc.c ****         
 658              		.loc 1 372 0
 659 02f8 344A     		ldr	r2, .L117
 378:drivers/STM32F1xx_HAL_Driver/Src/stm32f1xx_hal_rcc.c ****         {
 660              		.loc 1 378 0
 661 02fa 354D     		ldr	r5, .L117+4
 372:drivers/STM32F1xx_HAL_Driver/Src/stm32f1xx_hal_rcc.c ****         
 662              		.loc 1 372 0
 663 02fc 1360     		str	r3, [r2]
 375:drivers/STM32F1xx_HAL_Driver/Src/stm32f1xx_hal_rcc.c ****         
 664              		.loc 1 375 0
 665 02fe FFF7FEFF 		bl	HAL_GetTick
 666              	.LVL58:
 667 0302 0646     		mov	r6, r0
 668              	.LVL59:
 378:drivers/STM32F1xx_HAL_Driver/Src/stm32f1xx_hal_rcc.c ****         {
 669              		.loc 1 378 0
 670 0304 04E0     		b	.L27
ARM GAS  /tmp/ccOtixHI.s 			page 43


 671              	.LVL60:
 672              	.L28:
 380:drivers/STM32F1xx_HAL_Driver/Src/stm32f1xx_hal_rcc.c ****           {
 673              		.loc 1 380 0
 674 0306 FFF7FEFF 		bl	HAL_GetTick
 675              	.LVL61:
 676 030a 801B     		subs	r0, r0, r6
 677 030c 0228     		cmp	r0, #2
 678 030e C2D8     		bhi	.L17
 679              	.L27:
 378:drivers/STM32F1xx_HAL_Driver/Src/stm32f1xx_hal_rcc.c ****         {
 680              		.loc 1 378 0
 681 0310 2B68     		ldr	r3, [r5]
 682 0312 9907     		lsls	r1, r3, #30
 683 0314 F7D4     		bmi	.L28
 684 0316 2368     		ldr	r3, [r4]
 685 0318 D5E6     		b	.L19
 686              	.LVL62:
 687              	.L104:
 289:drivers/STM32F1xx_HAL_Driver/Src/stm32f1xx_hal_rcc.c ****       
 688              		.loc 1 289 0 discriminator 1
 689 031a 2D4A     		ldr	r2, .L117+4
 690 031c 1368     		ldr	r3, [r2]
 691 031e 43F48033 		orr	r3, r3, #65536
 692 0322 1360     		str	r3, [r2]
 693 0324 95E6     		b	.L11
 694              	.LVL63:
 695              	.L109:
 696              	.LBB23:
 467:drivers/STM32F1xx_HAL_Driver/Src/stm32f1xx_hal_rcc.c ****     /* Check the LSE State */
 697              		.loc 1 467 0 discriminator 1
 698 0326 2A4A     		ldr	r2, .L117+4
 699 0328 136A     		ldr	r3, [r2, #32]
 700 032a 43F00103 		orr	r3, r3, #1
 701 032e 1362     		str	r3, [r2, #32]
 702 0330 F4E6     		b	.L45
 703              	.L112:
 501:drivers/STM32F1xx_HAL_Driver/Src/stm32f1xx_hal_rcc.c ****     }
 704              		.loc 1 501 0
 705 0332 274A     		ldr	r2, .L117+4
 706 0334 D369     		ldr	r3, [r2, #28]
 707 0336 23F08053 		bic	r3, r3, #268435456
 708 033a D361     		str	r3, [r2, #28]
 709 033c 02E7     		b	.L37
 710              	.LVL64:
 711              	.L113:
 712              	.LBE23:
 610:drivers/STM32F1xx_HAL_Driver/Src/stm32f1xx_hal_rcc.c ****         
 713              		.loc 1 610 0
 714 033e 1A60     		str	r2, [r3]
 613:drivers/STM32F1xx_HAL_Driver/Src/stm32f1xx_hal_rcc.c ****         
 715              		.loc 1 613 0
 716 0340 FFF7FEFF 		bl	HAL_GetTick
 717              	.LVL65:
 718 0344 0646     		mov	r6, r0
 719              	.LVL66:
 616:drivers/STM32F1xx_HAL_Driver/Src/stm32f1xx_hal_rcc.c ****         {
ARM GAS  /tmp/ccOtixHI.s 			page 44


 720              		.loc 1 616 0
 721 0346 04E0     		b	.L56
 722              	.LVL67:
 723              	.L57:
 618:drivers/STM32F1xx_HAL_Driver/Src/stm32f1xx_hal_rcc.c ****           {
 724              		.loc 1 618 0
 725 0348 FFF7FEFF 		bl	HAL_GetTick
 726              	.LVL68:
 727 034c 801B     		subs	r0, r0, r6
 728 034e 0228     		cmp	r0, #2
 729 0350 A1D8     		bhi	.L17
 730              	.L56:
 616:drivers/STM32F1xx_HAL_Driver/Src/stm32f1xx_hal_rcc.c ****         {
 731              		.loc 1 616 0
 732 0352 2B68     		ldr	r3, [r5]
 733 0354 9901     		lsls	r1, r3, #6
 734 0356 F7D4     		bmi	.L57
 626:drivers/STM32F1xx_HAL_Driver/Src/stm32f1xx_hal_rcc.c ****         {
 735              		.loc 1 626 0
 736 0358 226A     		ldr	r2, [r4, #32]
 737 035a B2F5803F 		cmp	r2, #65536
 738 035e 2DD0     		beq	.L114
 739              	.L58:
 645:drivers/STM32F1xx_HAL_Driver/Src/stm32f1xx_hal_rcc.c ****         
 740              		.loc 1 645 0
 741 0360 0125     		movs	r5, #1
 642:drivers/STM32F1xx_HAL_Driver/Src/stm32f1xx_hal_rcc.c ****                              RCC_OscInitStruct->PLL.PLLMUL);
 742              		.loc 1 642 0
 743 0362 1B4B     		ldr	r3, .L117+4
 744 0364 606A     		ldr	r0, [r4, #36]
 745 0366 5968     		ldr	r1, [r3, #4]
 746 0368 0243     		orrs	r2, r2, r0
 747 036a 21F47411 		bic	r1, r1, #3997696
 645:drivers/STM32F1xx_HAL_Driver/Src/stm32f1xx_hal_rcc.c ****         
 748              		.loc 1 645 0
 749 036e 1948     		ldr	r0, .L117+8
 642:drivers/STM32F1xx_HAL_Driver/Src/stm32f1xx_hal_rcc.c ****                              RCC_OscInitStruct->PLL.PLLMUL);
 750              		.loc 1 642 0
 751 0370 0A43     		orrs	r2, r2, r1
 752 0372 5A60     		str	r2, [r3, #4]
 645:drivers/STM32F1xx_HAL_Driver/Src/stm32f1xx_hal_rcc.c ****         
 753              		.loc 1 645 0
 754 0374 0560     		str	r5, [r0]
 651:drivers/STM32F1xx_HAL_Driver/Src/stm32f1xx_hal_rcc.c ****         {
 755              		.loc 1 651 0
 756 0376 1C46     		mov	r4, r3
 757              	.LVL69:
 648:drivers/STM32F1xx_HAL_Driver/Src/stm32f1xx_hal_rcc.c ****         
 758              		.loc 1 648 0
 759 0378 FFF7FEFF 		bl	HAL_GetTick
 760              	.LVL70:
 761 037c 0546     		mov	r5, r0
 762              	.LVL71:
 651:drivers/STM32F1xx_HAL_Driver/Src/stm32f1xx_hal_rcc.c ****         {
 763              		.loc 1 651 0
 764 037e 04E0     		b	.L59
 765              	.LVL72:
ARM GAS  /tmp/ccOtixHI.s 			page 45


 766              	.L60:
 653:drivers/STM32F1xx_HAL_Driver/Src/stm32f1xx_hal_rcc.c ****           {
 767              		.loc 1 653 0
 768 0380 FFF7FEFF 		bl	HAL_GetTick
 769              	.LVL73:
 770 0384 401B     		subs	r0, r0, r5
 771 0386 0228     		cmp	r0, #2
 772 0388 85D8     		bhi	.L17
 773              	.L59:
 651:drivers/STM32F1xx_HAL_Driver/Src/stm32f1xx_hal_rcc.c ****         {
 774              		.loc 1 651 0
 775 038a 2368     		ldr	r3, [r4]
 776 038c 9A01     		lsls	r2, r3, #6
 777 038e F7D5     		bpl	.L60
 778 0390 F5E6     		b	.L61
 779              	.LVL74:
 780              	.L106:
 289:drivers/STM32F1xx_HAL_Driver/Src/stm32f1xx_hal_rcc.c ****       
 781              		.loc 1 289 0 discriminator 5
 782 0392 03F18043 		add	r3, r3, #1073741824
 783 0396 A3F53C33 		sub	r3, r3, #192512
 784 039a 1A68     		ldr	r2, [r3]
 785 039c 42F48022 		orr	r2, r2, #262144
 786 03a0 1A60     		str	r2, [r3]
 787 03a2 1A68     		ldr	r2, [r3]
 788 03a4 42F48032 		orr	r2, r2, #65536
 789 03a8 1A60     		str	r2, [r3]
 790 03aa 52E6     		b	.L11
 791              	.LVL75:
 792              	.L111:
 793              	.LBB24:
 467:drivers/STM32F1xx_HAL_Driver/Src/stm32f1xx_hal_rcc.c ****     /* Check the LSE State */
 794              		.loc 1 467 0 discriminator 5
 795 03ac 42F00402 		orr	r2, r2, #4
 796 03b0 1A62     		str	r2, [r3, #32]
 797 03b2 1A6A     		ldr	r2, [r3, #32]
 798 03b4 42F00102 		orr	r2, r2, #1
 799 03b8 1A62     		str	r2, [r3, #32]
 800 03ba AFE6     		b	.L45
 801              	.LVL76:
 802              	.L114:
 803              	.LBE24:
 638:drivers/STM32F1xx_HAL_Driver/Src/stm32f1xx_hal_rcc.c ****         }
 804              		.loc 1 638 0
 805 03bc 6B68     		ldr	r3, [r5, #4]
 806 03be A168     		ldr	r1, [r4, #8]
 807 03c0 23F40033 		bic	r3, r3, #131072
 808 03c4 0B43     		orrs	r3, r3, r1
 809 03c6 6B60     		str	r3, [r5, #4]
 810 03c8 CAE7     		b	.L58
 811              	.L118:
 812 03ca 00BF     		.align	2
 813              	.L117:
 814 03cc 00004242 		.word	1111621632
 815 03d0 00100240 		.word	1073876992
 816 03d4 60004242 		.word	1111621728
 817              		.cfi_endproc
ARM GAS  /tmp/ccOtixHI.s 			page 46


 818              	.LFE65:
 820              		.section	.text.HAL_RCC_MCOConfig,"ax",%progbits
 821              		.align	1
 822              		.p2align 2,,3
 823              		.global	HAL_RCC_MCOConfig
 824              		.syntax unified
 825              		.thumb
 826              		.thumb_func
 827              		.fpu softvfp
 829              	HAL_RCC_MCOConfig:
 830              	.LFB67:
 903:drivers/STM32F1xx_HAL_Driver/Src/stm32f1xx_hal_rcc.c ****   GPIO_InitTypeDef gpio = {0U};
 831              		.loc 1 903 0
 832              		.cfi_startproc
 833              		@ args = 0, pretend = 0, frame = 24
 834              		@ frame_needed = 0, uses_anonymous_args = 0
 835              	.LVL77:
 836 0000 70B5     		push	{r4, r5, r6, lr}
 837              		.cfi_def_cfa_offset 16
 838              		.cfi_offset 4, -16
 839              		.cfi_offset 5, -12
 840              		.cfi_offset 6, -8
 841              		.cfi_offset 14, -4
 917:drivers/STM32F1xx_HAL_Driver/Src/stm32f1xx_hal_rcc.c ****   gpio.Pull      = GPIO_NOPULL;
 842              		.loc 1 917 0
 843 0002 0322     		movs	r2, #3
 844              	.LVL78:
 904:drivers/STM32F1xx_HAL_Driver/Src/stm32f1xx_hal_rcc.c **** 
 845              		.loc 1 904 0
 846 0004 0026     		movs	r6, #0
 916:drivers/STM32F1xx_HAL_Driver/Src/stm32f1xx_hal_rcc.c ****   gpio.Speed     = GPIO_SPEED_FREQ_HIGH;
 847              		.loc 1 916 0
 848 0006 0220     		movs	r0, #2
 849              	.LVL79:
 919:drivers/STM32F1xx_HAL_Driver/Src/stm32f1xx_hal_rcc.c **** 
 850              		.loc 1 919 0
 851 0008 4FF48073 		mov	r3, #256
 903:drivers/STM32F1xx_HAL_Driver/Src/stm32f1xx_hal_rcc.c ****   GPIO_InitTypeDef gpio = {0U};
 852              		.loc 1 903 0
 853 000c 86B0     		sub	sp, sp, #24
 854              		.cfi_def_cfa_offset 40
 855              	.LBB25:
 922:drivers/STM32F1xx_HAL_Driver/Src/stm32f1xx_hal_rcc.c **** 
 856              		.loc 1 922 0
 857 000e 0D4C     		ldr	r4, .L121
 858              	.LBE25:
 916:drivers/STM32F1xx_HAL_Driver/Src/stm32f1xx_hal_rcc.c ****   gpio.Speed     = GPIO_SPEED_FREQ_HIGH;
 859              		.loc 1 916 0
 860 0010 0390     		str	r0, [sp, #12]
 904:drivers/STM32F1xx_HAL_Driver/Src/stm32f1xx_hal_rcc.c **** 
 861              		.loc 1 904 0
 862 0012 0496     		str	r6, [sp, #16]
 917:drivers/STM32F1xx_HAL_Driver/Src/stm32f1xx_hal_rcc.c ****   gpio.Pull      = GPIO_NOPULL;
 863              		.loc 1 917 0
 864 0014 0592     		str	r2, [sp, #20]
 919:drivers/STM32F1xx_HAL_Driver/Src/stm32f1xx_hal_rcc.c **** 
 865              		.loc 1 919 0
ARM GAS  /tmp/ccOtixHI.s 			page 47


 866 0016 0293     		str	r3, [sp, #8]
 867              	.LBB26:
 922:drivers/STM32F1xx_HAL_Driver/Src/stm32f1xx_hal_rcc.c **** 
 868              		.loc 1 922 0
 869 0018 A369     		ldr	r3, [r4, #24]
 870              	.LBE26:
 903:drivers/STM32F1xx_HAL_Driver/Src/stm32f1xx_hal_rcc.c ****   GPIO_InitTypeDef gpio = {0U};
 871              		.loc 1 903 0
 872 001a 0D46     		mov	r5, r1
 873              	.LBB27:
 922:drivers/STM32F1xx_HAL_Driver/Src/stm32f1xx_hal_rcc.c **** 
 874              		.loc 1 922 0
 875 001c 43F00403 		orr	r3, r3, #4
 876 0020 A361     		str	r3, [r4, #24]
 877 0022 A369     		ldr	r3, [r4, #24]
 878              	.LBE27:
 924:drivers/STM32F1xx_HAL_Driver/Src/stm32f1xx_hal_rcc.c **** 
 879              		.loc 1 924 0
 880 0024 02A9     		add	r1, sp, #8
 881              	.LVL80:
 882              	.LBB28:
 922:drivers/STM32F1xx_HAL_Driver/Src/stm32f1xx_hal_rcc.c **** 
 883              		.loc 1 922 0
 884 0026 03F00403 		and	r3, r3, #4
 885 002a 0193     		str	r3, [sp, #4]
 886              	.LBE28:
 924:drivers/STM32F1xx_HAL_Driver/Src/stm32f1xx_hal_rcc.c **** 
 887              		.loc 1 924 0
 888 002c 0648     		ldr	r0, .L121+4
 889              	.LBB29:
 922:drivers/STM32F1xx_HAL_Driver/Src/stm32f1xx_hal_rcc.c **** 
 890              		.loc 1 922 0
 891 002e 019B     		ldr	r3, [sp, #4]
 892              	.LBE29:
 924:drivers/STM32F1xx_HAL_Driver/Src/stm32f1xx_hal_rcc.c **** 
 893              		.loc 1 924 0
 894 0030 FFF7FEFF 		bl	HAL_GPIO_Init
 895              	.LVL81:
 927:drivers/STM32F1xx_HAL_Driver/Src/stm32f1xx_hal_rcc.c **** }
 896              		.loc 1 927 0
 897 0034 6168     		ldr	r1, [r4, #4]
 898 0036 21F0E061 		bic	r1, r1, #117440512
 899 003a 2943     		orrs	r1, r1, r5
 900 003c 6160     		str	r1, [r4, #4]
 928:drivers/STM32F1xx_HAL_Driver/Src/stm32f1xx_hal_rcc.c **** 
 901              		.loc 1 928 0
 902 003e 06B0     		add	sp, sp, #24
 903              		.cfi_def_cfa_offset 16
 904              		@ sp needed
 905 0040 70BD     		pop	{r4, r5, r6, pc}
 906              	.LVL82:
 907              	.L122:
 908 0042 00BF     		.align	2
 909              	.L121:
 910 0044 00100240 		.word	1073876992
 911 0048 00080140 		.word	1073809408
 912              		.cfi_endproc
ARM GAS  /tmp/ccOtixHI.s 			page 48


 913              	.LFE67:
 915              		.section	.text.HAL_RCC_EnableCSS,"ax",%progbits
 916              		.align	1
 917              		.p2align 2,,3
 918              		.global	HAL_RCC_EnableCSS
 919              		.syntax unified
 920              		.thumb
 921              		.thumb_func
 922              		.fpu softvfp
 924              	HAL_RCC_EnableCSS:
 925              	.LFB68:
 940:drivers/STM32F1xx_HAL_Driver/Src/stm32f1xx_hal_rcc.c ****   *(__IO uint32_t *) RCC_CR_CSSON_BB = (uint32_t)ENABLE;
 926              		.loc 1 940 0
 927              		.cfi_startproc
 928              		@ args = 0, pretend = 0, frame = 0
 929              		@ frame_needed = 0, uses_anonymous_args = 0
 930              		@ link register save eliminated.
 941:drivers/STM32F1xx_HAL_Driver/Src/stm32f1xx_hal_rcc.c **** }
 931              		.loc 1 941 0
 932 0000 0122     		movs	r2, #1
 933 0002 014B     		ldr	r3, .L124
 934 0004 1A60     		str	r2, [r3]
 935 0006 7047     		bx	lr
 936              	.L125:
 937              		.align	2
 938              	.L124:
 939 0008 4C004242 		.word	1111621708
 940              		.cfi_endproc
 941              	.LFE68:
 943              		.section	.text.HAL_RCC_DisableCSS,"ax",%progbits
 944              		.align	1
 945              		.p2align 2,,3
 946              		.global	HAL_RCC_DisableCSS
 947              		.syntax unified
 948              		.thumb
 949              		.thumb_func
 950              		.fpu softvfp
 952              	HAL_RCC_DisableCSS:
 953              	.LFB69:
 949:drivers/STM32F1xx_HAL_Driver/Src/stm32f1xx_hal_rcc.c ****   *(__IO uint32_t *) RCC_CR_CSSON_BB = (uint32_t)DISABLE;
 954              		.loc 1 949 0
 955              		.cfi_startproc
 956              		@ args = 0, pretend = 0, frame = 0
 957              		@ frame_needed = 0, uses_anonymous_args = 0
 958              		@ link register save eliminated.
 950:drivers/STM32F1xx_HAL_Driver/Src/stm32f1xx_hal_rcc.c **** }
 959              		.loc 1 950 0
 960 0000 0022     		movs	r2, #0
 961 0002 014B     		ldr	r3, .L127
 962 0004 1A60     		str	r2, [r3]
 963 0006 7047     		bx	lr
 964              	.L128:
 965              		.align	2
 966              	.L127:
 967 0008 4C004242 		.word	1111621708
 968              		.cfi_endproc
 969              	.LFE69:
ARM GAS  /tmp/ccOtixHI.s 			page 49


 971              		.section	.text.HAL_RCC_GetSysClockFreq,"ax",%progbits
 972              		.align	1
 973              		.p2align 2,,3
 974              		.global	HAL_RCC_GetSysClockFreq
 975              		.syntax unified
 976              		.thumb
 977              		.thumb_func
 978              		.fpu softvfp
 980              	HAL_RCC_GetSysClockFreq:
 981              	.LFB70:
 983:drivers/STM32F1xx_HAL_Driver/Src/stm32f1xx_hal_rcc.c **** #if defined(RCC_CFGR2_PREDIV1SRC)
 982              		.loc 1 983 0
 983              		.cfi_startproc
 984              		@ args = 0, pretend = 0, frame = 24
 985              		@ frame_needed = 0, uses_anonymous_args = 0
 986 0000 70B5     		push	{r4, r5, r6, lr}
 987              		.cfi_def_cfa_offset 16
 988              		.cfi_offset 4, -16
 989              		.cfi_offset 5, -12
 990              		.cfi_offset 6, -8
 991              		.cfi_offset 14, -4
 992:drivers/STM32F1xx_HAL_Driver/Src/stm32f1xx_hal_rcc.c **** #endif /*RCC_CFGR2_PREDIV1*/
 992              		.loc 1 992 0
 993 0002 0126     		movs	r6, #1
 994 0004 0225     		movs	r5, #2
 983:drivers/STM32F1xx_HAL_Driver/Src/stm32f1xx_hal_rcc.c **** #if defined(RCC_CFGR2_PREDIV1SRC)
 995              		.loc 1 983 0
 996 0006 86B0     		sub	sp, sp, #24
 997              		.cfi_def_cfa_offset 40
 988:drivers/STM32F1xx_HAL_Driver/Src/stm32f1xx_hal_rcc.c **** #if defined(RCC_CFGR2_PREDIV1)
 998              		.loc 1 988 0
 999 0008 154B     		ldr	r3, .L137
 1000 000a 0DF1180E 		add	lr, sp, #24
 1001 000e 0FCB     		ldm	r3, {r0, r1, r2, r3}
 1002 0010 0EE90F00 		stmdb	lr, {r0, r1, r2, r3}
1002:drivers/STM32F1xx_HAL_Driver/Src/stm32f1xx_hal_rcc.c ****   
 1003              		.loc 1 1002 0
 1004 0014 134C     		ldr	r4, .L137+4
 992:drivers/STM32F1xx_HAL_Driver/Src/stm32f1xx_hal_rcc.c **** #endif /*RCC_CFGR2_PREDIV1*/
 1005              		.loc 1 992 0
 1006 0016 8DF80460 		strb	r6, [sp, #4]
 1007 001a 8DF80550 		strb	r5, [sp, #5]
 1008              	.LVL83:
1002:drivers/STM32F1xx_HAL_Driver/Src/stm32f1xx_hal_rcc.c ****   
 1009              		.loc 1 1002 0
 1010 001e 6368     		ldr	r3, [r4, #4]
 1011              	.LVL84:
1005:drivers/STM32F1xx_HAL_Driver/Src/stm32f1xx_hal_rcc.c ****   {
 1012              		.loc 1 1005 0
 1013 0020 03F00C02 		and	r2, r3, #12
 1014 0024 082A     		cmp	r2, #8
 1015 0026 0BD1     		bne	.L134
1014:drivers/STM32F1xx_HAL_Driver/Src/stm32f1xx_hal_rcc.c ****       if ((tmpreg & RCC_CFGR_PLLSRC) != RCC_PLLSOURCE_HSI_DIV2)
 1016              		.loc 1 1014 0
 1017 0028 C3F38342 		ubfx	r2, r3, #18, #4
 1018 002c 7244     		add	r2, r2, lr
1015:drivers/STM32F1xx_HAL_Driver/Src/stm32f1xx_hal_rcc.c ****       {
ARM GAS  /tmp/ccOtixHI.s 			page 50


 1019              		.loc 1 1015 0
 1020 002e DB03     		lsls	r3, r3, #15
 1021              	.LVL85:
1014:drivers/STM32F1xx_HAL_Driver/Src/stm32f1xx_hal_rcc.c ****       if ((tmpreg & RCC_CFGR_PLLSRC) != RCC_PLLSOURCE_HSI_DIV2)
 1022              		.loc 1 1014 0
 1023 0030 12F8100C 		ldrb	r0, [r2, #-16]	@ zero_extendqisi2
 1024              	.LVL86:
1015:drivers/STM32F1xx_HAL_Driver/Src/stm32f1xx_hal_rcc.c ****       {
 1025              		.loc 1 1015 0
 1026 0034 07D4     		bmi	.L136
1052:drivers/STM32F1xx_HAL_Driver/Src/stm32f1xx_hal_rcc.c ****       }
 1027              		.loc 1 1052 0
 1028 0036 0C4B     		ldr	r3, .L137+8
 1029 0038 03FB00F0 		mul	r0, r3, r0
 1030              	.LVL87:
1065:drivers/STM32F1xx_HAL_Driver/Src/stm32f1xx_hal_rcc.c **** 
 1031              		.loc 1 1065 0
 1032 003c 06B0     		add	sp, sp, #24
 1033              		.cfi_remember_state
 1034              		.cfi_def_cfa_offset 16
 1035              		@ sp needed
 1036 003e 70BD     		pop	{r4, r5, r6, pc}
 1037              	.LVL88:
 1038              	.L134:
 1039              		.cfi_restore_state
1009:drivers/STM32F1xx_HAL_Driver/Src/stm32f1xx_hal_rcc.c ****       break;
 1040              		.loc 1 1009 0
 1041 0040 0A48     		ldr	r0, .L137+12
 1042              	.LVL89:
1065:drivers/STM32F1xx_HAL_Driver/Src/stm32f1xx_hal_rcc.c **** 
 1043              		.loc 1 1065 0
 1044 0042 06B0     		add	sp, sp, #24
 1045              		.cfi_remember_state
 1046              		.cfi_def_cfa_offset 16
 1047              		@ sp needed
 1048 0044 70BD     		pop	{r4, r5, r6, pc}
 1049              	.LVL90:
 1050              	.L136:
 1051              		.cfi_restore_state
1020:drivers/STM32F1xx_HAL_Driver/Src/stm32f1xx_hal_rcc.c **** #endif /*RCC_CFGR2_PREDIV1*/
 1052              		.loc 1 1020 0
 1053 0046 6368     		ldr	r3, [r4, #4]
 1054              	.LVL91:
1046:drivers/STM32F1xx_HAL_Driver/Src/stm32f1xx_hal_rcc.c **** #endif /*RCC_CFGR2_PREDIV1SRC*/
 1055              		.loc 1 1046 0
 1056 0048 084A     		ldr	r2, .L137+12
1020:drivers/STM32F1xx_HAL_Driver/Src/stm32f1xx_hal_rcc.c **** #endif /*RCC_CFGR2_PREDIV1*/
 1057              		.loc 1 1020 0
 1058 004a C3F34043 		ubfx	r3, r3, #17, #1
 1059              	.LVL92:
 1060 004e 7344     		add	r3, r3, lr
 1061 0050 13F8143C 		ldrb	r3, [r3, #-20]	@ zero_extendqisi2
1046:drivers/STM32F1xx_HAL_Driver/Src/stm32f1xx_hal_rcc.c **** #endif /*RCC_CFGR2_PREDIV1SRC*/
 1062              		.loc 1 1046 0
 1063 0054 B2FBF3F3 		udiv	r3, r2, r3
 1064 0058 00FB03F0 		mul	r0, r0, r3
 1065              	.LVL93:
ARM GAS  /tmp/ccOtixHI.s 			page 51


1065:drivers/STM32F1xx_HAL_Driver/Src/stm32f1xx_hal_rcc.c **** 
 1066              		.loc 1 1065 0
 1067 005c 06B0     		add	sp, sp, #24
 1068              		.cfi_def_cfa_offset 16
 1069              		@ sp needed
 1070 005e 70BD     		pop	{r4, r5, r6, pc}
 1071              	.L138:
 1072              		.align	2
 1073              	.L137:
 1074 0060 00000000 		.word	.LANCHOR0
 1075 0064 00100240 		.word	1073876992
 1076 0068 00093D00 		.word	4000000
 1077 006c 00127A00 		.word	8000000
 1078              		.cfi_endproc
 1079              	.LFE70:
 1081              		.section	.text.HAL_RCC_ClockConfig,"ax",%progbits
 1082              		.align	1
 1083              		.p2align 2,,3
 1084              		.global	HAL_RCC_ClockConfig
 1085              		.syntax unified
 1086              		.thumb
 1087              		.thumb_func
 1088              		.fpu softvfp
 1090              	HAL_RCC_ClockConfig:
 1091              	.LFB66:
 710:drivers/STM32F1xx_HAL_Driver/Src/stm32f1xx_hal_rcc.c ****   uint32_t tickstart = 0U;
 1092              		.loc 1 710 0
 1093              		.cfi_startproc
 1094              		@ args = 0, pretend = 0, frame = 0
 1095              		@ frame_needed = 0, uses_anonymous_args = 0
 1096              	.LVL94:
 724:drivers/STM32F1xx_HAL_Driver/Src/stm32f1xx_hal_rcc.c ****   {    
 1097              		.loc 1 724 0
 1098 0000 4E4A     		ldr	r2, .L187
 1099 0002 1368     		ldr	r3, [r2]
 1100 0004 03F00703 		and	r3, r3, #7
 1101 0008 8B42     		cmp	r3, r1
 1102 000a 0BD2     		bcs	.L143
 727:drivers/STM32F1xx_HAL_Driver/Src/stm32f1xx_hal_rcc.c ****     
 1103              		.loc 1 727 0
 1104 000c 1368     		ldr	r3, [r2]
 1105 000e 23F00703 		bic	r3, r3, #7
 1106 0012 0B43     		orrs	r3, r3, r1
 1107 0014 1360     		str	r3, [r2]
 731:drivers/STM32F1xx_HAL_Driver/Src/stm32f1xx_hal_rcc.c ****     {
 1108              		.loc 1 731 0
 1109 0016 1368     		ldr	r3, [r2]
 1110 0018 03F00703 		and	r3, r3, #7
 1111 001c 9942     		cmp	r1, r3
 1112 001e 01D0     		beq	.L143
 733:drivers/STM32F1xx_HAL_Driver/Src/stm32f1xx_hal_rcc.c ****     }
 1113              		.loc 1 733 0
 1114 0020 0120     		movs	r0, #1
 1115              	.LVL95:
 850:drivers/STM32F1xx_HAL_Driver/Src/stm32f1xx_hal_rcc.c **** 
 1116              		.loc 1 850 0
 1117 0022 7047     		bx	lr
ARM GAS  /tmp/ccOtixHI.s 			page 52


 1118              	.LVL96:
 1119              	.L143:
 739:drivers/STM32F1xx_HAL_Driver/Src/stm32f1xx_hal_rcc.c ****   {
 1120              		.loc 1 739 0
 1121 0024 0368     		ldr	r3, [r0]
 710:drivers/STM32F1xx_HAL_Driver/Src/stm32f1xx_hal_rcc.c ****   uint32_t tickstart = 0U;
 1122              		.loc 1 710 0
 1123 0026 2DE9F041 		push	{r4, r5, r6, r7, r8, lr}
 1124              		.cfi_def_cfa_offset 24
 1125              		.cfi_offset 4, -24
 1126              		.cfi_offset 5, -20
 1127              		.cfi_offset 6, -16
 1128              		.cfi_offset 7, -12
 1129              		.cfi_offset 8, -8
 1130              		.cfi_offset 14, -4
 739:drivers/STM32F1xx_HAL_Driver/Src/stm32f1xx_hal_rcc.c ****   {
 1131              		.loc 1 739 0
 1132 002a 9A07     		lsls	r2, r3, #30
 1133 002c 06D5     		bpl	.L142
 742:drivers/STM32F1xx_HAL_Driver/Src/stm32f1xx_hal_rcc.c ****   }
 1134              		.loc 1 742 0
 1135 002e 444C     		ldr	r4, .L187+4
 1136 0030 8568     		ldr	r5, [r0, #8]
 1137 0032 6268     		ldr	r2, [r4, #4]
 1138 0034 22F0F002 		bic	r2, r2, #240
 1139 0038 2A43     		orrs	r2, r2, r5
 1140 003a 6260     		str	r2, [r4, #4]
 1141              	.L142:
 746:drivers/STM32F1xx_HAL_Driver/Src/stm32f1xx_hal_rcc.c ****   {    
 1142              		.loc 1 746 0
 1143 003c DF07     		lsls	r7, r3, #31
 1144 003e 0646     		mov	r6, r0
 1145 0040 0C46     		mov	r4, r1
 1146 0042 22D5     		bpl	.L155
 751:drivers/STM32F1xx_HAL_Driver/Src/stm32f1xx_hal_rcc.c ****     {
 1147              		.loc 1 751 0
 1148 0044 4268     		ldr	r2, [r0, #4]
 754:drivers/STM32F1xx_HAL_Driver/Src/stm32f1xx_hal_rcc.c ****       {
 1149              		.loc 1 754 0
 1150 0046 3E4B     		ldr	r3, .L187+4
 751:drivers/STM32F1xx_HAL_Driver/Src/stm32f1xx_hal_rcc.c ****     {
 1151              		.loc 1 751 0
 1152 0048 012A     		cmp	r2, #1
 754:drivers/STM32F1xx_HAL_Driver/Src/stm32f1xx_hal_rcc.c ****       {
 1153              		.loc 1 754 0
 1154 004a 1B68     		ldr	r3, [r3]
 751:drivers/STM32F1xx_HAL_Driver/Src/stm32f1xx_hal_rcc.c ****     {
 1155              		.loc 1 751 0
 1156 004c 72D0     		beq	.L185
 760:drivers/STM32F1xx_HAL_Driver/Src/stm32f1xx_hal_rcc.c ****     {
 1157              		.loc 1 760 0
 1158 004e 022A     		cmp	r2, #2
 1159 0050 6AD0     		beq	.L186
 772:drivers/STM32F1xx_HAL_Driver/Src/stm32f1xx_hal_rcc.c ****       {
 1160              		.loc 1 772 0
 1161 0052 9907     		lsls	r1, r3, #30
 1162              	.LVL97:
ARM GAS  /tmp/ccOtixHI.s 			page 53


 1163 0054 29D5     		bpl	.L149
 1164              	.LVL98:
 1165              	.L150:
 777:drivers/STM32F1xx_HAL_Driver/Src/stm32f1xx_hal_rcc.c **** 
 1166              		.loc 1 777 0
 1167 0056 3A4D     		ldr	r5, .L187+4
 786:drivers/STM32F1xx_HAL_Driver/Src/stm32f1xx_hal_rcc.c ****         {
 1168              		.loc 1 786 0
 1169 0058 41F28838 		movw	r8, #5000
 777:drivers/STM32F1xx_HAL_Driver/Src/stm32f1xx_hal_rcc.c **** 
 1170              		.loc 1 777 0
 1171 005c 6B68     		ldr	r3, [r5, #4]
 1172 005e 23F00303 		bic	r3, r3, #3
 1173 0062 1343     		orrs	r3, r3, r2
 1174 0064 6B60     		str	r3, [r5, #4]
 780:drivers/STM32F1xx_HAL_Driver/Src/stm32f1xx_hal_rcc.c ****     
 1175              		.loc 1 780 0
 1176 0066 FFF7FEFF 		bl	HAL_GetTick
 1177              	.LVL99:
 782:drivers/STM32F1xx_HAL_Driver/Src/stm32f1xx_hal_rcc.c ****     {
 1178              		.loc 1 782 0
 1179 006a 7368     		ldr	r3, [r6, #4]
 780:drivers/STM32F1xx_HAL_Driver/Src/stm32f1xx_hal_rcc.c ****     
 1180              		.loc 1 780 0
 1181 006c 0746     		mov	r7, r0
 1182              	.LVL100:
 782:drivers/STM32F1xx_HAL_Driver/Src/stm32f1xx_hal_rcc.c ****     {
 1183              		.loc 1 782 0
 1184 006e 012B     		cmp	r3, #1
 1185 0070 49D0     		beq	.L152
 792:drivers/STM32F1xx_HAL_Driver/Src/stm32f1xx_hal_rcc.c ****     {
 1186              		.loc 1 792 0
 1187 0072 022B     		cmp	r3, #2
 1188 0074 05D1     		bne	.L157
 1189 0076 51E0     		b	.L156
 1190              	.LVL101:
 1191              	.L160:
 806:drivers/STM32F1xx_HAL_Driver/Src/stm32f1xx_hal_rcc.c ****         {
 1192              		.loc 1 806 0
 1193 0078 FFF7FEFF 		bl	HAL_GetTick
 1194              	.LVL102:
 1195 007c C01B     		subs	r0, r0, r7
 1196 007e 4045     		cmp	r0, r8
 1197 0080 55D8     		bhi	.L158
 1198              	.L157:
 804:drivers/STM32F1xx_HAL_Driver/Src/stm32f1xx_hal_rcc.c ****       {
 1199              		.loc 1 804 0
 1200 0082 6B68     		ldr	r3, [r5, #4]
 1201 0084 13F00C0F 		tst	r3, #12
 1202 0088 F6D1     		bne	.L160
 1203              	.LVL103:
 1204              	.L155:
 815:drivers/STM32F1xx_HAL_Driver/Src/stm32f1xx_hal_rcc.c ****   {    
 1205              		.loc 1 815 0
 1206 008a 2C4A     		ldr	r2, .L187
 1207 008c 1368     		ldr	r3, [r2]
 1208 008e 03F00703 		and	r3, r3, #7
ARM GAS  /tmp/ccOtixHI.s 			page 54


 1209 0092 9C42     		cmp	r4, r3
 1210 0094 0CD2     		bcs	.L147
 818:drivers/STM32F1xx_HAL_Driver/Src/stm32f1xx_hal_rcc.c ****     
 1211              		.loc 1 818 0
 1212 0096 1368     		ldr	r3, [r2]
 1213 0098 23F00703 		bic	r3, r3, #7
 1214 009c 2343     		orrs	r3, r3, r4
 1215 009e 1360     		str	r3, [r2]
 822:drivers/STM32F1xx_HAL_Driver/Src/stm32f1xx_hal_rcc.c ****     {
 1216              		.loc 1 822 0
 1217 00a0 1368     		ldr	r3, [r2]
 1218 00a2 03F00703 		and	r3, r3, #7
 1219 00a6 9C42     		cmp	r4, r3
 1220 00a8 02D0     		beq	.L147
 1221              	.L149:
 733:drivers/STM32F1xx_HAL_Driver/Src/stm32f1xx_hal_rcc.c ****     }
 1222              		.loc 1 733 0
 1223 00aa 0120     		movs	r0, #1
 1224 00ac BDE8F081 		pop	{r4, r5, r6, r7, r8, pc}
 1225              	.LVL104:
 1226              	.L147:
 830:drivers/STM32F1xx_HAL_Driver/Src/stm32f1xx_hal_rcc.c ****   {
 1227              		.loc 1 830 0
 1228 00b0 3368     		ldr	r3, [r6]
 1229 00b2 5A07     		lsls	r2, r3, #29
 1230 00b4 06D5     		bpl	.L162
 833:drivers/STM32F1xx_HAL_Driver/Src/stm32f1xx_hal_rcc.c ****   }
 1231              		.loc 1 833 0
 1232 00b6 2249     		ldr	r1, .L187+4
 1233 00b8 F068     		ldr	r0, [r6, #12]
 1234 00ba 4A68     		ldr	r2, [r1, #4]
 1235 00bc 22F4E062 		bic	r2, r2, #1792
 1236 00c0 0243     		orrs	r2, r2, r0
 1237 00c2 4A60     		str	r2, [r1, #4]
 1238              	.L162:
 837:drivers/STM32F1xx_HAL_Driver/Src/stm32f1xx_hal_rcc.c ****   {
 1239              		.loc 1 837 0
 1240 00c4 1B07     		lsls	r3, r3, #28
 1241 00c6 07D5     		bpl	.L163
 840:drivers/STM32F1xx_HAL_Driver/Src/stm32f1xx_hal_rcc.c ****   }
 1242              		.loc 1 840 0
 1243 00c8 1D4A     		ldr	r2, .L187+4
 1244 00ca 3169     		ldr	r1, [r6, #16]
 1245 00cc 5368     		ldr	r3, [r2, #4]
 1246 00ce 23F46053 		bic	r3, r3, #14336
 1247 00d2 43EAC103 		orr	r3, r3, r1, lsl #3
 1248 00d6 5360     		str	r3, [r2, #4]
 1249              	.L163:
 844:drivers/STM32F1xx_HAL_Driver/Src/stm32f1xx_hal_rcc.c **** 
 1250              		.loc 1 844 0
 1251 00d8 FFF7FEFF 		bl	HAL_RCC_GetSysClockFreq
 1252              	.LVL105:
 1253 00dc 184B     		ldr	r3, .L187+4
 1254 00de 1949     		ldr	r1, .L187+8
 1255 00e0 5B68     		ldr	r3, [r3, #4]
 1256 00e2 194A     		ldr	r2, .L187+12
 1257 00e4 C3F30313 		ubfx	r3, r3, #4, #4
ARM GAS  /tmp/ccOtixHI.s 			page 55


 1258 00e8 CB5C     		ldrb	r3, [r1, r3]	@ zero_extendqisi2
 1259 00ea 20FA03F3 		lsr	r3, r0, r3
 847:drivers/STM32F1xx_HAL_Driver/Src/stm32f1xx_hal_rcc.c ****   
 1260              		.loc 1 847 0
 1261 00ee 0020     		movs	r0, #0
 844:drivers/STM32F1xx_HAL_Driver/Src/stm32f1xx_hal_rcc.c **** 
 1262              		.loc 1 844 0
 1263 00f0 1360     		str	r3, [r2]
 847:drivers/STM32F1xx_HAL_Driver/Src/stm32f1xx_hal_rcc.c ****   
 1264              		.loc 1 847 0
 1265 00f2 FFF7FEFF 		bl	HAL_InitTick
 1266              	.LVL106:
 849:drivers/STM32F1xx_HAL_Driver/Src/stm32f1xx_hal_rcc.c **** }
 1267              		.loc 1 849 0
 1268 00f6 0020     		movs	r0, #0
 850:drivers/STM32F1xx_HAL_Driver/Src/stm32f1xx_hal_rcc.c **** 
 1269              		.loc 1 850 0
 1270 00f8 BDE8F081 		pop	{r4, r5, r6, r7, r8, pc}
 1271              	.LVL107:
 1272              	.L154:
 786:drivers/STM32F1xx_HAL_Driver/Src/stm32f1xx_hal_rcc.c ****         {
 1273              		.loc 1 786 0
 1274 00fc FFF7FEFF 		bl	HAL_GetTick
 1275              	.LVL108:
 1276 0100 C01B     		subs	r0, r0, r7
 1277 0102 4045     		cmp	r0, r8
 1278 0104 13D8     		bhi	.L158
 1279              	.L152:
 784:drivers/STM32F1xx_HAL_Driver/Src/stm32f1xx_hal_rcc.c ****       {
 1280              		.loc 1 784 0
 1281 0106 6B68     		ldr	r3, [r5, #4]
 1282 0108 03F00C03 		and	r3, r3, #12
 1283 010c 042B     		cmp	r3, #4
 1284 010e F5D1     		bne	.L154
 1285 0110 BBE7     		b	.L155
 1286              	.L159:
 796:drivers/STM32F1xx_HAL_Driver/Src/stm32f1xx_hal_rcc.c ****         {
 1287              		.loc 1 796 0
 1288 0112 FFF7FEFF 		bl	HAL_GetTick
 1289              	.LVL109:
 1290 0116 C01B     		subs	r0, r0, r7
 1291 0118 4045     		cmp	r0, r8
 1292 011a 08D8     		bhi	.L158
 1293              	.L156:
 794:drivers/STM32F1xx_HAL_Driver/Src/stm32f1xx_hal_rcc.c ****       {
 1294              		.loc 1 794 0
 1295 011c 6B68     		ldr	r3, [r5, #4]
 1296 011e 03F00C03 		and	r3, r3, #12
 1297 0122 082B     		cmp	r3, #8
 1298 0124 F5D1     		bne	.L159
 1299 0126 B0E7     		b	.L155
 1300              	.LVL110:
 1301              	.L186:
 763:drivers/STM32F1xx_HAL_Driver/Src/stm32f1xx_hal_rcc.c ****       {
 1302              		.loc 1 763 0
 1303 0128 9801     		lsls	r0, r3, #6
 1304              	.LVL111:
ARM GAS  /tmp/ccOtixHI.s 			page 56


 1305 012a 94D4     		bmi	.L150
 1306 012c BDE7     		b	.L149
 1307              	.LVL112:
 1308              	.L158:
 788:drivers/STM32F1xx_HAL_Driver/Src/stm32f1xx_hal_rcc.c ****         }
 1309              		.loc 1 788 0
 1310 012e 0320     		movs	r0, #3
 1311 0130 BDE8F081 		pop	{r4, r5, r6, r7, r8, pc}
 1312              	.LVL113:
 1313              	.L185:
 754:drivers/STM32F1xx_HAL_Driver/Src/stm32f1xx_hal_rcc.c ****       {
 1314              		.loc 1 754 0
 1315 0134 9D03     		lsls	r5, r3, #14
 1316 0136 8ED4     		bmi	.L150
 1317 0138 B7E7     		b	.L149
 1318              	.L188:
 1319 013a 00BF     		.align	2
 1320              	.L187:
 1321 013c 00200240 		.word	1073881088
 1322 0140 00100240 		.word	1073876992
 1323 0144 00000000 		.word	AHBPrescTable
 1324 0148 00000000 		.word	SystemCoreClock
 1325              		.cfi_endproc
 1326              	.LFE66:
 1328              		.section	.text.HAL_RCC_GetHCLKFreq,"ax",%progbits
 1329              		.align	1
 1330              		.p2align 2,,3
 1331              		.global	HAL_RCC_GetHCLKFreq
 1332              		.syntax unified
 1333              		.thumb
 1334              		.thumb_func
 1335              		.fpu softvfp
 1337              	HAL_RCC_GetHCLKFreq:
 1338              	.LFB71:
1077:drivers/STM32F1xx_HAL_Driver/Src/stm32f1xx_hal_rcc.c ****   return SystemCoreClock;
 1339              		.loc 1 1077 0
 1340              		.cfi_startproc
 1341              		@ args = 0, pretend = 0, frame = 0
 1342              		@ frame_needed = 0, uses_anonymous_args = 0
 1343              		@ link register save eliminated.
1078:drivers/STM32F1xx_HAL_Driver/Src/stm32f1xx_hal_rcc.c **** }
 1344              		.loc 1 1078 0
 1345 0000 014B     		ldr	r3, .L190
1079:drivers/STM32F1xx_HAL_Driver/Src/stm32f1xx_hal_rcc.c **** 
 1346              		.loc 1 1079 0
 1347 0002 1868     		ldr	r0, [r3]
 1348 0004 7047     		bx	lr
 1349              	.L191:
 1350 0006 00BF     		.align	2
 1351              	.L190:
 1352 0008 00000000 		.word	SystemCoreClock
 1353              		.cfi_endproc
 1354              	.LFE71:
 1356              		.section	.text.HAL_RCC_GetPCLK1Freq,"ax",%progbits
 1357              		.align	1
 1358              		.p2align 2,,3
 1359              		.global	HAL_RCC_GetPCLK1Freq
ARM GAS  /tmp/ccOtixHI.s 			page 57


 1360              		.syntax unified
 1361              		.thumb
 1362              		.thumb_func
 1363              		.fpu softvfp
 1365              	HAL_RCC_GetPCLK1Freq:
 1366              	.LFB72:
1088:drivers/STM32F1xx_HAL_Driver/Src/stm32f1xx_hal_rcc.c ****   /* Get HCLK source and Compute PCLK1 frequency ---------------------------*/
 1367              		.loc 1 1088 0
 1368              		.cfi_startproc
 1369              		@ args = 0, pretend = 0, frame = 0
 1370              		@ frame_needed = 0, uses_anonymous_args = 0
 1371              		@ link register save eliminated.
1090:drivers/STM32F1xx_HAL_Driver/Src/stm32f1xx_hal_rcc.c **** }    
 1372              		.loc 1 1090 0
 1373 0000 044B     		ldr	r3, .L193
 1374 0002 0549     		ldr	r1, .L193+4
 1375 0004 5B68     		ldr	r3, [r3, #4]
 1376              	.LBB30:
 1377              	.LBB31:
1078:drivers/STM32F1xx_HAL_Driver/Src/stm32f1xx_hal_rcc.c **** }
 1378              		.loc 1 1078 0
 1379 0006 054A     		ldr	r2, .L193+8
 1380              	.LBE31:
 1381              	.LBE30:
1090:drivers/STM32F1xx_HAL_Driver/Src/stm32f1xx_hal_rcc.c **** }    
 1382              		.loc 1 1090 0
 1383 0008 C3F30223 		ubfx	r3, r3, #8, #3
 1384 000c CB5C     		ldrb	r3, [r1, r3]	@ zero_extendqisi2
 1385 000e 1068     		ldr	r0, [r2]
1091:drivers/STM32F1xx_HAL_Driver/Src/stm32f1xx_hal_rcc.c **** 
 1386              		.loc 1 1091 0
 1387 0010 D840     		lsrs	r0, r0, r3
 1388 0012 7047     		bx	lr
 1389              	.L194:
 1390              		.align	2
 1391              	.L193:
 1392 0014 00100240 		.word	1073876992
 1393 0018 00000000 		.word	APBPrescTable
 1394 001c 00000000 		.word	SystemCoreClock
 1395              		.cfi_endproc
 1396              	.LFE72:
 1398              		.section	.text.HAL_RCC_GetPCLK2Freq,"ax",%progbits
 1399              		.align	1
 1400              		.p2align 2,,3
 1401              		.global	HAL_RCC_GetPCLK2Freq
 1402              		.syntax unified
 1403              		.thumb
 1404              		.thumb_func
 1405              		.fpu softvfp
 1407              	HAL_RCC_GetPCLK2Freq:
 1408              	.LFB73:
1100:drivers/STM32F1xx_HAL_Driver/Src/stm32f1xx_hal_rcc.c ****   /* Get HCLK source and Compute PCLK2 frequency ---------------------------*/
 1409              		.loc 1 1100 0
 1410              		.cfi_startproc
 1411              		@ args = 0, pretend = 0, frame = 0
 1412              		@ frame_needed = 0, uses_anonymous_args = 0
 1413              		@ link register save eliminated.
ARM GAS  /tmp/ccOtixHI.s 			page 58


1102:drivers/STM32F1xx_HAL_Driver/Src/stm32f1xx_hal_rcc.c **** } 
 1414              		.loc 1 1102 0
 1415 0000 044B     		ldr	r3, .L196
 1416 0002 0549     		ldr	r1, .L196+4
 1417 0004 5B68     		ldr	r3, [r3, #4]
 1418              	.LBB32:
 1419              	.LBB33:
1078:drivers/STM32F1xx_HAL_Driver/Src/stm32f1xx_hal_rcc.c **** }
 1420              		.loc 1 1078 0
 1421 0006 054A     		ldr	r2, .L196+8
 1422              	.LBE33:
 1423              	.LBE32:
1102:drivers/STM32F1xx_HAL_Driver/Src/stm32f1xx_hal_rcc.c **** } 
 1424              		.loc 1 1102 0
 1425 0008 C3F3C223 		ubfx	r3, r3, #11, #3
 1426 000c CB5C     		ldrb	r3, [r1, r3]	@ zero_extendqisi2
 1427 000e 1068     		ldr	r0, [r2]
1103:drivers/STM32F1xx_HAL_Driver/Src/stm32f1xx_hal_rcc.c **** 
 1428              		.loc 1 1103 0
 1429 0010 D840     		lsrs	r0, r0, r3
 1430 0012 7047     		bx	lr
 1431              	.L197:
 1432              		.align	2
 1433              	.L196:
 1434 0014 00100240 		.word	1073876992
 1435 0018 00000000 		.word	APBPrescTable
 1436 001c 00000000 		.word	SystemCoreClock
 1437              		.cfi_endproc
 1438              	.LFE73:
 1440              		.section	.text.HAL_RCC_GetOscConfig,"ax",%progbits
 1441              		.align	1
 1442              		.p2align 2,,3
 1443              		.global	HAL_RCC_GetOscConfig
 1444              		.syntax unified
 1445              		.thumb
 1446              		.thumb_func
 1447              		.fpu softvfp
 1449              	HAL_RCC_GetOscConfig:
 1450              	.LFB74:
1113:drivers/STM32F1xx_HAL_Driver/Src/stm32f1xx_hal_rcc.c ****   /* Check the parameters */
 1451              		.loc 1 1113 0
 1452              		.cfi_startproc
 1453              		@ args = 0, pretend = 0, frame = 0
 1454              		@ frame_needed = 0, uses_anonymous_args = 0
 1455              		@ link register save eliminated.
 1456              	.LVL114:
1118:drivers/STM32F1xx_HAL_Driver/Src/stm32f1xx_hal_rcc.c ****                   | RCC_OSCILLATORTYPE_LSE | RCC_OSCILLATORTYPE_LSI;
 1457              		.loc 1 1118 0
 1458 0000 0F22     		movs	r2, #15
1127:drivers/STM32F1xx_HAL_Driver/Src/stm32f1xx_hal_rcc.c ****   {
 1459              		.loc 1 1127 0
 1460 0002 224B     		ldr	r3, .L211
1118:drivers/STM32F1xx_HAL_Driver/Src/stm32f1xx_hal_rcc.c ****                   | RCC_OSCILLATORTYPE_LSE | RCC_OSCILLATORTYPE_LSI;
 1461              		.loc 1 1118 0
 1462 0004 0260     		str	r2, [r0]
1127:drivers/STM32F1xx_HAL_Driver/Src/stm32f1xx_hal_rcc.c ****   {
 1463              		.loc 1 1127 0
ARM GAS  /tmp/ccOtixHI.s 			page 59


 1464 0006 1A68     		ldr	r2, [r3]
 1465 0008 5203     		lsls	r2, r2, #13
 1466 000a 2FD5     		bpl	.L199
1129:drivers/STM32F1xx_HAL_Driver/Src/stm32f1xx_hal_rcc.c ****   }
 1467              		.loc 1 1129 0
 1468 000c 4FF4A023 		mov	r3, #327680
 1469 0010 4360     		str	r3, [r0, #4]
 1470              	.L200:
1139:drivers/STM32F1xx_HAL_Driver/Src/stm32f1xx_hal_rcc.c **** 
 1471              		.loc 1 1139 0
 1472 0012 1E4A     		ldr	r2, .L211
 1473 0014 5368     		ldr	r3, [r2, #4]
 1474 0016 03F40033 		and	r3, r3, #131072
 1475 001a 8360     		str	r3, [r0, #8]
1142:drivers/STM32F1xx_HAL_Driver/Src/stm32f1xx_hal_rcc.c ****   {
 1476              		.loc 1 1142 0
 1477 001c 1368     		ldr	r3, [r2]
1151:drivers/STM32F1xx_HAL_Driver/Src/stm32f1xx_hal_rcc.c ****   
 1478              		.loc 1 1151 0
 1479 001e 1B4A     		ldr	r2, .L211
1142:drivers/STM32F1xx_HAL_Driver/Src/stm32f1xx_hal_rcc.c ****   {
 1480              		.loc 1 1142 0
 1481 0020 13F00103 		ands	r3, r3, #1
1144:drivers/STM32F1xx_HAL_Driver/Src/stm32f1xx_hal_rcc.c ****   }
 1482              		.loc 1 1144 0
 1483 0024 18BF     		it	ne
 1484 0026 0123     		movne	r3, #1
1148:drivers/STM32F1xx_HAL_Driver/Src/stm32f1xx_hal_rcc.c ****   }
 1485              		.loc 1 1148 0
 1486 0028 0361     		str	r3, [r0, #16]
1151:drivers/STM32F1xx_HAL_Driver/Src/stm32f1xx_hal_rcc.c ****   
 1487              		.loc 1 1151 0
 1488 002a 1368     		ldr	r3, [r2]
 1489 002c C3F3C403 		ubfx	r3, r3, #3, #5
 1490 0030 4361     		str	r3, [r0, #20]
1154:drivers/STM32F1xx_HAL_Driver/Src/stm32f1xx_hal_rcc.c ****   {
 1491              		.loc 1 1154 0
 1492 0032 136A     		ldr	r3, [r2, #32]
 1493 0034 5907     		lsls	r1, r3, #29
 1494 0036 21D5     		bpl	.L204
1156:drivers/STM32F1xx_HAL_Driver/Src/stm32f1xx_hal_rcc.c ****   }
 1495              		.loc 1 1156 0
 1496 0038 0523     		movs	r3, #5
 1497 003a C360     		str	r3, [r0, #12]
 1498              	.L205:
1168:drivers/STM32F1xx_HAL_Driver/Src/stm32f1xx_hal_rcc.c ****   {
 1499              		.loc 1 1168 0
 1500 003c 134B     		ldr	r3, .L211
1187:drivers/STM32F1xx_HAL_Driver/Src/stm32f1xx_hal_rcc.c ****   RCC_OscInitStruct->PLL.PLLMUL = (uint32_t)(RCC->CFGR & RCC_CFGR_PLLMULL);
 1501              		.loc 1 1187 0
 1502 003e 134A     		ldr	r2, .L211
1168:drivers/STM32F1xx_HAL_Driver/Src/stm32f1xx_hal_rcc.c ****   {
 1503              		.loc 1 1168 0
 1504 0040 5B6A     		ldr	r3, [r3, #36]
 1505 0042 13F00103 		ands	r3, r3, #1
1170:drivers/STM32F1xx_HAL_Driver/Src/stm32f1xx_hal_rcc.c ****   }
 1506              		.loc 1 1170 0
ARM GAS  /tmp/ccOtixHI.s 			page 60


 1507 0046 18BF     		it	ne
 1508 0048 0123     		movne	r3, #1
1174:drivers/STM32F1xx_HAL_Driver/Src/stm32f1xx_hal_rcc.c ****   }
 1509              		.loc 1 1174 0
 1510 004a 8361     		str	r3, [r0, #24]
1179:drivers/STM32F1xx_HAL_Driver/Src/stm32f1xx_hal_rcc.c ****   {
 1511              		.loc 1 1179 0
 1512 004c 0F4B     		ldr	r3, .L211
 1513 004e 1B68     		ldr	r3, [r3]
 1514 0050 DB01     		lsls	r3, r3, #7
1181:drivers/STM32F1xx_HAL_Driver/Src/stm32f1xx_hal_rcc.c ****   }
 1515              		.loc 1 1181 0
 1516 0052 4CBF     		ite	mi
 1517 0054 0223     		movmi	r3, #2
1185:drivers/STM32F1xx_HAL_Driver/Src/stm32f1xx_hal_rcc.c ****   }
 1518              		.loc 1 1185 0
 1519 0056 0123     		movpl	r3, #1
 1520 0058 C361     		str	r3, [r0, #28]
1187:drivers/STM32F1xx_HAL_Driver/Src/stm32f1xx_hal_rcc.c ****   RCC_OscInitStruct->PLL.PLLMUL = (uint32_t)(RCC->CFGR & RCC_CFGR_PLLMULL);
 1521              		.loc 1 1187 0
 1522 005a 5368     		ldr	r3, [r2, #4]
 1523 005c 03F48033 		and	r3, r3, #65536
 1524 0060 0362     		str	r3, [r0, #32]
1188:drivers/STM32F1xx_HAL_Driver/Src/stm32f1xx_hal_rcc.c **** #if defined(RCC_CR_PLL2ON)
 1525              		.loc 1 1188 0
 1526 0062 5368     		ldr	r3, [r2, #4]
 1527 0064 03F47013 		and	r3, r3, #3932160
 1528 0068 4362     		str	r3, [r0, #36]
 1529 006a 7047     		bx	lr
 1530              	.L199:
1131:drivers/STM32F1xx_HAL_Driver/Src/stm32f1xx_hal_rcc.c ****   {
 1531              		.loc 1 1131 0
 1532 006c 1B68     		ldr	r3, [r3]
 1533 006e 13F48033 		ands	r3, r3, #65536
1133:drivers/STM32F1xx_HAL_Driver/Src/stm32f1xx_hal_rcc.c ****   }
 1534              		.loc 1 1133 0
 1535 0072 18BF     		it	ne
 1536 0074 4FF48033 		movne	r3, #65536
1137:drivers/STM32F1xx_HAL_Driver/Src/stm32f1xx_hal_rcc.c ****   }
 1537              		.loc 1 1137 0
 1538 0078 4360     		str	r3, [r0, #4]
 1539 007a CAE7     		b	.L200
 1540              	.L204:
1158:drivers/STM32F1xx_HAL_Driver/Src/stm32f1xx_hal_rcc.c ****   {
 1541              		.loc 1 1158 0
 1542 007c 136A     		ldr	r3, [r2, #32]
 1543 007e 13F00103 		ands	r3, r3, #1
1160:drivers/STM32F1xx_HAL_Driver/Src/stm32f1xx_hal_rcc.c ****   }
 1544              		.loc 1 1160 0
 1545 0082 18BF     		it	ne
 1546 0084 0123     		movne	r3, #1
1164:drivers/STM32F1xx_HAL_Driver/Src/stm32f1xx_hal_rcc.c ****   }
 1547              		.loc 1 1164 0
 1548 0086 C360     		str	r3, [r0, #12]
 1549 0088 D8E7     		b	.L205
 1550              	.L212:
 1551 008a 00BF     		.align	2
ARM GAS  /tmp/ccOtixHI.s 			page 61


 1552              	.L211:
 1553 008c 00100240 		.word	1073876992
 1554              		.cfi_endproc
 1555              	.LFE74:
 1557              		.section	.text.HAL_RCC_GetClockConfig,"ax",%progbits
 1558              		.align	1
 1559              		.p2align 2,,3
 1560              		.global	HAL_RCC_GetClockConfig
 1561              		.syntax unified
 1562              		.thumb
 1563              		.thumb_func
 1564              		.fpu softvfp
 1566              	HAL_RCC_GetClockConfig:
 1567              	.LFB75:
1213:drivers/STM32F1xx_HAL_Driver/Src/stm32f1xx_hal_rcc.c ****   /* Check the parameters */
 1568              		.loc 1 1213 0
 1569              		.cfi_startproc
 1570              		@ args = 0, pretend = 0, frame = 0
 1571              		@ frame_needed = 0, uses_anonymous_args = 0
 1572              		@ link register save eliminated.
 1573              	.LVL115:
1219:drivers/STM32F1xx_HAL_Driver/Src/stm32f1xx_hal_rcc.c ****   
 1574              		.loc 1 1219 0
 1575 0000 0F22     		movs	r2, #15
1222:drivers/STM32F1xx_HAL_Driver/Src/stm32f1xx_hal_rcc.c ****   
 1576              		.loc 1 1222 0
 1577 0002 0D4B     		ldr	r3, .L215
1219:drivers/STM32F1xx_HAL_Driver/Src/stm32f1xx_hal_rcc.c ****   
 1578              		.loc 1 1219 0
 1579 0004 0260     		str	r2, [r0]
1222:drivers/STM32F1xx_HAL_Driver/Src/stm32f1xx_hal_rcc.c ****   
 1580              		.loc 1 1222 0
 1581 0006 5A68     		ldr	r2, [r3, #4]
1213:drivers/STM32F1xx_HAL_Driver/Src/stm32f1xx_hal_rcc.c ****   /* Check the parameters */
 1582              		.loc 1 1213 0
 1583 0008 10B4     		push	{r4}
 1584              		.cfi_def_cfa_offset 4
 1585              		.cfi_offset 4, -4
1222:drivers/STM32F1xx_HAL_Driver/Src/stm32f1xx_hal_rcc.c ****   
 1586              		.loc 1 1222 0
 1587 000a 02F00302 		and	r2, r2, #3
 1588 000e 4260     		str	r2, [r0, #4]
1225:drivers/STM32F1xx_HAL_Driver/Src/stm32f1xx_hal_rcc.c ****   
 1589              		.loc 1 1225 0
 1590 0010 5A68     		ldr	r2, [r3, #4]
1235:drivers/STM32F1xx_HAL_Driver/Src/stm32f1xx_hal_rcc.c **** #else
 1591              		.loc 1 1235 0
 1592 0012 0A4C     		ldr	r4, .L215+4
1225:drivers/STM32F1xx_HAL_Driver/Src/stm32f1xx_hal_rcc.c ****   
 1593              		.loc 1 1225 0
 1594 0014 02F0F002 		and	r2, r2, #240
 1595 0018 8260     		str	r2, [r0, #8]
1228:drivers/STM32F1xx_HAL_Driver/Src/stm32f1xx_hal_rcc.c ****   
 1596              		.loc 1 1228 0
 1597 001a 5A68     		ldr	r2, [r3, #4]
 1598 001c 02F4E062 		and	r2, r2, #1792
 1599 0020 C260     		str	r2, [r0, #12]
ARM GAS  /tmp/ccOtixHI.s 			page 62


1231:drivers/STM32F1xx_HAL_Driver/Src/stm32f1xx_hal_rcc.c ****   
 1600              		.loc 1 1231 0
 1601 0022 5B68     		ldr	r3, [r3, #4]
 1602 0024 DB08     		lsrs	r3, r3, #3
 1603 0026 03F4E063 		and	r3, r3, #1792
 1604 002a 0361     		str	r3, [r0, #16]
1235:drivers/STM32F1xx_HAL_Driver/Src/stm32f1xx_hal_rcc.c **** #else
 1605              		.loc 1 1235 0
 1606 002c 2368     		ldr	r3, [r4]
1240:drivers/STM32F1xx_HAL_Driver/Src/stm32f1xx_hal_rcc.c **** 
 1607              		.loc 1 1240 0
 1608 002e 10BC     		pop	{r4}
 1609              		.cfi_restore 4
 1610              		.cfi_def_cfa_offset 0
1235:drivers/STM32F1xx_HAL_Driver/Src/stm32f1xx_hal_rcc.c **** #else
 1611              		.loc 1 1235 0
 1612 0030 03F00703 		and	r3, r3, #7
 1613 0034 0B60     		str	r3, [r1]
1240:drivers/STM32F1xx_HAL_Driver/Src/stm32f1xx_hal_rcc.c **** 
 1614              		.loc 1 1240 0
 1615 0036 7047     		bx	lr
 1616              	.L216:
 1617              		.align	2
 1618              	.L215:
 1619 0038 00100240 		.word	1073876992
 1620 003c 00200240 		.word	1073881088
 1621              		.cfi_endproc
 1622              	.LFE75:
 1624              		.section	.text.HAL_RCC_CSSCallback,"ax",%progbits
 1625              		.align	1
 1626              		.p2align 2,,3
 1627              		.weak	HAL_RCC_CSSCallback
 1628              		.syntax unified
 1629              		.thumb
 1630              		.thumb_func
 1631              		.fpu softvfp
 1633              	HAL_RCC_CSSCallback:
 1634              	.LFB78:
1273:drivers/STM32F1xx_HAL_Driver/Src/stm32f1xx_hal_rcc.c **** }
1274:drivers/STM32F1xx_HAL_Driver/Src/stm32f1xx_hal_rcc.c **** 
1275:drivers/STM32F1xx_HAL_Driver/Src/stm32f1xx_hal_rcc.c **** /**
1276:drivers/STM32F1xx_HAL_Driver/Src/stm32f1xx_hal_rcc.c ****   * @brief  RCC Clock Security System interrupt callback
1277:drivers/STM32F1xx_HAL_Driver/Src/stm32f1xx_hal_rcc.c ****   * @retval none
1278:drivers/STM32F1xx_HAL_Driver/Src/stm32f1xx_hal_rcc.c ****   */
1279:drivers/STM32F1xx_HAL_Driver/Src/stm32f1xx_hal_rcc.c **** __weak void HAL_RCC_CSSCallback(void)
1280:drivers/STM32F1xx_HAL_Driver/Src/stm32f1xx_hal_rcc.c **** {
 1635              		.loc 1 1280 0
 1636              		.cfi_startproc
 1637              		@ args = 0, pretend = 0, frame = 0
 1638              		@ frame_needed = 0, uses_anonymous_args = 0
 1639              		@ link register save eliminated.
 1640 0000 7047     		bx	lr
 1641              		.cfi_endproc
 1642              	.LFE78:
 1644 0002 00BF     		.section	.text.HAL_RCC_NMI_IRQHandler,"ax",%progbits
 1645              		.align	1
 1646              		.p2align 2,,3
ARM GAS  /tmp/ccOtixHI.s 			page 63


 1647              		.global	HAL_RCC_NMI_IRQHandler
 1648              		.syntax unified
 1649              		.thumb
 1650              		.thumb_func
 1651              		.fpu softvfp
 1653              	HAL_RCC_NMI_IRQHandler:
 1654              	.LFB76:
1248:drivers/STM32F1xx_HAL_Driver/Src/stm32f1xx_hal_rcc.c ****   /* Check RCC CSSF flag  */
 1655              		.loc 1 1248 0
 1656              		.cfi_startproc
 1657              		@ args = 0, pretend = 0, frame = 0
 1658              		@ frame_needed = 0, uses_anonymous_args = 0
1248:drivers/STM32F1xx_HAL_Driver/Src/stm32f1xx_hal_rcc.c ****   /* Check RCC CSSF flag  */
 1659              		.loc 1 1248 0
 1660 0000 08B5     		push	{r3, lr}
 1661              		.cfi_def_cfa_offset 8
 1662              		.cfi_offset 3, -8
 1663              		.cfi_offset 14, -4
1250:drivers/STM32F1xx_HAL_Driver/Src/stm32f1xx_hal_rcc.c ****   {
 1664              		.loc 1 1250 0
 1665 0002 054B     		ldr	r3, .L224
 1666 0004 9B68     		ldr	r3, [r3, #8]
 1667 0006 1B06     		lsls	r3, r3, #24
 1668 0008 04D5     		bpl	.L218
1253:drivers/STM32F1xx_HAL_Driver/Src/stm32f1xx_hal_rcc.c ****     
 1669              		.loc 1 1253 0
 1670 000a FFF7FEFF 		bl	HAL_RCC_CSSCallback
 1671              	.LVL116:
1256:drivers/STM32F1xx_HAL_Driver/Src/stm32f1xx_hal_rcc.c ****   }
 1672              		.loc 1 1256 0
 1673 000e 8022     		movs	r2, #128
 1674 0010 024B     		ldr	r3, .L224+4
 1675 0012 1A70     		strb	r2, [r3]
 1676              	.L218:
 1677 0014 08BD     		pop	{r3, pc}
 1678              	.L225:
 1679 0016 00BF     		.align	2
 1680              	.L224:
 1681 0018 00100240 		.word	1073876992
 1682 001c 0A100240 		.word	1073877002
 1683              		.cfi_endproc
 1684              	.LFE76:
 1686              		.section	.rodata
 1687              		.align	2
 1688              		.set	.LANCHOR0,. + 0
 1689              	.LC0:
 1690 0000 02       		.byte	2
 1691 0001 03       		.byte	3
 1692 0002 04       		.byte	4
 1693 0003 05       		.byte	5
 1694 0004 06       		.byte	6
 1695 0005 07       		.byte	7
 1696 0006 08       		.byte	8
 1697 0007 09       		.byte	9
 1698 0008 0A       		.byte	10
 1699 0009 0B       		.byte	11
 1700 000a 0C       		.byte	12
ARM GAS  /tmp/ccOtixHI.s 			page 64


 1701 000b 0D       		.byte	13
 1702 000c 0E       		.byte	14
 1703 000d 0F       		.byte	15
 1704 000e 10       		.byte	16
 1705 000f 10       		.byte	16
 1706              		.text
 1707              	.Letext0:
 1708              		.file 3 "/home/vdykyy/Install/STM-32/gcc-arm-none-eabi-6-2017-q2-update/lib/gcc/arm-none-eabi/6.3.
 1709              		.file 4 "drivers/CMSIS/Include/core_cm3.h"
 1710              		.file 5 "drivers/CMSIS/Device/ST/STM32F1xx/Include/system_stm32f1xx.h"
 1711              		.file 6 "drivers/CMSIS/Device/ST/STM32F1xx/Include/stm32f103xb.h"
 1712              		.file 7 "drivers/CMSIS/Device/ST/STM32F1xx/Include/stm32f1xx.h"
 1713              		.file 8 "/home/vdykyy/Install/STM-32/gcc-arm-none-eabi-6-2017-q2-update/arm-none-eabi/include/sys/
 1714              		.file 9 "/home/vdykyy/Install/STM-32/gcc-arm-none-eabi-6-2017-q2-update/arm-none-eabi/include/sys/
 1715              		.file 10 "/home/vdykyy/Install/STM-32/gcc-arm-none-eabi-6-2017-q2-update/lib/gcc/arm-none-eabi/6.3
 1716              		.file 11 "/home/vdykyy/Install/STM-32/gcc-arm-none-eabi-6-2017-q2-update/arm-none-eabi/include/sys
 1717              		.file 12 "drivers/STM32F1xx_HAL_Driver/Inc/stm32f1xx_hal_def.h"
 1718              		.file 13 "drivers/STM32F1xx_HAL_Driver/Inc/stm32f1xx_hal_rcc.h"
 1719              		.file 14 "drivers/STM32F1xx_HAL_Driver/Inc/stm32f1xx_hal_rcc_ex.h"
 1720              		.file 15 "drivers/STM32F1xx_HAL_Driver/Inc/stm32f1xx_hal_gpio.h"
 1721              		.file 16 "drivers/STM32F1xx_HAL_Driver/Inc/stm32f1xx_hal.h"
ARM GAS  /tmp/ccOtixHI.s 			page 65

