ARM GAS  /tmp/cch7CLaJ.s 			page 1


   1              		.cpu cortex-m3
   2              		.eabi_attribute 20, 1
   3              		.eabi_attribute 21, 1
   4              		.eabi_attribute 23, 3
   5              		.eabi_attribute 24, 1
   6              		.eabi_attribute 25, 1
   7              		.eabi_attribute 26, 1
   8              		.eabi_attribute 30, 2
   9              		.eabi_attribute 34, 1
  10              		.eabi_attribute 18, 4
  11              		.file	"timer.cpp"
  12              		.text
  13              	.Ltext0:
  14              		.cfi_sections	.debug_frame
  15              		.section	.text._ZN5TimerC2EtOKSt8functionIFvvEEb,"ax",%progbits
  16              		.align	1
  17              		.p2align 2,,3
  18              		.global	_ZN5TimerC2EtOKSt8functionIFvvEEb
  19              		.syntax unified
  20              		.thumb
  21              		.thumb_func
  22              		.fpu softvfp
  24              	_ZN5TimerC2EtOKSt8functionIFvvEEb:
  25              	.LFB1246:
  26              		.file 1 "src/Impl/timer.cpp"
   1:src/Impl/timer.cpp **** #include "timer.h"
   2:src/Impl/timer.cpp **** 
   3:src/Impl/timer.cpp **** 
   4:src/Impl/timer.cpp **** Timer::Timer(const uint16_t delay, const Callback &&callback, const bool isOneShot) :
  27              		.loc 1 4 0
  28              		.cfi_startproc
  29              		@ args = 0, pretend = 0, frame = 0
  30              		@ frame_needed = 0, uses_anonymous_args = 0
  31              	.LVL0:
  32 0000 F8B5     		push	{r3, r4, r5, r6, r7, lr}
  33              		.cfi_def_cfa_offset 24
  34              		.cfi_offset 3, -24
  35              		.cfi_offset 4, -20
  36              		.cfi_offset 5, -16
  37              		.cfi_offset 6, -12
  38              		.cfi_offset 7, -8
  39              		.cfi_offset 14, -4
  40              		.loc 1 4 0
  41 0002 0446     		mov	r4, r0
  42              	.LBB74:
  43              	.LBB75:
  44              	.LBB76:
  45              	.LBB77:
  46              	.LBB78:
  47              		.file 2 "/home/vdykyy/Install/STM-32/gcc-arm-none-eabi-6-2017-q2-update/arm-none-eabi/include/c++/
   1:/home/vdykyy/Install/STM-32/gcc-arm-none-eabi-6-2017-q2-update/arm-none-eabi/include/c++/6.3.1/functional **** // <functional> -*- C++ -*-
   2:/home/vdykyy/Install/STM-32/gcc-arm-none-eabi-6-2017-q2-update/arm-none-eabi/include/c++/6.3.1/functional **** 
   3:/home/vdykyy/Install/STM-32/gcc-arm-none-eabi-6-2017-q2-update/arm-none-eabi/include/c++/6.3.1/functional **** // Copyright (C) 2001-2016 Free Software Foundation, Inc.
   4:/home/vdykyy/Install/STM-32/gcc-arm-none-eabi-6-2017-q2-update/arm-none-eabi/include/c++/6.3.1/functional **** //
   5:/home/vdykyy/Install/STM-32/gcc-arm-none-eabi-6-2017-q2-update/arm-none-eabi/include/c++/6.3.1/functional **** // This file is part of the GNU ISO C++ Library.  This library is free
   6:/home/vdykyy/Install/STM-32/gcc-arm-none-eabi-6-2017-q2-update/arm-none-eabi/include/c++/6.3.1/functional **** // software; you can redistribute it and/or modify it under the
   7:/home/vdykyy/Install/STM-32/gcc-arm-none-eabi-6-2017-q2-update/arm-none-eabi/include/c++/6.3.1/functional **** // terms of the GNU General Public License as published by the
ARM GAS  /tmp/cch7CLaJ.s 			page 2


   8:/home/vdykyy/Install/STM-32/gcc-arm-none-eabi-6-2017-q2-update/arm-none-eabi/include/c++/6.3.1/functional **** // Free Software Foundation; either version 3, or (at your option)
   9:/home/vdykyy/Install/STM-32/gcc-arm-none-eabi-6-2017-q2-update/arm-none-eabi/include/c++/6.3.1/functional **** // any later version.
  10:/home/vdykyy/Install/STM-32/gcc-arm-none-eabi-6-2017-q2-update/arm-none-eabi/include/c++/6.3.1/functional **** 
  11:/home/vdykyy/Install/STM-32/gcc-arm-none-eabi-6-2017-q2-update/arm-none-eabi/include/c++/6.3.1/functional **** // This library is distributed in the hope that it will be useful,
  12:/home/vdykyy/Install/STM-32/gcc-arm-none-eabi-6-2017-q2-update/arm-none-eabi/include/c++/6.3.1/functional **** // but WITHOUT ANY WARRANTY; without even the implied warranty of
  13:/home/vdykyy/Install/STM-32/gcc-arm-none-eabi-6-2017-q2-update/arm-none-eabi/include/c++/6.3.1/functional **** // MERCHANTABILITY or FITNESS FOR A PARTICULAR PURPOSE.  See the
  14:/home/vdykyy/Install/STM-32/gcc-arm-none-eabi-6-2017-q2-update/arm-none-eabi/include/c++/6.3.1/functional **** // GNU General Public License for more details.
  15:/home/vdykyy/Install/STM-32/gcc-arm-none-eabi-6-2017-q2-update/arm-none-eabi/include/c++/6.3.1/functional **** 
  16:/home/vdykyy/Install/STM-32/gcc-arm-none-eabi-6-2017-q2-update/arm-none-eabi/include/c++/6.3.1/functional **** // Under Section 7 of GPL version 3, you are granted additional
  17:/home/vdykyy/Install/STM-32/gcc-arm-none-eabi-6-2017-q2-update/arm-none-eabi/include/c++/6.3.1/functional **** // permissions described in the GCC Runtime Library Exception, version
  18:/home/vdykyy/Install/STM-32/gcc-arm-none-eabi-6-2017-q2-update/arm-none-eabi/include/c++/6.3.1/functional **** // 3.1, as published by the Free Software Foundation.
  19:/home/vdykyy/Install/STM-32/gcc-arm-none-eabi-6-2017-q2-update/arm-none-eabi/include/c++/6.3.1/functional **** 
  20:/home/vdykyy/Install/STM-32/gcc-arm-none-eabi-6-2017-q2-update/arm-none-eabi/include/c++/6.3.1/functional **** // You should have received a copy of the GNU General Public License and
  21:/home/vdykyy/Install/STM-32/gcc-arm-none-eabi-6-2017-q2-update/arm-none-eabi/include/c++/6.3.1/functional **** // a copy of the GCC Runtime Library Exception along with this program;
  22:/home/vdykyy/Install/STM-32/gcc-arm-none-eabi-6-2017-q2-update/arm-none-eabi/include/c++/6.3.1/functional **** // see the files COPYING3 and COPYING.RUNTIME respectively.  If not, see
  23:/home/vdykyy/Install/STM-32/gcc-arm-none-eabi-6-2017-q2-update/arm-none-eabi/include/c++/6.3.1/functional **** // <http://www.gnu.org/licenses/>.
  24:/home/vdykyy/Install/STM-32/gcc-arm-none-eabi-6-2017-q2-update/arm-none-eabi/include/c++/6.3.1/functional **** 
  25:/home/vdykyy/Install/STM-32/gcc-arm-none-eabi-6-2017-q2-update/arm-none-eabi/include/c++/6.3.1/functional **** /*
  26:/home/vdykyy/Install/STM-32/gcc-arm-none-eabi-6-2017-q2-update/arm-none-eabi/include/c++/6.3.1/functional ****  * Copyright (c) 1997
  27:/home/vdykyy/Install/STM-32/gcc-arm-none-eabi-6-2017-q2-update/arm-none-eabi/include/c++/6.3.1/functional ****  * Silicon Graphics Computer Systems, Inc.
  28:/home/vdykyy/Install/STM-32/gcc-arm-none-eabi-6-2017-q2-update/arm-none-eabi/include/c++/6.3.1/functional ****  *
  29:/home/vdykyy/Install/STM-32/gcc-arm-none-eabi-6-2017-q2-update/arm-none-eabi/include/c++/6.3.1/functional ****  * Permission to use, copy, modify, distribute and sell this software
  30:/home/vdykyy/Install/STM-32/gcc-arm-none-eabi-6-2017-q2-update/arm-none-eabi/include/c++/6.3.1/functional ****  * and its documentation for any purpose is hereby granted without fee,
  31:/home/vdykyy/Install/STM-32/gcc-arm-none-eabi-6-2017-q2-update/arm-none-eabi/include/c++/6.3.1/functional ****  * provided that the above copyright notice appear in all copies and
  32:/home/vdykyy/Install/STM-32/gcc-arm-none-eabi-6-2017-q2-update/arm-none-eabi/include/c++/6.3.1/functional ****  * that both that copyright notice and this permission notice appear
  33:/home/vdykyy/Install/STM-32/gcc-arm-none-eabi-6-2017-q2-update/arm-none-eabi/include/c++/6.3.1/functional ****  * in supporting documentation.  Silicon Graphics makes no
  34:/home/vdykyy/Install/STM-32/gcc-arm-none-eabi-6-2017-q2-update/arm-none-eabi/include/c++/6.3.1/functional ****  * representations about the suitability of this software for any
  35:/home/vdykyy/Install/STM-32/gcc-arm-none-eabi-6-2017-q2-update/arm-none-eabi/include/c++/6.3.1/functional ****  * purpose.  It is provided "as is" without express or implied warranty.
  36:/home/vdykyy/Install/STM-32/gcc-arm-none-eabi-6-2017-q2-update/arm-none-eabi/include/c++/6.3.1/functional ****  *
  37:/home/vdykyy/Install/STM-32/gcc-arm-none-eabi-6-2017-q2-update/arm-none-eabi/include/c++/6.3.1/functional ****  */
  38:/home/vdykyy/Install/STM-32/gcc-arm-none-eabi-6-2017-q2-update/arm-none-eabi/include/c++/6.3.1/functional **** 
  39:/home/vdykyy/Install/STM-32/gcc-arm-none-eabi-6-2017-q2-update/arm-none-eabi/include/c++/6.3.1/functional **** /** @file include/functional
  40:/home/vdykyy/Install/STM-32/gcc-arm-none-eabi-6-2017-q2-update/arm-none-eabi/include/c++/6.3.1/functional ****  *  This is a Standard C++ Library header.
  41:/home/vdykyy/Install/STM-32/gcc-arm-none-eabi-6-2017-q2-update/arm-none-eabi/include/c++/6.3.1/functional ****  */
  42:/home/vdykyy/Install/STM-32/gcc-arm-none-eabi-6-2017-q2-update/arm-none-eabi/include/c++/6.3.1/functional **** 
  43:/home/vdykyy/Install/STM-32/gcc-arm-none-eabi-6-2017-q2-update/arm-none-eabi/include/c++/6.3.1/functional **** #ifndef _GLIBCXX_FUNCTIONAL
  44:/home/vdykyy/Install/STM-32/gcc-arm-none-eabi-6-2017-q2-update/arm-none-eabi/include/c++/6.3.1/functional **** #define _GLIBCXX_FUNCTIONAL 1
  45:/home/vdykyy/Install/STM-32/gcc-arm-none-eabi-6-2017-q2-update/arm-none-eabi/include/c++/6.3.1/functional **** 
  46:/home/vdykyy/Install/STM-32/gcc-arm-none-eabi-6-2017-q2-update/arm-none-eabi/include/c++/6.3.1/functional **** #pragma GCC system_header
  47:/home/vdykyy/Install/STM-32/gcc-arm-none-eabi-6-2017-q2-update/arm-none-eabi/include/c++/6.3.1/functional **** 
  48:/home/vdykyy/Install/STM-32/gcc-arm-none-eabi-6-2017-q2-update/arm-none-eabi/include/c++/6.3.1/functional **** #include <bits/c++config.h>
  49:/home/vdykyy/Install/STM-32/gcc-arm-none-eabi-6-2017-q2-update/arm-none-eabi/include/c++/6.3.1/functional **** #include <bits/stl_function.h>
  50:/home/vdykyy/Install/STM-32/gcc-arm-none-eabi-6-2017-q2-update/arm-none-eabi/include/c++/6.3.1/functional **** 
  51:/home/vdykyy/Install/STM-32/gcc-arm-none-eabi-6-2017-q2-update/arm-none-eabi/include/c++/6.3.1/functional **** #if __cplusplus >= 201103L
  52:/home/vdykyy/Install/STM-32/gcc-arm-none-eabi-6-2017-q2-update/arm-none-eabi/include/c++/6.3.1/functional **** 
  53:/home/vdykyy/Install/STM-32/gcc-arm-none-eabi-6-2017-q2-update/arm-none-eabi/include/c++/6.3.1/functional **** #include <typeinfo>
  54:/home/vdykyy/Install/STM-32/gcc-arm-none-eabi-6-2017-q2-update/arm-none-eabi/include/c++/6.3.1/functional **** #include <new>
  55:/home/vdykyy/Install/STM-32/gcc-arm-none-eabi-6-2017-q2-update/arm-none-eabi/include/c++/6.3.1/functional **** #include <tuple>
  56:/home/vdykyy/Install/STM-32/gcc-arm-none-eabi-6-2017-q2-update/arm-none-eabi/include/c++/6.3.1/functional **** #include <type_traits>
  57:/home/vdykyy/Install/STM-32/gcc-arm-none-eabi-6-2017-q2-update/arm-none-eabi/include/c++/6.3.1/functional **** #include <bits/functexcept.h>
  58:/home/vdykyy/Install/STM-32/gcc-arm-none-eabi-6-2017-q2-update/arm-none-eabi/include/c++/6.3.1/functional **** #include <bits/functional_hash.h>
  59:/home/vdykyy/Install/STM-32/gcc-arm-none-eabi-6-2017-q2-update/arm-none-eabi/include/c++/6.3.1/functional **** 
  60:/home/vdykyy/Install/STM-32/gcc-arm-none-eabi-6-2017-q2-update/arm-none-eabi/include/c++/6.3.1/functional **** namespace std _GLIBCXX_VISIBILITY(default)
  61:/home/vdykyy/Install/STM-32/gcc-arm-none-eabi-6-2017-q2-update/arm-none-eabi/include/c++/6.3.1/functional **** {
  62:/home/vdykyy/Install/STM-32/gcc-arm-none-eabi-6-2017-q2-update/arm-none-eabi/include/c++/6.3.1/functional **** _GLIBCXX_BEGIN_NAMESPACE_VERSION
  63:/home/vdykyy/Install/STM-32/gcc-arm-none-eabi-6-2017-q2-update/arm-none-eabi/include/c++/6.3.1/functional **** 
  64:/home/vdykyy/Install/STM-32/gcc-arm-none-eabi-6-2017-q2-update/arm-none-eabi/include/c++/6.3.1/functional ****   template<typename _MemberPointer>
ARM GAS  /tmp/cch7CLaJ.s 			page 3


  65:/home/vdykyy/Install/STM-32/gcc-arm-none-eabi-6-2017-q2-update/arm-none-eabi/include/c++/6.3.1/functional ****     class _Mem_fn;
  66:/home/vdykyy/Install/STM-32/gcc-arm-none-eabi-6-2017-q2-update/arm-none-eabi/include/c++/6.3.1/functional ****   template<typename _Tp, typename _Class>
  67:/home/vdykyy/Install/STM-32/gcc-arm-none-eabi-6-2017-q2-update/arm-none-eabi/include/c++/6.3.1/functional ****     _Mem_fn<_Tp _Class::*>
  68:/home/vdykyy/Install/STM-32/gcc-arm-none-eabi-6-2017-q2-update/arm-none-eabi/include/c++/6.3.1/functional ****     mem_fn(_Tp _Class::*) noexcept;
  69:/home/vdykyy/Install/STM-32/gcc-arm-none-eabi-6-2017-q2-update/arm-none-eabi/include/c++/6.3.1/functional **** 
  70:/home/vdykyy/Install/STM-32/gcc-arm-none-eabi-6-2017-q2-update/arm-none-eabi/include/c++/6.3.1/functional ****   /// If we have found a result_type, extract it.
  71:/home/vdykyy/Install/STM-32/gcc-arm-none-eabi-6-2017-q2-update/arm-none-eabi/include/c++/6.3.1/functional ****   template<typename _Functor, typename = __void_t<>>
  72:/home/vdykyy/Install/STM-32/gcc-arm-none-eabi-6-2017-q2-update/arm-none-eabi/include/c++/6.3.1/functional ****     struct _Maybe_get_result_type
  73:/home/vdykyy/Install/STM-32/gcc-arm-none-eabi-6-2017-q2-update/arm-none-eabi/include/c++/6.3.1/functional ****     { };
  74:/home/vdykyy/Install/STM-32/gcc-arm-none-eabi-6-2017-q2-update/arm-none-eabi/include/c++/6.3.1/functional **** 
  75:/home/vdykyy/Install/STM-32/gcc-arm-none-eabi-6-2017-q2-update/arm-none-eabi/include/c++/6.3.1/functional ****   template<typename _Functor>
  76:/home/vdykyy/Install/STM-32/gcc-arm-none-eabi-6-2017-q2-update/arm-none-eabi/include/c++/6.3.1/functional ****     struct _Maybe_get_result_type<_Functor,
  77:/home/vdykyy/Install/STM-32/gcc-arm-none-eabi-6-2017-q2-update/arm-none-eabi/include/c++/6.3.1/functional **** 				  __void_t<typename _Functor::result_type>>
  78:/home/vdykyy/Install/STM-32/gcc-arm-none-eabi-6-2017-q2-update/arm-none-eabi/include/c++/6.3.1/functional ****     { typedef typename _Functor::result_type result_type; };
  79:/home/vdykyy/Install/STM-32/gcc-arm-none-eabi-6-2017-q2-update/arm-none-eabi/include/c++/6.3.1/functional **** 
  80:/home/vdykyy/Install/STM-32/gcc-arm-none-eabi-6-2017-q2-update/arm-none-eabi/include/c++/6.3.1/functional ****   /**
  81:/home/vdykyy/Install/STM-32/gcc-arm-none-eabi-6-2017-q2-update/arm-none-eabi/include/c++/6.3.1/functional ****    *  Base class for any function object that has a weak result type, as
  82:/home/vdykyy/Install/STM-32/gcc-arm-none-eabi-6-2017-q2-update/arm-none-eabi/include/c++/6.3.1/functional ****    *  defined in 20.8.2 [func.require] of C++11.
  83:/home/vdykyy/Install/STM-32/gcc-arm-none-eabi-6-2017-q2-update/arm-none-eabi/include/c++/6.3.1/functional ****   */
  84:/home/vdykyy/Install/STM-32/gcc-arm-none-eabi-6-2017-q2-update/arm-none-eabi/include/c++/6.3.1/functional ****   template<typename _Functor>
  85:/home/vdykyy/Install/STM-32/gcc-arm-none-eabi-6-2017-q2-update/arm-none-eabi/include/c++/6.3.1/functional ****     struct _Weak_result_type_impl
  86:/home/vdykyy/Install/STM-32/gcc-arm-none-eabi-6-2017-q2-update/arm-none-eabi/include/c++/6.3.1/functional ****     : _Maybe_get_result_type<_Functor>
  87:/home/vdykyy/Install/STM-32/gcc-arm-none-eabi-6-2017-q2-update/arm-none-eabi/include/c++/6.3.1/functional ****     { };
  88:/home/vdykyy/Install/STM-32/gcc-arm-none-eabi-6-2017-q2-update/arm-none-eabi/include/c++/6.3.1/functional **** 
  89:/home/vdykyy/Install/STM-32/gcc-arm-none-eabi-6-2017-q2-update/arm-none-eabi/include/c++/6.3.1/functional ****   /// Retrieve the result type for a function type.
  90:/home/vdykyy/Install/STM-32/gcc-arm-none-eabi-6-2017-q2-update/arm-none-eabi/include/c++/6.3.1/functional ****   template<typename _Res, typename... _ArgTypes>
  91:/home/vdykyy/Install/STM-32/gcc-arm-none-eabi-6-2017-q2-update/arm-none-eabi/include/c++/6.3.1/functional ****     struct _Weak_result_type_impl<_Res(_ArgTypes...)>
  92:/home/vdykyy/Install/STM-32/gcc-arm-none-eabi-6-2017-q2-update/arm-none-eabi/include/c++/6.3.1/functional ****     { typedef _Res result_type; };
  93:/home/vdykyy/Install/STM-32/gcc-arm-none-eabi-6-2017-q2-update/arm-none-eabi/include/c++/6.3.1/functional **** 
  94:/home/vdykyy/Install/STM-32/gcc-arm-none-eabi-6-2017-q2-update/arm-none-eabi/include/c++/6.3.1/functional ****   template<typename _Res, typename... _ArgTypes>
  95:/home/vdykyy/Install/STM-32/gcc-arm-none-eabi-6-2017-q2-update/arm-none-eabi/include/c++/6.3.1/functional ****     struct _Weak_result_type_impl<_Res(_ArgTypes......)>
  96:/home/vdykyy/Install/STM-32/gcc-arm-none-eabi-6-2017-q2-update/arm-none-eabi/include/c++/6.3.1/functional ****     { typedef _Res result_type; };
  97:/home/vdykyy/Install/STM-32/gcc-arm-none-eabi-6-2017-q2-update/arm-none-eabi/include/c++/6.3.1/functional **** 
  98:/home/vdykyy/Install/STM-32/gcc-arm-none-eabi-6-2017-q2-update/arm-none-eabi/include/c++/6.3.1/functional ****   template<typename _Res, typename... _ArgTypes>
  99:/home/vdykyy/Install/STM-32/gcc-arm-none-eabi-6-2017-q2-update/arm-none-eabi/include/c++/6.3.1/functional ****     struct _Weak_result_type_impl<_Res(_ArgTypes...) const>
 100:/home/vdykyy/Install/STM-32/gcc-arm-none-eabi-6-2017-q2-update/arm-none-eabi/include/c++/6.3.1/functional ****     { typedef _Res result_type; };
 101:/home/vdykyy/Install/STM-32/gcc-arm-none-eabi-6-2017-q2-update/arm-none-eabi/include/c++/6.3.1/functional **** 
 102:/home/vdykyy/Install/STM-32/gcc-arm-none-eabi-6-2017-q2-update/arm-none-eabi/include/c++/6.3.1/functional ****   template<typename _Res, typename... _ArgTypes>
 103:/home/vdykyy/Install/STM-32/gcc-arm-none-eabi-6-2017-q2-update/arm-none-eabi/include/c++/6.3.1/functional ****     struct _Weak_result_type_impl<_Res(_ArgTypes......) const>
 104:/home/vdykyy/Install/STM-32/gcc-arm-none-eabi-6-2017-q2-update/arm-none-eabi/include/c++/6.3.1/functional ****     { typedef _Res result_type; };
 105:/home/vdykyy/Install/STM-32/gcc-arm-none-eabi-6-2017-q2-update/arm-none-eabi/include/c++/6.3.1/functional **** 
 106:/home/vdykyy/Install/STM-32/gcc-arm-none-eabi-6-2017-q2-update/arm-none-eabi/include/c++/6.3.1/functional ****   template<typename _Res, typename... _ArgTypes>
 107:/home/vdykyy/Install/STM-32/gcc-arm-none-eabi-6-2017-q2-update/arm-none-eabi/include/c++/6.3.1/functional ****     struct _Weak_result_type_impl<_Res(_ArgTypes...) volatile>
 108:/home/vdykyy/Install/STM-32/gcc-arm-none-eabi-6-2017-q2-update/arm-none-eabi/include/c++/6.3.1/functional ****     { typedef _Res result_type; };
 109:/home/vdykyy/Install/STM-32/gcc-arm-none-eabi-6-2017-q2-update/arm-none-eabi/include/c++/6.3.1/functional **** 
 110:/home/vdykyy/Install/STM-32/gcc-arm-none-eabi-6-2017-q2-update/arm-none-eabi/include/c++/6.3.1/functional ****   template<typename _Res, typename... _ArgTypes>
 111:/home/vdykyy/Install/STM-32/gcc-arm-none-eabi-6-2017-q2-update/arm-none-eabi/include/c++/6.3.1/functional ****     struct _Weak_result_type_impl<_Res(_ArgTypes......) volatile>
 112:/home/vdykyy/Install/STM-32/gcc-arm-none-eabi-6-2017-q2-update/arm-none-eabi/include/c++/6.3.1/functional ****     { typedef _Res result_type; };
 113:/home/vdykyy/Install/STM-32/gcc-arm-none-eabi-6-2017-q2-update/arm-none-eabi/include/c++/6.3.1/functional **** 
 114:/home/vdykyy/Install/STM-32/gcc-arm-none-eabi-6-2017-q2-update/arm-none-eabi/include/c++/6.3.1/functional ****   template<typename _Res, typename... _ArgTypes>
 115:/home/vdykyy/Install/STM-32/gcc-arm-none-eabi-6-2017-q2-update/arm-none-eabi/include/c++/6.3.1/functional ****     struct _Weak_result_type_impl<_Res(_ArgTypes...) const volatile>
 116:/home/vdykyy/Install/STM-32/gcc-arm-none-eabi-6-2017-q2-update/arm-none-eabi/include/c++/6.3.1/functional ****     { typedef _Res result_type; };
 117:/home/vdykyy/Install/STM-32/gcc-arm-none-eabi-6-2017-q2-update/arm-none-eabi/include/c++/6.3.1/functional **** 
 118:/home/vdykyy/Install/STM-32/gcc-arm-none-eabi-6-2017-q2-update/arm-none-eabi/include/c++/6.3.1/functional ****   template<typename _Res, typename... _ArgTypes>
 119:/home/vdykyy/Install/STM-32/gcc-arm-none-eabi-6-2017-q2-update/arm-none-eabi/include/c++/6.3.1/functional ****     struct _Weak_result_type_impl<_Res(_ArgTypes......) const volatile>
 120:/home/vdykyy/Install/STM-32/gcc-arm-none-eabi-6-2017-q2-update/arm-none-eabi/include/c++/6.3.1/functional ****     { typedef _Res result_type; };
 121:/home/vdykyy/Install/STM-32/gcc-arm-none-eabi-6-2017-q2-update/arm-none-eabi/include/c++/6.3.1/functional **** 
ARM GAS  /tmp/cch7CLaJ.s 			page 4


 122:/home/vdykyy/Install/STM-32/gcc-arm-none-eabi-6-2017-q2-update/arm-none-eabi/include/c++/6.3.1/functional ****   /// Retrieve the result type for a function reference.
 123:/home/vdykyy/Install/STM-32/gcc-arm-none-eabi-6-2017-q2-update/arm-none-eabi/include/c++/6.3.1/functional ****   template<typename _Res, typename... _ArgTypes>
 124:/home/vdykyy/Install/STM-32/gcc-arm-none-eabi-6-2017-q2-update/arm-none-eabi/include/c++/6.3.1/functional ****     struct _Weak_result_type_impl<_Res(&)(_ArgTypes...)>
 125:/home/vdykyy/Install/STM-32/gcc-arm-none-eabi-6-2017-q2-update/arm-none-eabi/include/c++/6.3.1/functional ****     { typedef _Res result_type; };
 126:/home/vdykyy/Install/STM-32/gcc-arm-none-eabi-6-2017-q2-update/arm-none-eabi/include/c++/6.3.1/functional **** 
 127:/home/vdykyy/Install/STM-32/gcc-arm-none-eabi-6-2017-q2-update/arm-none-eabi/include/c++/6.3.1/functional ****   template<typename _Res, typename... _ArgTypes>
 128:/home/vdykyy/Install/STM-32/gcc-arm-none-eabi-6-2017-q2-update/arm-none-eabi/include/c++/6.3.1/functional ****     struct _Weak_result_type_impl<_Res(&)(_ArgTypes......)>
 129:/home/vdykyy/Install/STM-32/gcc-arm-none-eabi-6-2017-q2-update/arm-none-eabi/include/c++/6.3.1/functional ****     { typedef _Res result_type; };
 130:/home/vdykyy/Install/STM-32/gcc-arm-none-eabi-6-2017-q2-update/arm-none-eabi/include/c++/6.3.1/functional **** 
 131:/home/vdykyy/Install/STM-32/gcc-arm-none-eabi-6-2017-q2-update/arm-none-eabi/include/c++/6.3.1/functional ****   /// Retrieve the result type for a function pointer.
 132:/home/vdykyy/Install/STM-32/gcc-arm-none-eabi-6-2017-q2-update/arm-none-eabi/include/c++/6.3.1/functional ****   template<typename _Res, typename... _ArgTypes>
 133:/home/vdykyy/Install/STM-32/gcc-arm-none-eabi-6-2017-q2-update/arm-none-eabi/include/c++/6.3.1/functional ****     struct _Weak_result_type_impl<_Res(*)(_ArgTypes...)>
 134:/home/vdykyy/Install/STM-32/gcc-arm-none-eabi-6-2017-q2-update/arm-none-eabi/include/c++/6.3.1/functional ****     { typedef _Res result_type; };
 135:/home/vdykyy/Install/STM-32/gcc-arm-none-eabi-6-2017-q2-update/arm-none-eabi/include/c++/6.3.1/functional **** 
 136:/home/vdykyy/Install/STM-32/gcc-arm-none-eabi-6-2017-q2-update/arm-none-eabi/include/c++/6.3.1/functional ****   template<typename _Res, typename... _ArgTypes>
 137:/home/vdykyy/Install/STM-32/gcc-arm-none-eabi-6-2017-q2-update/arm-none-eabi/include/c++/6.3.1/functional ****     struct _Weak_result_type_impl<_Res(*)(_ArgTypes......)>
 138:/home/vdykyy/Install/STM-32/gcc-arm-none-eabi-6-2017-q2-update/arm-none-eabi/include/c++/6.3.1/functional ****     { typedef _Res result_type; };
 139:/home/vdykyy/Install/STM-32/gcc-arm-none-eabi-6-2017-q2-update/arm-none-eabi/include/c++/6.3.1/functional **** 
 140:/home/vdykyy/Install/STM-32/gcc-arm-none-eabi-6-2017-q2-update/arm-none-eabi/include/c++/6.3.1/functional ****   /// Retrieve result type for a member function pointer.
 141:/home/vdykyy/Install/STM-32/gcc-arm-none-eabi-6-2017-q2-update/arm-none-eabi/include/c++/6.3.1/functional ****   template<typename _Res, typename _Class, typename... _ArgTypes>
 142:/home/vdykyy/Install/STM-32/gcc-arm-none-eabi-6-2017-q2-update/arm-none-eabi/include/c++/6.3.1/functional ****     struct _Weak_result_type_impl<_Res (_Class::*)(_ArgTypes...)>
 143:/home/vdykyy/Install/STM-32/gcc-arm-none-eabi-6-2017-q2-update/arm-none-eabi/include/c++/6.3.1/functional ****     { typedef _Res result_type; };
 144:/home/vdykyy/Install/STM-32/gcc-arm-none-eabi-6-2017-q2-update/arm-none-eabi/include/c++/6.3.1/functional **** 
 145:/home/vdykyy/Install/STM-32/gcc-arm-none-eabi-6-2017-q2-update/arm-none-eabi/include/c++/6.3.1/functional ****   template<typename _Res, typename _Class, typename... _ArgTypes>
 146:/home/vdykyy/Install/STM-32/gcc-arm-none-eabi-6-2017-q2-update/arm-none-eabi/include/c++/6.3.1/functional ****     struct _Weak_result_type_impl<_Res (_Class::*)(_ArgTypes......)>
 147:/home/vdykyy/Install/STM-32/gcc-arm-none-eabi-6-2017-q2-update/arm-none-eabi/include/c++/6.3.1/functional ****     { typedef _Res result_type; };
 148:/home/vdykyy/Install/STM-32/gcc-arm-none-eabi-6-2017-q2-update/arm-none-eabi/include/c++/6.3.1/functional **** 
 149:/home/vdykyy/Install/STM-32/gcc-arm-none-eabi-6-2017-q2-update/arm-none-eabi/include/c++/6.3.1/functional ****   /// Retrieve result type for a const member function pointer.
 150:/home/vdykyy/Install/STM-32/gcc-arm-none-eabi-6-2017-q2-update/arm-none-eabi/include/c++/6.3.1/functional ****   template<typename _Res, typename _Class, typename... _ArgTypes>
 151:/home/vdykyy/Install/STM-32/gcc-arm-none-eabi-6-2017-q2-update/arm-none-eabi/include/c++/6.3.1/functional ****     struct _Weak_result_type_impl<_Res (_Class::*)(_ArgTypes...) const>
 152:/home/vdykyy/Install/STM-32/gcc-arm-none-eabi-6-2017-q2-update/arm-none-eabi/include/c++/6.3.1/functional ****     { typedef _Res result_type; };
 153:/home/vdykyy/Install/STM-32/gcc-arm-none-eabi-6-2017-q2-update/arm-none-eabi/include/c++/6.3.1/functional **** 
 154:/home/vdykyy/Install/STM-32/gcc-arm-none-eabi-6-2017-q2-update/arm-none-eabi/include/c++/6.3.1/functional ****   template<typename _Res, typename _Class, typename... _ArgTypes>
 155:/home/vdykyy/Install/STM-32/gcc-arm-none-eabi-6-2017-q2-update/arm-none-eabi/include/c++/6.3.1/functional ****     struct _Weak_result_type_impl<_Res (_Class::*)(_ArgTypes......) const>
 156:/home/vdykyy/Install/STM-32/gcc-arm-none-eabi-6-2017-q2-update/arm-none-eabi/include/c++/6.3.1/functional ****     { typedef _Res result_type; };
 157:/home/vdykyy/Install/STM-32/gcc-arm-none-eabi-6-2017-q2-update/arm-none-eabi/include/c++/6.3.1/functional **** 
 158:/home/vdykyy/Install/STM-32/gcc-arm-none-eabi-6-2017-q2-update/arm-none-eabi/include/c++/6.3.1/functional ****   /// Retrieve result type for a volatile member function pointer.
 159:/home/vdykyy/Install/STM-32/gcc-arm-none-eabi-6-2017-q2-update/arm-none-eabi/include/c++/6.3.1/functional ****   template<typename _Res, typename _Class, typename... _ArgTypes>
 160:/home/vdykyy/Install/STM-32/gcc-arm-none-eabi-6-2017-q2-update/arm-none-eabi/include/c++/6.3.1/functional ****     struct _Weak_result_type_impl<_Res (_Class::*)(_ArgTypes...) volatile>
 161:/home/vdykyy/Install/STM-32/gcc-arm-none-eabi-6-2017-q2-update/arm-none-eabi/include/c++/6.3.1/functional ****     { typedef _Res result_type; };
 162:/home/vdykyy/Install/STM-32/gcc-arm-none-eabi-6-2017-q2-update/arm-none-eabi/include/c++/6.3.1/functional **** 
 163:/home/vdykyy/Install/STM-32/gcc-arm-none-eabi-6-2017-q2-update/arm-none-eabi/include/c++/6.3.1/functional ****   template<typename _Res, typename _Class, typename... _ArgTypes>
 164:/home/vdykyy/Install/STM-32/gcc-arm-none-eabi-6-2017-q2-update/arm-none-eabi/include/c++/6.3.1/functional ****     struct _Weak_result_type_impl<_Res (_Class::*)(_ArgTypes......) volatile>
 165:/home/vdykyy/Install/STM-32/gcc-arm-none-eabi-6-2017-q2-update/arm-none-eabi/include/c++/6.3.1/functional ****     { typedef _Res result_type; };
 166:/home/vdykyy/Install/STM-32/gcc-arm-none-eabi-6-2017-q2-update/arm-none-eabi/include/c++/6.3.1/functional **** 
 167:/home/vdykyy/Install/STM-32/gcc-arm-none-eabi-6-2017-q2-update/arm-none-eabi/include/c++/6.3.1/functional ****   /// Retrieve result type for a const volatile member function pointer.
 168:/home/vdykyy/Install/STM-32/gcc-arm-none-eabi-6-2017-q2-update/arm-none-eabi/include/c++/6.3.1/functional ****   template<typename _Res, typename _Class, typename... _ArgTypes>
 169:/home/vdykyy/Install/STM-32/gcc-arm-none-eabi-6-2017-q2-update/arm-none-eabi/include/c++/6.3.1/functional ****     struct _Weak_result_type_impl<_Res (_Class::*)(_ArgTypes...)
 170:/home/vdykyy/Install/STM-32/gcc-arm-none-eabi-6-2017-q2-update/arm-none-eabi/include/c++/6.3.1/functional **** 				  const volatile>
 171:/home/vdykyy/Install/STM-32/gcc-arm-none-eabi-6-2017-q2-update/arm-none-eabi/include/c++/6.3.1/functional ****     { typedef _Res result_type; };
 172:/home/vdykyy/Install/STM-32/gcc-arm-none-eabi-6-2017-q2-update/arm-none-eabi/include/c++/6.3.1/functional **** 
 173:/home/vdykyy/Install/STM-32/gcc-arm-none-eabi-6-2017-q2-update/arm-none-eabi/include/c++/6.3.1/functional ****   template<typename _Res, typename _Class, typename... _ArgTypes>
 174:/home/vdykyy/Install/STM-32/gcc-arm-none-eabi-6-2017-q2-update/arm-none-eabi/include/c++/6.3.1/functional ****     struct _Weak_result_type_impl<_Res (_Class::*)(_ArgTypes......)
 175:/home/vdykyy/Install/STM-32/gcc-arm-none-eabi-6-2017-q2-update/arm-none-eabi/include/c++/6.3.1/functional **** 				  const volatile>
 176:/home/vdykyy/Install/STM-32/gcc-arm-none-eabi-6-2017-q2-update/arm-none-eabi/include/c++/6.3.1/functional ****     { typedef _Res result_type; };
 177:/home/vdykyy/Install/STM-32/gcc-arm-none-eabi-6-2017-q2-update/arm-none-eabi/include/c++/6.3.1/functional **** 
 178:/home/vdykyy/Install/STM-32/gcc-arm-none-eabi-6-2017-q2-update/arm-none-eabi/include/c++/6.3.1/functional ****   /**
ARM GAS  /tmp/cch7CLaJ.s 			page 5


 179:/home/vdykyy/Install/STM-32/gcc-arm-none-eabi-6-2017-q2-update/arm-none-eabi/include/c++/6.3.1/functional ****    *  Strip top-level cv-qualifiers from the function object and let
 180:/home/vdykyy/Install/STM-32/gcc-arm-none-eabi-6-2017-q2-update/arm-none-eabi/include/c++/6.3.1/functional ****    *  _Weak_result_type_impl perform the real work.
 181:/home/vdykyy/Install/STM-32/gcc-arm-none-eabi-6-2017-q2-update/arm-none-eabi/include/c++/6.3.1/functional ****   */
 182:/home/vdykyy/Install/STM-32/gcc-arm-none-eabi-6-2017-q2-update/arm-none-eabi/include/c++/6.3.1/functional ****   template<typename _Functor>
 183:/home/vdykyy/Install/STM-32/gcc-arm-none-eabi-6-2017-q2-update/arm-none-eabi/include/c++/6.3.1/functional ****     struct _Weak_result_type
 184:/home/vdykyy/Install/STM-32/gcc-arm-none-eabi-6-2017-q2-update/arm-none-eabi/include/c++/6.3.1/functional ****     : _Weak_result_type_impl<typename remove_cv<_Functor>::type>
 185:/home/vdykyy/Install/STM-32/gcc-arm-none-eabi-6-2017-q2-update/arm-none-eabi/include/c++/6.3.1/functional ****     { };
 186:/home/vdykyy/Install/STM-32/gcc-arm-none-eabi-6-2017-q2-update/arm-none-eabi/include/c++/6.3.1/functional **** 
 187:/home/vdykyy/Install/STM-32/gcc-arm-none-eabi-6-2017-q2-update/arm-none-eabi/include/c++/6.3.1/functional ****   template<typename _Tp, typename _Up = typename decay<_Tp>::type>
 188:/home/vdykyy/Install/STM-32/gcc-arm-none-eabi-6-2017-q2-update/arm-none-eabi/include/c++/6.3.1/functional ****     struct __inv_unwrap
 189:/home/vdykyy/Install/STM-32/gcc-arm-none-eabi-6-2017-q2-update/arm-none-eabi/include/c++/6.3.1/functional ****     {
 190:/home/vdykyy/Install/STM-32/gcc-arm-none-eabi-6-2017-q2-update/arm-none-eabi/include/c++/6.3.1/functional ****       using type = _Tp;
 191:/home/vdykyy/Install/STM-32/gcc-arm-none-eabi-6-2017-q2-update/arm-none-eabi/include/c++/6.3.1/functional ****     };
 192:/home/vdykyy/Install/STM-32/gcc-arm-none-eabi-6-2017-q2-update/arm-none-eabi/include/c++/6.3.1/functional **** 
 193:/home/vdykyy/Install/STM-32/gcc-arm-none-eabi-6-2017-q2-update/arm-none-eabi/include/c++/6.3.1/functional ****   template<typename _Tp, typename _Up>
 194:/home/vdykyy/Install/STM-32/gcc-arm-none-eabi-6-2017-q2-update/arm-none-eabi/include/c++/6.3.1/functional ****     struct __inv_unwrap<_Tp, reference_wrapper<_Up>>
 195:/home/vdykyy/Install/STM-32/gcc-arm-none-eabi-6-2017-q2-update/arm-none-eabi/include/c++/6.3.1/functional ****     {
 196:/home/vdykyy/Install/STM-32/gcc-arm-none-eabi-6-2017-q2-update/arm-none-eabi/include/c++/6.3.1/functional ****       using type = _Up&;
 197:/home/vdykyy/Install/STM-32/gcc-arm-none-eabi-6-2017-q2-update/arm-none-eabi/include/c++/6.3.1/functional ****     };
 198:/home/vdykyy/Install/STM-32/gcc-arm-none-eabi-6-2017-q2-update/arm-none-eabi/include/c++/6.3.1/functional **** 
 199:/home/vdykyy/Install/STM-32/gcc-arm-none-eabi-6-2017-q2-update/arm-none-eabi/include/c++/6.3.1/functional ****   // Used by __invoke_impl instead of std::forward<_Tp> so that a
 200:/home/vdykyy/Install/STM-32/gcc-arm-none-eabi-6-2017-q2-update/arm-none-eabi/include/c++/6.3.1/functional ****   // reference_wrapper is converted to an lvalue-reference.
 201:/home/vdykyy/Install/STM-32/gcc-arm-none-eabi-6-2017-q2-update/arm-none-eabi/include/c++/6.3.1/functional ****   template<typename _Tp, typename _Up = typename __inv_unwrap<_Tp>::type>
 202:/home/vdykyy/Install/STM-32/gcc-arm-none-eabi-6-2017-q2-update/arm-none-eabi/include/c++/6.3.1/functional ****     inline _Up&&
 203:/home/vdykyy/Install/STM-32/gcc-arm-none-eabi-6-2017-q2-update/arm-none-eabi/include/c++/6.3.1/functional ****     __invfwd(typename remove_reference<_Tp>::type& __t) noexcept
 204:/home/vdykyy/Install/STM-32/gcc-arm-none-eabi-6-2017-q2-update/arm-none-eabi/include/c++/6.3.1/functional ****     { return static_cast<_Up&&>(__t); }
 205:/home/vdykyy/Install/STM-32/gcc-arm-none-eabi-6-2017-q2-update/arm-none-eabi/include/c++/6.3.1/functional **** 
 206:/home/vdykyy/Install/STM-32/gcc-arm-none-eabi-6-2017-q2-update/arm-none-eabi/include/c++/6.3.1/functional ****   template<typename _Res, typename _Fn, typename... _Args>
 207:/home/vdykyy/Install/STM-32/gcc-arm-none-eabi-6-2017-q2-update/arm-none-eabi/include/c++/6.3.1/functional ****     inline _Res
 208:/home/vdykyy/Install/STM-32/gcc-arm-none-eabi-6-2017-q2-update/arm-none-eabi/include/c++/6.3.1/functional ****     __invoke_impl(__invoke_other, _Fn&& __f, _Args&&... __args)
 209:/home/vdykyy/Install/STM-32/gcc-arm-none-eabi-6-2017-q2-update/arm-none-eabi/include/c++/6.3.1/functional ****     noexcept(noexcept(std::forward<_Fn>(__f)(std::forward<_Args>(__args)...)))
 210:/home/vdykyy/Install/STM-32/gcc-arm-none-eabi-6-2017-q2-update/arm-none-eabi/include/c++/6.3.1/functional ****     { return std::forward<_Fn>(__f)(std::forward<_Args>(__args)...); }
 211:/home/vdykyy/Install/STM-32/gcc-arm-none-eabi-6-2017-q2-update/arm-none-eabi/include/c++/6.3.1/functional **** 
 212:/home/vdykyy/Install/STM-32/gcc-arm-none-eabi-6-2017-q2-update/arm-none-eabi/include/c++/6.3.1/functional ****   template<typename _Res, typename _MemFun, typename _Tp, typename... _Args>
 213:/home/vdykyy/Install/STM-32/gcc-arm-none-eabi-6-2017-q2-update/arm-none-eabi/include/c++/6.3.1/functional ****     inline _Res
 214:/home/vdykyy/Install/STM-32/gcc-arm-none-eabi-6-2017-q2-update/arm-none-eabi/include/c++/6.3.1/functional ****     __invoke_impl(__invoke_memfun_ref, _MemFun&& __f, _Tp&& __t,
 215:/home/vdykyy/Install/STM-32/gcc-arm-none-eabi-6-2017-q2-update/arm-none-eabi/include/c++/6.3.1/functional **** 		  _Args&&... __args)
 216:/home/vdykyy/Install/STM-32/gcc-arm-none-eabi-6-2017-q2-update/arm-none-eabi/include/c++/6.3.1/functional ****     noexcept(noexcept(
 217:/home/vdykyy/Install/STM-32/gcc-arm-none-eabi-6-2017-q2-update/arm-none-eabi/include/c++/6.3.1/functional **** 	  (__invfwd<_Tp>(__t).*__f)(std::forward<_Args>(__args)...)))
 218:/home/vdykyy/Install/STM-32/gcc-arm-none-eabi-6-2017-q2-update/arm-none-eabi/include/c++/6.3.1/functional ****     { return (__invfwd<_Tp>(__t).*__f)(std::forward<_Args>(__args)...); }
 219:/home/vdykyy/Install/STM-32/gcc-arm-none-eabi-6-2017-q2-update/arm-none-eabi/include/c++/6.3.1/functional **** 
 220:/home/vdykyy/Install/STM-32/gcc-arm-none-eabi-6-2017-q2-update/arm-none-eabi/include/c++/6.3.1/functional ****   template<typename _Res, typename _MemFun, typename _Tp, typename... _Args>
 221:/home/vdykyy/Install/STM-32/gcc-arm-none-eabi-6-2017-q2-update/arm-none-eabi/include/c++/6.3.1/functional ****     inline _Res
 222:/home/vdykyy/Install/STM-32/gcc-arm-none-eabi-6-2017-q2-update/arm-none-eabi/include/c++/6.3.1/functional ****     __invoke_impl(__invoke_memfun_deref, _MemFun&& __f, _Tp&& __t,
 223:/home/vdykyy/Install/STM-32/gcc-arm-none-eabi-6-2017-q2-update/arm-none-eabi/include/c++/6.3.1/functional **** 		  _Args&&... __args)
 224:/home/vdykyy/Install/STM-32/gcc-arm-none-eabi-6-2017-q2-update/arm-none-eabi/include/c++/6.3.1/functional ****     noexcept(noexcept(
 225:/home/vdykyy/Install/STM-32/gcc-arm-none-eabi-6-2017-q2-update/arm-none-eabi/include/c++/6.3.1/functional **** 	  ((*std::forward<_Tp>(__t)).*__f)(std::forward<_Args>(__args)...)))
 226:/home/vdykyy/Install/STM-32/gcc-arm-none-eabi-6-2017-q2-update/arm-none-eabi/include/c++/6.3.1/functional ****     {
 227:/home/vdykyy/Install/STM-32/gcc-arm-none-eabi-6-2017-q2-update/arm-none-eabi/include/c++/6.3.1/functional ****       return ((*std::forward<_Tp>(__t)).*__f)(std::forward<_Args>(__args)...);
 228:/home/vdykyy/Install/STM-32/gcc-arm-none-eabi-6-2017-q2-update/arm-none-eabi/include/c++/6.3.1/functional ****     }
 229:/home/vdykyy/Install/STM-32/gcc-arm-none-eabi-6-2017-q2-update/arm-none-eabi/include/c++/6.3.1/functional **** 
 230:/home/vdykyy/Install/STM-32/gcc-arm-none-eabi-6-2017-q2-update/arm-none-eabi/include/c++/6.3.1/functional ****   template<typename _Res, typename _MemPtr, typename _Tp>
 231:/home/vdykyy/Install/STM-32/gcc-arm-none-eabi-6-2017-q2-update/arm-none-eabi/include/c++/6.3.1/functional ****     inline _Res
 232:/home/vdykyy/Install/STM-32/gcc-arm-none-eabi-6-2017-q2-update/arm-none-eabi/include/c++/6.3.1/functional ****     __invoke_impl(__invoke_memobj_ref, _MemPtr&& __f, _Tp&& __t)
 233:/home/vdykyy/Install/STM-32/gcc-arm-none-eabi-6-2017-q2-update/arm-none-eabi/include/c++/6.3.1/functional ****     noexcept(noexcept(__invfwd<_Tp>(__t).*__f))
 234:/home/vdykyy/Install/STM-32/gcc-arm-none-eabi-6-2017-q2-update/arm-none-eabi/include/c++/6.3.1/functional ****     { return __invfwd<_Tp>(__t).*__f; }
 235:/home/vdykyy/Install/STM-32/gcc-arm-none-eabi-6-2017-q2-update/arm-none-eabi/include/c++/6.3.1/functional **** 
ARM GAS  /tmp/cch7CLaJ.s 			page 6


 236:/home/vdykyy/Install/STM-32/gcc-arm-none-eabi-6-2017-q2-update/arm-none-eabi/include/c++/6.3.1/functional ****   template<typename _Res, typename _MemPtr, typename _Tp>
 237:/home/vdykyy/Install/STM-32/gcc-arm-none-eabi-6-2017-q2-update/arm-none-eabi/include/c++/6.3.1/functional ****     inline _Res
 238:/home/vdykyy/Install/STM-32/gcc-arm-none-eabi-6-2017-q2-update/arm-none-eabi/include/c++/6.3.1/functional ****     __invoke_impl(__invoke_memobj_deref, _MemPtr&& __f, _Tp&& __t)
 239:/home/vdykyy/Install/STM-32/gcc-arm-none-eabi-6-2017-q2-update/arm-none-eabi/include/c++/6.3.1/functional ****     noexcept(noexcept((*std::forward<_Tp>(__t)).*__f))
 240:/home/vdykyy/Install/STM-32/gcc-arm-none-eabi-6-2017-q2-update/arm-none-eabi/include/c++/6.3.1/functional ****     { return (*std::forward<_Tp>(__t)).*__f; }
 241:/home/vdykyy/Install/STM-32/gcc-arm-none-eabi-6-2017-q2-update/arm-none-eabi/include/c++/6.3.1/functional **** 
 242:/home/vdykyy/Install/STM-32/gcc-arm-none-eabi-6-2017-q2-update/arm-none-eabi/include/c++/6.3.1/functional ****   /// Invoke a callable object.
 243:/home/vdykyy/Install/STM-32/gcc-arm-none-eabi-6-2017-q2-update/arm-none-eabi/include/c++/6.3.1/functional ****   template<typename _Callable, typename... _Args>
 244:/home/vdykyy/Install/STM-32/gcc-arm-none-eabi-6-2017-q2-update/arm-none-eabi/include/c++/6.3.1/functional ****     inline typename result_of<_Callable&&(_Args&&...)>::type
 245:/home/vdykyy/Install/STM-32/gcc-arm-none-eabi-6-2017-q2-update/arm-none-eabi/include/c++/6.3.1/functional ****     __invoke(_Callable&& __fn, _Args&&... __args)
 246:/home/vdykyy/Install/STM-32/gcc-arm-none-eabi-6-2017-q2-update/arm-none-eabi/include/c++/6.3.1/functional ****     {
 247:/home/vdykyy/Install/STM-32/gcc-arm-none-eabi-6-2017-q2-update/arm-none-eabi/include/c++/6.3.1/functional ****       using __result_of = result_of<_Callable&&(_Args&&...)>;
 248:/home/vdykyy/Install/STM-32/gcc-arm-none-eabi-6-2017-q2-update/arm-none-eabi/include/c++/6.3.1/functional ****       using __type = typename __result_of::type;
 249:/home/vdykyy/Install/STM-32/gcc-arm-none-eabi-6-2017-q2-update/arm-none-eabi/include/c++/6.3.1/functional ****       using __tag = typename __result_of::__invoke_type;
 250:/home/vdykyy/Install/STM-32/gcc-arm-none-eabi-6-2017-q2-update/arm-none-eabi/include/c++/6.3.1/functional ****       return std::__invoke_impl<__type>(__tag{}, std::forward<_Callable>(__fn),
 251:/home/vdykyy/Install/STM-32/gcc-arm-none-eabi-6-2017-q2-update/arm-none-eabi/include/c++/6.3.1/functional **** 					std::forward<_Args>(__args)...);
 252:/home/vdykyy/Install/STM-32/gcc-arm-none-eabi-6-2017-q2-update/arm-none-eabi/include/c++/6.3.1/functional ****     }
 253:/home/vdykyy/Install/STM-32/gcc-arm-none-eabi-6-2017-q2-update/arm-none-eabi/include/c++/6.3.1/functional **** 
 254:/home/vdykyy/Install/STM-32/gcc-arm-none-eabi-6-2017-q2-update/arm-none-eabi/include/c++/6.3.1/functional **** #if __cplusplus > 201402L
 255:/home/vdykyy/Install/STM-32/gcc-arm-none-eabi-6-2017-q2-update/arm-none-eabi/include/c++/6.3.1/functional **** # define __cpp_lib_invoke 201411
 256:/home/vdykyy/Install/STM-32/gcc-arm-none-eabi-6-2017-q2-update/arm-none-eabi/include/c++/6.3.1/functional **** 
 257:/home/vdykyy/Install/STM-32/gcc-arm-none-eabi-6-2017-q2-update/arm-none-eabi/include/c++/6.3.1/functional ****   /// Invoke a callable object.
 258:/home/vdykyy/Install/STM-32/gcc-arm-none-eabi-6-2017-q2-update/arm-none-eabi/include/c++/6.3.1/functional ****   template<typename _Callable, typename... _Args>
 259:/home/vdykyy/Install/STM-32/gcc-arm-none-eabi-6-2017-q2-update/arm-none-eabi/include/c++/6.3.1/functional ****     inline result_of_t<_Callable&&(_Args&&...)>
 260:/home/vdykyy/Install/STM-32/gcc-arm-none-eabi-6-2017-q2-update/arm-none-eabi/include/c++/6.3.1/functional ****     invoke(_Callable&& __fn, _Args&&... __args)
 261:/home/vdykyy/Install/STM-32/gcc-arm-none-eabi-6-2017-q2-update/arm-none-eabi/include/c++/6.3.1/functional ****     {
 262:/home/vdykyy/Install/STM-32/gcc-arm-none-eabi-6-2017-q2-update/arm-none-eabi/include/c++/6.3.1/functional ****       return std::__invoke(std::forward<_Callable>(__fn),
 263:/home/vdykyy/Install/STM-32/gcc-arm-none-eabi-6-2017-q2-update/arm-none-eabi/include/c++/6.3.1/functional **** 			   std::forward<_Args>(__args)...);
 264:/home/vdykyy/Install/STM-32/gcc-arm-none-eabi-6-2017-q2-update/arm-none-eabi/include/c++/6.3.1/functional ****     }
 265:/home/vdykyy/Install/STM-32/gcc-arm-none-eabi-6-2017-q2-update/arm-none-eabi/include/c++/6.3.1/functional **** #endif
 266:/home/vdykyy/Install/STM-32/gcc-arm-none-eabi-6-2017-q2-update/arm-none-eabi/include/c++/6.3.1/functional **** 
 267:/home/vdykyy/Install/STM-32/gcc-arm-none-eabi-6-2017-q2-update/arm-none-eabi/include/c++/6.3.1/functional ****   /**
 268:/home/vdykyy/Install/STM-32/gcc-arm-none-eabi-6-2017-q2-update/arm-none-eabi/include/c++/6.3.1/functional ****    *  Knowing which of unary_function and binary_function _Tp derives
 269:/home/vdykyy/Install/STM-32/gcc-arm-none-eabi-6-2017-q2-update/arm-none-eabi/include/c++/6.3.1/functional ****    *  from, derives from the same and ensures that reference_wrapper
 270:/home/vdykyy/Install/STM-32/gcc-arm-none-eabi-6-2017-q2-update/arm-none-eabi/include/c++/6.3.1/functional ****    *  will have a weak result type. See cases below.
 271:/home/vdykyy/Install/STM-32/gcc-arm-none-eabi-6-2017-q2-update/arm-none-eabi/include/c++/6.3.1/functional ****    */
 272:/home/vdykyy/Install/STM-32/gcc-arm-none-eabi-6-2017-q2-update/arm-none-eabi/include/c++/6.3.1/functional ****   template<bool _Unary, bool _Binary, typename _Tp>
 273:/home/vdykyy/Install/STM-32/gcc-arm-none-eabi-6-2017-q2-update/arm-none-eabi/include/c++/6.3.1/functional ****     struct _Reference_wrapper_base_impl;
 274:/home/vdykyy/Install/STM-32/gcc-arm-none-eabi-6-2017-q2-update/arm-none-eabi/include/c++/6.3.1/functional **** 
 275:/home/vdykyy/Install/STM-32/gcc-arm-none-eabi-6-2017-q2-update/arm-none-eabi/include/c++/6.3.1/functional ****   // None of the nested argument types.
 276:/home/vdykyy/Install/STM-32/gcc-arm-none-eabi-6-2017-q2-update/arm-none-eabi/include/c++/6.3.1/functional ****   template<typename _Tp>
 277:/home/vdykyy/Install/STM-32/gcc-arm-none-eabi-6-2017-q2-update/arm-none-eabi/include/c++/6.3.1/functional ****     struct _Reference_wrapper_base_impl<false, false, _Tp>
 278:/home/vdykyy/Install/STM-32/gcc-arm-none-eabi-6-2017-q2-update/arm-none-eabi/include/c++/6.3.1/functional ****     : _Weak_result_type<_Tp>
 279:/home/vdykyy/Install/STM-32/gcc-arm-none-eabi-6-2017-q2-update/arm-none-eabi/include/c++/6.3.1/functional ****     { };
 280:/home/vdykyy/Install/STM-32/gcc-arm-none-eabi-6-2017-q2-update/arm-none-eabi/include/c++/6.3.1/functional **** 
 281:/home/vdykyy/Install/STM-32/gcc-arm-none-eabi-6-2017-q2-update/arm-none-eabi/include/c++/6.3.1/functional ****   // Nested argument_type only.
 282:/home/vdykyy/Install/STM-32/gcc-arm-none-eabi-6-2017-q2-update/arm-none-eabi/include/c++/6.3.1/functional ****   template<typename _Tp>
 283:/home/vdykyy/Install/STM-32/gcc-arm-none-eabi-6-2017-q2-update/arm-none-eabi/include/c++/6.3.1/functional ****     struct _Reference_wrapper_base_impl<true, false, _Tp>
 284:/home/vdykyy/Install/STM-32/gcc-arm-none-eabi-6-2017-q2-update/arm-none-eabi/include/c++/6.3.1/functional ****     : _Weak_result_type<_Tp>
 285:/home/vdykyy/Install/STM-32/gcc-arm-none-eabi-6-2017-q2-update/arm-none-eabi/include/c++/6.3.1/functional ****     {
 286:/home/vdykyy/Install/STM-32/gcc-arm-none-eabi-6-2017-q2-update/arm-none-eabi/include/c++/6.3.1/functional ****       typedef typename _Tp::argument_type argument_type;
 287:/home/vdykyy/Install/STM-32/gcc-arm-none-eabi-6-2017-q2-update/arm-none-eabi/include/c++/6.3.1/functional ****     };
 288:/home/vdykyy/Install/STM-32/gcc-arm-none-eabi-6-2017-q2-update/arm-none-eabi/include/c++/6.3.1/functional **** 
 289:/home/vdykyy/Install/STM-32/gcc-arm-none-eabi-6-2017-q2-update/arm-none-eabi/include/c++/6.3.1/functional ****   // Nested first_argument_type and second_argument_type only.
 290:/home/vdykyy/Install/STM-32/gcc-arm-none-eabi-6-2017-q2-update/arm-none-eabi/include/c++/6.3.1/functional ****   template<typename _Tp>
 291:/home/vdykyy/Install/STM-32/gcc-arm-none-eabi-6-2017-q2-update/arm-none-eabi/include/c++/6.3.1/functional ****     struct _Reference_wrapper_base_impl<false, true, _Tp>
 292:/home/vdykyy/Install/STM-32/gcc-arm-none-eabi-6-2017-q2-update/arm-none-eabi/include/c++/6.3.1/functional ****     : _Weak_result_type<_Tp>
ARM GAS  /tmp/cch7CLaJ.s 			page 7


 293:/home/vdykyy/Install/STM-32/gcc-arm-none-eabi-6-2017-q2-update/arm-none-eabi/include/c++/6.3.1/functional ****     {
 294:/home/vdykyy/Install/STM-32/gcc-arm-none-eabi-6-2017-q2-update/arm-none-eabi/include/c++/6.3.1/functional ****       typedef typename _Tp::first_argument_type first_argument_type;
 295:/home/vdykyy/Install/STM-32/gcc-arm-none-eabi-6-2017-q2-update/arm-none-eabi/include/c++/6.3.1/functional ****       typedef typename _Tp::second_argument_type second_argument_type;
 296:/home/vdykyy/Install/STM-32/gcc-arm-none-eabi-6-2017-q2-update/arm-none-eabi/include/c++/6.3.1/functional ****     };
 297:/home/vdykyy/Install/STM-32/gcc-arm-none-eabi-6-2017-q2-update/arm-none-eabi/include/c++/6.3.1/functional **** 
 298:/home/vdykyy/Install/STM-32/gcc-arm-none-eabi-6-2017-q2-update/arm-none-eabi/include/c++/6.3.1/functional ****   // All the nested argument types.
 299:/home/vdykyy/Install/STM-32/gcc-arm-none-eabi-6-2017-q2-update/arm-none-eabi/include/c++/6.3.1/functional ****    template<typename _Tp>
 300:/home/vdykyy/Install/STM-32/gcc-arm-none-eabi-6-2017-q2-update/arm-none-eabi/include/c++/6.3.1/functional ****     struct _Reference_wrapper_base_impl<true, true, _Tp>
 301:/home/vdykyy/Install/STM-32/gcc-arm-none-eabi-6-2017-q2-update/arm-none-eabi/include/c++/6.3.1/functional ****     : _Weak_result_type<_Tp>
 302:/home/vdykyy/Install/STM-32/gcc-arm-none-eabi-6-2017-q2-update/arm-none-eabi/include/c++/6.3.1/functional ****     {
 303:/home/vdykyy/Install/STM-32/gcc-arm-none-eabi-6-2017-q2-update/arm-none-eabi/include/c++/6.3.1/functional ****       typedef typename _Tp::argument_type argument_type;
 304:/home/vdykyy/Install/STM-32/gcc-arm-none-eabi-6-2017-q2-update/arm-none-eabi/include/c++/6.3.1/functional ****       typedef typename _Tp::first_argument_type first_argument_type;
 305:/home/vdykyy/Install/STM-32/gcc-arm-none-eabi-6-2017-q2-update/arm-none-eabi/include/c++/6.3.1/functional ****       typedef typename _Tp::second_argument_type second_argument_type;
 306:/home/vdykyy/Install/STM-32/gcc-arm-none-eabi-6-2017-q2-update/arm-none-eabi/include/c++/6.3.1/functional ****     };
 307:/home/vdykyy/Install/STM-32/gcc-arm-none-eabi-6-2017-q2-update/arm-none-eabi/include/c++/6.3.1/functional **** 
 308:/home/vdykyy/Install/STM-32/gcc-arm-none-eabi-6-2017-q2-update/arm-none-eabi/include/c++/6.3.1/functional ****   _GLIBCXX_HAS_NESTED_TYPE(argument_type)
 309:/home/vdykyy/Install/STM-32/gcc-arm-none-eabi-6-2017-q2-update/arm-none-eabi/include/c++/6.3.1/functional ****   _GLIBCXX_HAS_NESTED_TYPE(first_argument_type)
 310:/home/vdykyy/Install/STM-32/gcc-arm-none-eabi-6-2017-q2-update/arm-none-eabi/include/c++/6.3.1/functional ****   _GLIBCXX_HAS_NESTED_TYPE(second_argument_type)
 311:/home/vdykyy/Install/STM-32/gcc-arm-none-eabi-6-2017-q2-update/arm-none-eabi/include/c++/6.3.1/functional **** 
 312:/home/vdykyy/Install/STM-32/gcc-arm-none-eabi-6-2017-q2-update/arm-none-eabi/include/c++/6.3.1/functional ****   /**
 313:/home/vdykyy/Install/STM-32/gcc-arm-none-eabi-6-2017-q2-update/arm-none-eabi/include/c++/6.3.1/functional ****    *  Derives from unary_function or binary_function when it
 314:/home/vdykyy/Install/STM-32/gcc-arm-none-eabi-6-2017-q2-update/arm-none-eabi/include/c++/6.3.1/functional ****    *  can. Specializations handle all of the easy cases. The primary
 315:/home/vdykyy/Install/STM-32/gcc-arm-none-eabi-6-2017-q2-update/arm-none-eabi/include/c++/6.3.1/functional ****    *  template determines what to do with a class type, which may
 316:/home/vdykyy/Install/STM-32/gcc-arm-none-eabi-6-2017-q2-update/arm-none-eabi/include/c++/6.3.1/functional ****    *  derive from both unary_function and binary_function.
 317:/home/vdykyy/Install/STM-32/gcc-arm-none-eabi-6-2017-q2-update/arm-none-eabi/include/c++/6.3.1/functional ****   */
 318:/home/vdykyy/Install/STM-32/gcc-arm-none-eabi-6-2017-q2-update/arm-none-eabi/include/c++/6.3.1/functional ****   template<typename _Tp>
 319:/home/vdykyy/Install/STM-32/gcc-arm-none-eabi-6-2017-q2-update/arm-none-eabi/include/c++/6.3.1/functional ****     struct _Reference_wrapper_base
 320:/home/vdykyy/Install/STM-32/gcc-arm-none-eabi-6-2017-q2-update/arm-none-eabi/include/c++/6.3.1/functional ****     : _Reference_wrapper_base_impl<
 321:/home/vdykyy/Install/STM-32/gcc-arm-none-eabi-6-2017-q2-update/arm-none-eabi/include/c++/6.3.1/functional ****       __has_argument_type<_Tp>::value,
 322:/home/vdykyy/Install/STM-32/gcc-arm-none-eabi-6-2017-q2-update/arm-none-eabi/include/c++/6.3.1/functional ****       __has_first_argument_type<_Tp>::value
 323:/home/vdykyy/Install/STM-32/gcc-arm-none-eabi-6-2017-q2-update/arm-none-eabi/include/c++/6.3.1/functional ****       && __has_second_argument_type<_Tp>::value,
 324:/home/vdykyy/Install/STM-32/gcc-arm-none-eabi-6-2017-q2-update/arm-none-eabi/include/c++/6.3.1/functional ****       _Tp>
 325:/home/vdykyy/Install/STM-32/gcc-arm-none-eabi-6-2017-q2-update/arm-none-eabi/include/c++/6.3.1/functional ****     { };
 326:/home/vdykyy/Install/STM-32/gcc-arm-none-eabi-6-2017-q2-update/arm-none-eabi/include/c++/6.3.1/functional **** 
 327:/home/vdykyy/Install/STM-32/gcc-arm-none-eabi-6-2017-q2-update/arm-none-eabi/include/c++/6.3.1/functional ****   // - a function type (unary)
 328:/home/vdykyy/Install/STM-32/gcc-arm-none-eabi-6-2017-q2-update/arm-none-eabi/include/c++/6.3.1/functional ****   template<typename _Res, typename _T1>
 329:/home/vdykyy/Install/STM-32/gcc-arm-none-eabi-6-2017-q2-update/arm-none-eabi/include/c++/6.3.1/functional ****     struct _Reference_wrapper_base<_Res(_T1)>
 330:/home/vdykyy/Install/STM-32/gcc-arm-none-eabi-6-2017-q2-update/arm-none-eabi/include/c++/6.3.1/functional ****     : unary_function<_T1, _Res>
 331:/home/vdykyy/Install/STM-32/gcc-arm-none-eabi-6-2017-q2-update/arm-none-eabi/include/c++/6.3.1/functional ****     { };
 332:/home/vdykyy/Install/STM-32/gcc-arm-none-eabi-6-2017-q2-update/arm-none-eabi/include/c++/6.3.1/functional **** 
 333:/home/vdykyy/Install/STM-32/gcc-arm-none-eabi-6-2017-q2-update/arm-none-eabi/include/c++/6.3.1/functional ****   template<typename _Res, typename _T1>
 334:/home/vdykyy/Install/STM-32/gcc-arm-none-eabi-6-2017-q2-update/arm-none-eabi/include/c++/6.3.1/functional ****     struct _Reference_wrapper_base<_Res(_T1) const>
 335:/home/vdykyy/Install/STM-32/gcc-arm-none-eabi-6-2017-q2-update/arm-none-eabi/include/c++/6.3.1/functional ****     : unary_function<_T1, _Res>
 336:/home/vdykyy/Install/STM-32/gcc-arm-none-eabi-6-2017-q2-update/arm-none-eabi/include/c++/6.3.1/functional ****     { };
 337:/home/vdykyy/Install/STM-32/gcc-arm-none-eabi-6-2017-q2-update/arm-none-eabi/include/c++/6.3.1/functional **** 
 338:/home/vdykyy/Install/STM-32/gcc-arm-none-eabi-6-2017-q2-update/arm-none-eabi/include/c++/6.3.1/functional ****   template<typename _Res, typename _T1>
 339:/home/vdykyy/Install/STM-32/gcc-arm-none-eabi-6-2017-q2-update/arm-none-eabi/include/c++/6.3.1/functional ****     struct _Reference_wrapper_base<_Res(_T1) volatile>
 340:/home/vdykyy/Install/STM-32/gcc-arm-none-eabi-6-2017-q2-update/arm-none-eabi/include/c++/6.3.1/functional ****     : unary_function<_T1, _Res>
 341:/home/vdykyy/Install/STM-32/gcc-arm-none-eabi-6-2017-q2-update/arm-none-eabi/include/c++/6.3.1/functional ****     { };
 342:/home/vdykyy/Install/STM-32/gcc-arm-none-eabi-6-2017-q2-update/arm-none-eabi/include/c++/6.3.1/functional **** 
 343:/home/vdykyy/Install/STM-32/gcc-arm-none-eabi-6-2017-q2-update/arm-none-eabi/include/c++/6.3.1/functional ****   template<typename _Res, typename _T1>
 344:/home/vdykyy/Install/STM-32/gcc-arm-none-eabi-6-2017-q2-update/arm-none-eabi/include/c++/6.3.1/functional ****     struct _Reference_wrapper_base<_Res(_T1) const volatile>
 345:/home/vdykyy/Install/STM-32/gcc-arm-none-eabi-6-2017-q2-update/arm-none-eabi/include/c++/6.3.1/functional ****     : unary_function<_T1, _Res>
 346:/home/vdykyy/Install/STM-32/gcc-arm-none-eabi-6-2017-q2-update/arm-none-eabi/include/c++/6.3.1/functional ****     { };
 347:/home/vdykyy/Install/STM-32/gcc-arm-none-eabi-6-2017-q2-update/arm-none-eabi/include/c++/6.3.1/functional **** 
 348:/home/vdykyy/Install/STM-32/gcc-arm-none-eabi-6-2017-q2-update/arm-none-eabi/include/c++/6.3.1/functional ****   // - a function type (binary)
 349:/home/vdykyy/Install/STM-32/gcc-arm-none-eabi-6-2017-q2-update/arm-none-eabi/include/c++/6.3.1/functional ****   template<typename _Res, typename _T1, typename _T2>
ARM GAS  /tmp/cch7CLaJ.s 			page 8


 350:/home/vdykyy/Install/STM-32/gcc-arm-none-eabi-6-2017-q2-update/arm-none-eabi/include/c++/6.3.1/functional ****     struct _Reference_wrapper_base<_Res(_T1, _T2)>
 351:/home/vdykyy/Install/STM-32/gcc-arm-none-eabi-6-2017-q2-update/arm-none-eabi/include/c++/6.3.1/functional ****     : binary_function<_T1, _T2, _Res>
 352:/home/vdykyy/Install/STM-32/gcc-arm-none-eabi-6-2017-q2-update/arm-none-eabi/include/c++/6.3.1/functional ****     { };
 353:/home/vdykyy/Install/STM-32/gcc-arm-none-eabi-6-2017-q2-update/arm-none-eabi/include/c++/6.3.1/functional **** 
 354:/home/vdykyy/Install/STM-32/gcc-arm-none-eabi-6-2017-q2-update/arm-none-eabi/include/c++/6.3.1/functional ****   template<typename _Res, typename _T1, typename _T2>
 355:/home/vdykyy/Install/STM-32/gcc-arm-none-eabi-6-2017-q2-update/arm-none-eabi/include/c++/6.3.1/functional ****     struct _Reference_wrapper_base<_Res(_T1, _T2) const>
 356:/home/vdykyy/Install/STM-32/gcc-arm-none-eabi-6-2017-q2-update/arm-none-eabi/include/c++/6.3.1/functional ****     : binary_function<_T1, _T2, _Res>
 357:/home/vdykyy/Install/STM-32/gcc-arm-none-eabi-6-2017-q2-update/arm-none-eabi/include/c++/6.3.1/functional ****     { };
 358:/home/vdykyy/Install/STM-32/gcc-arm-none-eabi-6-2017-q2-update/arm-none-eabi/include/c++/6.3.1/functional **** 
 359:/home/vdykyy/Install/STM-32/gcc-arm-none-eabi-6-2017-q2-update/arm-none-eabi/include/c++/6.3.1/functional ****   template<typename _Res, typename _T1, typename _T2>
 360:/home/vdykyy/Install/STM-32/gcc-arm-none-eabi-6-2017-q2-update/arm-none-eabi/include/c++/6.3.1/functional ****     struct _Reference_wrapper_base<_Res(_T1, _T2) volatile>
 361:/home/vdykyy/Install/STM-32/gcc-arm-none-eabi-6-2017-q2-update/arm-none-eabi/include/c++/6.3.1/functional ****     : binary_function<_T1, _T2, _Res>
 362:/home/vdykyy/Install/STM-32/gcc-arm-none-eabi-6-2017-q2-update/arm-none-eabi/include/c++/6.3.1/functional ****     { };
 363:/home/vdykyy/Install/STM-32/gcc-arm-none-eabi-6-2017-q2-update/arm-none-eabi/include/c++/6.3.1/functional **** 
 364:/home/vdykyy/Install/STM-32/gcc-arm-none-eabi-6-2017-q2-update/arm-none-eabi/include/c++/6.3.1/functional ****   template<typename _Res, typename _T1, typename _T2>
 365:/home/vdykyy/Install/STM-32/gcc-arm-none-eabi-6-2017-q2-update/arm-none-eabi/include/c++/6.3.1/functional ****     struct _Reference_wrapper_base<_Res(_T1, _T2) const volatile>
 366:/home/vdykyy/Install/STM-32/gcc-arm-none-eabi-6-2017-q2-update/arm-none-eabi/include/c++/6.3.1/functional ****     : binary_function<_T1, _T2, _Res>
 367:/home/vdykyy/Install/STM-32/gcc-arm-none-eabi-6-2017-q2-update/arm-none-eabi/include/c++/6.3.1/functional ****     { };
 368:/home/vdykyy/Install/STM-32/gcc-arm-none-eabi-6-2017-q2-update/arm-none-eabi/include/c++/6.3.1/functional **** 
 369:/home/vdykyy/Install/STM-32/gcc-arm-none-eabi-6-2017-q2-update/arm-none-eabi/include/c++/6.3.1/functional ****   // - a function pointer type (unary)
 370:/home/vdykyy/Install/STM-32/gcc-arm-none-eabi-6-2017-q2-update/arm-none-eabi/include/c++/6.3.1/functional ****   template<typename _Res, typename _T1>
 371:/home/vdykyy/Install/STM-32/gcc-arm-none-eabi-6-2017-q2-update/arm-none-eabi/include/c++/6.3.1/functional ****     struct _Reference_wrapper_base<_Res(*)(_T1)>
 372:/home/vdykyy/Install/STM-32/gcc-arm-none-eabi-6-2017-q2-update/arm-none-eabi/include/c++/6.3.1/functional ****     : unary_function<_T1, _Res>
 373:/home/vdykyy/Install/STM-32/gcc-arm-none-eabi-6-2017-q2-update/arm-none-eabi/include/c++/6.3.1/functional ****     { };
 374:/home/vdykyy/Install/STM-32/gcc-arm-none-eabi-6-2017-q2-update/arm-none-eabi/include/c++/6.3.1/functional **** 
 375:/home/vdykyy/Install/STM-32/gcc-arm-none-eabi-6-2017-q2-update/arm-none-eabi/include/c++/6.3.1/functional ****   // - a function pointer type (binary)
 376:/home/vdykyy/Install/STM-32/gcc-arm-none-eabi-6-2017-q2-update/arm-none-eabi/include/c++/6.3.1/functional ****   template<typename _Res, typename _T1, typename _T2>
 377:/home/vdykyy/Install/STM-32/gcc-arm-none-eabi-6-2017-q2-update/arm-none-eabi/include/c++/6.3.1/functional ****     struct _Reference_wrapper_base<_Res(*)(_T1, _T2)>
 378:/home/vdykyy/Install/STM-32/gcc-arm-none-eabi-6-2017-q2-update/arm-none-eabi/include/c++/6.3.1/functional ****     : binary_function<_T1, _T2, _Res>
 379:/home/vdykyy/Install/STM-32/gcc-arm-none-eabi-6-2017-q2-update/arm-none-eabi/include/c++/6.3.1/functional ****     { };
 380:/home/vdykyy/Install/STM-32/gcc-arm-none-eabi-6-2017-q2-update/arm-none-eabi/include/c++/6.3.1/functional **** 
 381:/home/vdykyy/Install/STM-32/gcc-arm-none-eabi-6-2017-q2-update/arm-none-eabi/include/c++/6.3.1/functional ****   // - a pointer to member function type (unary, no qualifiers)
 382:/home/vdykyy/Install/STM-32/gcc-arm-none-eabi-6-2017-q2-update/arm-none-eabi/include/c++/6.3.1/functional ****   template<typename _Res, typename _T1>
 383:/home/vdykyy/Install/STM-32/gcc-arm-none-eabi-6-2017-q2-update/arm-none-eabi/include/c++/6.3.1/functional ****     struct _Reference_wrapper_base<_Res (_T1::*)()>
 384:/home/vdykyy/Install/STM-32/gcc-arm-none-eabi-6-2017-q2-update/arm-none-eabi/include/c++/6.3.1/functional ****     : unary_function<_T1*, _Res>
 385:/home/vdykyy/Install/STM-32/gcc-arm-none-eabi-6-2017-q2-update/arm-none-eabi/include/c++/6.3.1/functional ****     { };
 386:/home/vdykyy/Install/STM-32/gcc-arm-none-eabi-6-2017-q2-update/arm-none-eabi/include/c++/6.3.1/functional **** 
 387:/home/vdykyy/Install/STM-32/gcc-arm-none-eabi-6-2017-q2-update/arm-none-eabi/include/c++/6.3.1/functional ****   // - a pointer to member function type (binary, no qualifiers)
 388:/home/vdykyy/Install/STM-32/gcc-arm-none-eabi-6-2017-q2-update/arm-none-eabi/include/c++/6.3.1/functional ****   template<typename _Res, typename _T1, typename _T2>
 389:/home/vdykyy/Install/STM-32/gcc-arm-none-eabi-6-2017-q2-update/arm-none-eabi/include/c++/6.3.1/functional ****     struct _Reference_wrapper_base<_Res (_T1::*)(_T2)>
 390:/home/vdykyy/Install/STM-32/gcc-arm-none-eabi-6-2017-q2-update/arm-none-eabi/include/c++/6.3.1/functional ****     : binary_function<_T1*, _T2, _Res>
 391:/home/vdykyy/Install/STM-32/gcc-arm-none-eabi-6-2017-q2-update/arm-none-eabi/include/c++/6.3.1/functional ****     { };
 392:/home/vdykyy/Install/STM-32/gcc-arm-none-eabi-6-2017-q2-update/arm-none-eabi/include/c++/6.3.1/functional **** 
 393:/home/vdykyy/Install/STM-32/gcc-arm-none-eabi-6-2017-q2-update/arm-none-eabi/include/c++/6.3.1/functional ****   // - a pointer to member function type (unary, const)
 394:/home/vdykyy/Install/STM-32/gcc-arm-none-eabi-6-2017-q2-update/arm-none-eabi/include/c++/6.3.1/functional ****   template<typename _Res, typename _T1>
 395:/home/vdykyy/Install/STM-32/gcc-arm-none-eabi-6-2017-q2-update/arm-none-eabi/include/c++/6.3.1/functional ****     struct _Reference_wrapper_base<_Res (_T1::*)() const>
 396:/home/vdykyy/Install/STM-32/gcc-arm-none-eabi-6-2017-q2-update/arm-none-eabi/include/c++/6.3.1/functional ****     : unary_function<const _T1*, _Res>
 397:/home/vdykyy/Install/STM-32/gcc-arm-none-eabi-6-2017-q2-update/arm-none-eabi/include/c++/6.3.1/functional ****     { };
 398:/home/vdykyy/Install/STM-32/gcc-arm-none-eabi-6-2017-q2-update/arm-none-eabi/include/c++/6.3.1/functional **** 
 399:/home/vdykyy/Install/STM-32/gcc-arm-none-eabi-6-2017-q2-update/arm-none-eabi/include/c++/6.3.1/functional ****   // - a pointer to member function type (binary, const)
 400:/home/vdykyy/Install/STM-32/gcc-arm-none-eabi-6-2017-q2-update/arm-none-eabi/include/c++/6.3.1/functional ****   template<typename _Res, typename _T1, typename _T2>
 401:/home/vdykyy/Install/STM-32/gcc-arm-none-eabi-6-2017-q2-update/arm-none-eabi/include/c++/6.3.1/functional ****     struct _Reference_wrapper_base<_Res (_T1::*)(_T2) const>
 402:/home/vdykyy/Install/STM-32/gcc-arm-none-eabi-6-2017-q2-update/arm-none-eabi/include/c++/6.3.1/functional ****     : binary_function<const _T1*, _T2, _Res>
 403:/home/vdykyy/Install/STM-32/gcc-arm-none-eabi-6-2017-q2-update/arm-none-eabi/include/c++/6.3.1/functional ****     { };
 404:/home/vdykyy/Install/STM-32/gcc-arm-none-eabi-6-2017-q2-update/arm-none-eabi/include/c++/6.3.1/functional **** 
 405:/home/vdykyy/Install/STM-32/gcc-arm-none-eabi-6-2017-q2-update/arm-none-eabi/include/c++/6.3.1/functional ****   // - a pointer to member function type (unary, volatile)
 406:/home/vdykyy/Install/STM-32/gcc-arm-none-eabi-6-2017-q2-update/arm-none-eabi/include/c++/6.3.1/functional ****   template<typename _Res, typename _T1>
ARM GAS  /tmp/cch7CLaJ.s 			page 9


 407:/home/vdykyy/Install/STM-32/gcc-arm-none-eabi-6-2017-q2-update/arm-none-eabi/include/c++/6.3.1/functional ****     struct _Reference_wrapper_base<_Res (_T1::*)() volatile>
 408:/home/vdykyy/Install/STM-32/gcc-arm-none-eabi-6-2017-q2-update/arm-none-eabi/include/c++/6.3.1/functional ****     : unary_function<volatile _T1*, _Res>
 409:/home/vdykyy/Install/STM-32/gcc-arm-none-eabi-6-2017-q2-update/arm-none-eabi/include/c++/6.3.1/functional ****     { };
 410:/home/vdykyy/Install/STM-32/gcc-arm-none-eabi-6-2017-q2-update/arm-none-eabi/include/c++/6.3.1/functional **** 
 411:/home/vdykyy/Install/STM-32/gcc-arm-none-eabi-6-2017-q2-update/arm-none-eabi/include/c++/6.3.1/functional ****   // - a pointer to member function type (binary, volatile)
 412:/home/vdykyy/Install/STM-32/gcc-arm-none-eabi-6-2017-q2-update/arm-none-eabi/include/c++/6.3.1/functional ****   template<typename _Res, typename _T1, typename _T2>
 413:/home/vdykyy/Install/STM-32/gcc-arm-none-eabi-6-2017-q2-update/arm-none-eabi/include/c++/6.3.1/functional ****     struct _Reference_wrapper_base<_Res (_T1::*)(_T2) volatile>
 414:/home/vdykyy/Install/STM-32/gcc-arm-none-eabi-6-2017-q2-update/arm-none-eabi/include/c++/6.3.1/functional ****     : binary_function<volatile _T1*, _T2, _Res>
 415:/home/vdykyy/Install/STM-32/gcc-arm-none-eabi-6-2017-q2-update/arm-none-eabi/include/c++/6.3.1/functional ****     { };
 416:/home/vdykyy/Install/STM-32/gcc-arm-none-eabi-6-2017-q2-update/arm-none-eabi/include/c++/6.3.1/functional **** 
 417:/home/vdykyy/Install/STM-32/gcc-arm-none-eabi-6-2017-q2-update/arm-none-eabi/include/c++/6.3.1/functional ****   // - a pointer to member function type (unary, const volatile)
 418:/home/vdykyy/Install/STM-32/gcc-arm-none-eabi-6-2017-q2-update/arm-none-eabi/include/c++/6.3.1/functional ****   template<typename _Res, typename _T1>
 419:/home/vdykyy/Install/STM-32/gcc-arm-none-eabi-6-2017-q2-update/arm-none-eabi/include/c++/6.3.1/functional ****     struct _Reference_wrapper_base<_Res (_T1::*)() const volatile>
 420:/home/vdykyy/Install/STM-32/gcc-arm-none-eabi-6-2017-q2-update/arm-none-eabi/include/c++/6.3.1/functional ****     : unary_function<const volatile _T1*, _Res>
 421:/home/vdykyy/Install/STM-32/gcc-arm-none-eabi-6-2017-q2-update/arm-none-eabi/include/c++/6.3.1/functional ****     { };
 422:/home/vdykyy/Install/STM-32/gcc-arm-none-eabi-6-2017-q2-update/arm-none-eabi/include/c++/6.3.1/functional **** 
 423:/home/vdykyy/Install/STM-32/gcc-arm-none-eabi-6-2017-q2-update/arm-none-eabi/include/c++/6.3.1/functional ****   // - a pointer to member function type (binary, const volatile)
 424:/home/vdykyy/Install/STM-32/gcc-arm-none-eabi-6-2017-q2-update/arm-none-eabi/include/c++/6.3.1/functional ****   template<typename _Res, typename _T1, typename _T2>
 425:/home/vdykyy/Install/STM-32/gcc-arm-none-eabi-6-2017-q2-update/arm-none-eabi/include/c++/6.3.1/functional ****     struct _Reference_wrapper_base<_Res (_T1::*)(_T2) const volatile>
 426:/home/vdykyy/Install/STM-32/gcc-arm-none-eabi-6-2017-q2-update/arm-none-eabi/include/c++/6.3.1/functional ****     : binary_function<const volatile _T1*, _T2, _Res>
 427:/home/vdykyy/Install/STM-32/gcc-arm-none-eabi-6-2017-q2-update/arm-none-eabi/include/c++/6.3.1/functional ****     { };
 428:/home/vdykyy/Install/STM-32/gcc-arm-none-eabi-6-2017-q2-update/arm-none-eabi/include/c++/6.3.1/functional **** 
 429:/home/vdykyy/Install/STM-32/gcc-arm-none-eabi-6-2017-q2-update/arm-none-eabi/include/c++/6.3.1/functional ****   /**
 430:/home/vdykyy/Install/STM-32/gcc-arm-none-eabi-6-2017-q2-update/arm-none-eabi/include/c++/6.3.1/functional ****    *  @brief Primary class template for reference_wrapper.
 431:/home/vdykyy/Install/STM-32/gcc-arm-none-eabi-6-2017-q2-update/arm-none-eabi/include/c++/6.3.1/functional ****    *  @ingroup functors
 432:/home/vdykyy/Install/STM-32/gcc-arm-none-eabi-6-2017-q2-update/arm-none-eabi/include/c++/6.3.1/functional ****    *  @{
 433:/home/vdykyy/Install/STM-32/gcc-arm-none-eabi-6-2017-q2-update/arm-none-eabi/include/c++/6.3.1/functional ****    */
 434:/home/vdykyy/Install/STM-32/gcc-arm-none-eabi-6-2017-q2-update/arm-none-eabi/include/c++/6.3.1/functional ****   template<typename _Tp>
 435:/home/vdykyy/Install/STM-32/gcc-arm-none-eabi-6-2017-q2-update/arm-none-eabi/include/c++/6.3.1/functional ****     class reference_wrapper
 436:/home/vdykyy/Install/STM-32/gcc-arm-none-eabi-6-2017-q2-update/arm-none-eabi/include/c++/6.3.1/functional ****     : public _Reference_wrapper_base<typename remove_cv<_Tp>::type>
 437:/home/vdykyy/Install/STM-32/gcc-arm-none-eabi-6-2017-q2-update/arm-none-eabi/include/c++/6.3.1/functional ****     {
 438:/home/vdykyy/Install/STM-32/gcc-arm-none-eabi-6-2017-q2-update/arm-none-eabi/include/c++/6.3.1/functional ****       _Tp* _M_data;
 439:/home/vdykyy/Install/STM-32/gcc-arm-none-eabi-6-2017-q2-update/arm-none-eabi/include/c++/6.3.1/functional **** 
 440:/home/vdykyy/Install/STM-32/gcc-arm-none-eabi-6-2017-q2-update/arm-none-eabi/include/c++/6.3.1/functional ****     public:
 441:/home/vdykyy/Install/STM-32/gcc-arm-none-eabi-6-2017-q2-update/arm-none-eabi/include/c++/6.3.1/functional ****       typedef _Tp type;
 442:/home/vdykyy/Install/STM-32/gcc-arm-none-eabi-6-2017-q2-update/arm-none-eabi/include/c++/6.3.1/functional **** 
 443:/home/vdykyy/Install/STM-32/gcc-arm-none-eabi-6-2017-q2-update/arm-none-eabi/include/c++/6.3.1/functional ****       reference_wrapper(_Tp& __indata) noexcept
 444:/home/vdykyy/Install/STM-32/gcc-arm-none-eabi-6-2017-q2-update/arm-none-eabi/include/c++/6.3.1/functional ****       : _M_data(std::__addressof(__indata))
 445:/home/vdykyy/Install/STM-32/gcc-arm-none-eabi-6-2017-q2-update/arm-none-eabi/include/c++/6.3.1/functional ****       { }
 446:/home/vdykyy/Install/STM-32/gcc-arm-none-eabi-6-2017-q2-update/arm-none-eabi/include/c++/6.3.1/functional **** 
 447:/home/vdykyy/Install/STM-32/gcc-arm-none-eabi-6-2017-q2-update/arm-none-eabi/include/c++/6.3.1/functional ****       reference_wrapper(_Tp&&) = delete;
 448:/home/vdykyy/Install/STM-32/gcc-arm-none-eabi-6-2017-q2-update/arm-none-eabi/include/c++/6.3.1/functional **** 
 449:/home/vdykyy/Install/STM-32/gcc-arm-none-eabi-6-2017-q2-update/arm-none-eabi/include/c++/6.3.1/functional ****       reference_wrapper(const reference_wrapper&) = default;
 450:/home/vdykyy/Install/STM-32/gcc-arm-none-eabi-6-2017-q2-update/arm-none-eabi/include/c++/6.3.1/functional **** 
 451:/home/vdykyy/Install/STM-32/gcc-arm-none-eabi-6-2017-q2-update/arm-none-eabi/include/c++/6.3.1/functional ****       reference_wrapper&
 452:/home/vdykyy/Install/STM-32/gcc-arm-none-eabi-6-2017-q2-update/arm-none-eabi/include/c++/6.3.1/functional ****       operator=(const reference_wrapper&) = default;
 453:/home/vdykyy/Install/STM-32/gcc-arm-none-eabi-6-2017-q2-update/arm-none-eabi/include/c++/6.3.1/functional **** 
 454:/home/vdykyy/Install/STM-32/gcc-arm-none-eabi-6-2017-q2-update/arm-none-eabi/include/c++/6.3.1/functional ****       operator _Tp&() const noexcept
 455:/home/vdykyy/Install/STM-32/gcc-arm-none-eabi-6-2017-q2-update/arm-none-eabi/include/c++/6.3.1/functional ****       { return this->get(); }
 456:/home/vdykyy/Install/STM-32/gcc-arm-none-eabi-6-2017-q2-update/arm-none-eabi/include/c++/6.3.1/functional **** 
 457:/home/vdykyy/Install/STM-32/gcc-arm-none-eabi-6-2017-q2-update/arm-none-eabi/include/c++/6.3.1/functional ****       _Tp&
 458:/home/vdykyy/Install/STM-32/gcc-arm-none-eabi-6-2017-q2-update/arm-none-eabi/include/c++/6.3.1/functional ****       get() const noexcept
 459:/home/vdykyy/Install/STM-32/gcc-arm-none-eabi-6-2017-q2-update/arm-none-eabi/include/c++/6.3.1/functional ****       { return *_M_data; }
 460:/home/vdykyy/Install/STM-32/gcc-arm-none-eabi-6-2017-q2-update/arm-none-eabi/include/c++/6.3.1/functional **** 
 461:/home/vdykyy/Install/STM-32/gcc-arm-none-eabi-6-2017-q2-update/arm-none-eabi/include/c++/6.3.1/functional ****       template<typename... _Args>
 462:/home/vdykyy/Install/STM-32/gcc-arm-none-eabi-6-2017-q2-update/arm-none-eabi/include/c++/6.3.1/functional **** 	typename result_of<_Tp&(_Args&&...)>::type
 463:/home/vdykyy/Install/STM-32/gcc-arm-none-eabi-6-2017-q2-update/arm-none-eabi/include/c++/6.3.1/functional **** 	operator()(_Args&&... __args) const
ARM GAS  /tmp/cch7CLaJ.s 			page 10


 464:/home/vdykyy/Install/STM-32/gcc-arm-none-eabi-6-2017-q2-update/arm-none-eabi/include/c++/6.3.1/functional **** 	{
 465:/home/vdykyy/Install/STM-32/gcc-arm-none-eabi-6-2017-q2-update/arm-none-eabi/include/c++/6.3.1/functional **** 	  return std::__invoke(get(), std::forward<_Args>(__args)...);
 466:/home/vdykyy/Install/STM-32/gcc-arm-none-eabi-6-2017-q2-update/arm-none-eabi/include/c++/6.3.1/functional **** 	}
 467:/home/vdykyy/Install/STM-32/gcc-arm-none-eabi-6-2017-q2-update/arm-none-eabi/include/c++/6.3.1/functional ****     };
 468:/home/vdykyy/Install/STM-32/gcc-arm-none-eabi-6-2017-q2-update/arm-none-eabi/include/c++/6.3.1/functional **** 
 469:/home/vdykyy/Install/STM-32/gcc-arm-none-eabi-6-2017-q2-update/arm-none-eabi/include/c++/6.3.1/functional **** 
 470:/home/vdykyy/Install/STM-32/gcc-arm-none-eabi-6-2017-q2-update/arm-none-eabi/include/c++/6.3.1/functional ****   /// Denotes a reference should be taken to a variable.
 471:/home/vdykyy/Install/STM-32/gcc-arm-none-eabi-6-2017-q2-update/arm-none-eabi/include/c++/6.3.1/functional ****   template<typename _Tp>
 472:/home/vdykyy/Install/STM-32/gcc-arm-none-eabi-6-2017-q2-update/arm-none-eabi/include/c++/6.3.1/functional ****     inline reference_wrapper<_Tp>
 473:/home/vdykyy/Install/STM-32/gcc-arm-none-eabi-6-2017-q2-update/arm-none-eabi/include/c++/6.3.1/functional ****     ref(_Tp& __t) noexcept
 474:/home/vdykyy/Install/STM-32/gcc-arm-none-eabi-6-2017-q2-update/arm-none-eabi/include/c++/6.3.1/functional ****     { return reference_wrapper<_Tp>(__t); }
 475:/home/vdykyy/Install/STM-32/gcc-arm-none-eabi-6-2017-q2-update/arm-none-eabi/include/c++/6.3.1/functional **** 
 476:/home/vdykyy/Install/STM-32/gcc-arm-none-eabi-6-2017-q2-update/arm-none-eabi/include/c++/6.3.1/functional ****   /// Denotes a const reference should be taken to a variable.
 477:/home/vdykyy/Install/STM-32/gcc-arm-none-eabi-6-2017-q2-update/arm-none-eabi/include/c++/6.3.1/functional ****   template<typename _Tp>
 478:/home/vdykyy/Install/STM-32/gcc-arm-none-eabi-6-2017-q2-update/arm-none-eabi/include/c++/6.3.1/functional ****     inline reference_wrapper<const _Tp>
 479:/home/vdykyy/Install/STM-32/gcc-arm-none-eabi-6-2017-q2-update/arm-none-eabi/include/c++/6.3.1/functional ****     cref(const _Tp& __t) noexcept
 480:/home/vdykyy/Install/STM-32/gcc-arm-none-eabi-6-2017-q2-update/arm-none-eabi/include/c++/6.3.1/functional ****     { return reference_wrapper<const _Tp>(__t); }
 481:/home/vdykyy/Install/STM-32/gcc-arm-none-eabi-6-2017-q2-update/arm-none-eabi/include/c++/6.3.1/functional **** 
 482:/home/vdykyy/Install/STM-32/gcc-arm-none-eabi-6-2017-q2-update/arm-none-eabi/include/c++/6.3.1/functional ****   template<typename _Tp>
 483:/home/vdykyy/Install/STM-32/gcc-arm-none-eabi-6-2017-q2-update/arm-none-eabi/include/c++/6.3.1/functional ****     void ref(const _Tp&&) = delete;
 484:/home/vdykyy/Install/STM-32/gcc-arm-none-eabi-6-2017-q2-update/arm-none-eabi/include/c++/6.3.1/functional **** 
 485:/home/vdykyy/Install/STM-32/gcc-arm-none-eabi-6-2017-q2-update/arm-none-eabi/include/c++/6.3.1/functional ****   template<typename _Tp>
 486:/home/vdykyy/Install/STM-32/gcc-arm-none-eabi-6-2017-q2-update/arm-none-eabi/include/c++/6.3.1/functional ****     void cref(const _Tp&&) = delete;
 487:/home/vdykyy/Install/STM-32/gcc-arm-none-eabi-6-2017-q2-update/arm-none-eabi/include/c++/6.3.1/functional **** 
 488:/home/vdykyy/Install/STM-32/gcc-arm-none-eabi-6-2017-q2-update/arm-none-eabi/include/c++/6.3.1/functional ****   /// std::ref overload to prevent wrapping a reference_wrapper
 489:/home/vdykyy/Install/STM-32/gcc-arm-none-eabi-6-2017-q2-update/arm-none-eabi/include/c++/6.3.1/functional ****   template<typename _Tp>
 490:/home/vdykyy/Install/STM-32/gcc-arm-none-eabi-6-2017-q2-update/arm-none-eabi/include/c++/6.3.1/functional ****     inline reference_wrapper<_Tp>
 491:/home/vdykyy/Install/STM-32/gcc-arm-none-eabi-6-2017-q2-update/arm-none-eabi/include/c++/6.3.1/functional ****     ref(reference_wrapper<_Tp> __t) noexcept
 492:/home/vdykyy/Install/STM-32/gcc-arm-none-eabi-6-2017-q2-update/arm-none-eabi/include/c++/6.3.1/functional ****     { return std::ref(__t.get()); }
 493:/home/vdykyy/Install/STM-32/gcc-arm-none-eabi-6-2017-q2-update/arm-none-eabi/include/c++/6.3.1/functional **** 
 494:/home/vdykyy/Install/STM-32/gcc-arm-none-eabi-6-2017-q2-update/arm-none-eabi/include/c++/6.3.1/functional ****   /// std::cref overload to prevent wrapping a reference_wrapper
 495:/home/vdykyy/Install/STM-32/gcc-arm-none-eabi-6-2017-q2-update/arm-none-eabi/include/c++/6.3.1/functional ****   template<typename _Tp>
 496:/home/vdykyy/Install/STM-32/gcc-arm-none-eabi-6-2017-q2-update/arm-none-eabi/include/c++/6.3.1/functional ****     inline reference_wrapper<const _Tp>
 497:/home/vdykyy/Install/STM-32/gcc-arm-none-eabi-6-2017-q2-update/arm-none-eabi/include/c++/6.3.1/functional ****     cref(reference_wrapper<_Tp> __t) noexcept
 498:/home/vdykyy/Install/STM-32/gcc-arm-none-eabi-6-2017-q2-update/arm-none-eabi/include/c++/6.3.1/functional ****     { return std::cref(__t.get()); }
 499:/home/vdykyy/Install/STM-32/gcc-arm-none-eabi-6-2017-q2-update/arm-none-eabi/include/c++/6.3.1/functional **** 
 500:/home/vdykyy/Install/STM-32/gcc-arm-none-eabi-6-2017-q2-update/arm-none-eabi/include/c++/6.3.1/functional ****   // @} group functors
 501:/home/vdykyy/Install/STM-32/gcc-arm-none-eabi-6-2017-q2-update/arm-none-eabi/include/c++/6.3.1/functional **** 
 502:/home/vdykyy/Install/STM-32/gcc-arm-none-eabi-6-2017-q2-update/arm-none-eabi/include/c++/6.3.1/functional ****   template<typename... _Types>
 503:/home/vdykyy/Install/STM-32/gcc-arm-none-eabi-6-2017-q2-update/arm-none-eabi/include/c++/6.3.1/functional ****     struct _Pack : integral_constant<size_t, sizeof...(_Types)>
 504:/home/vdykyy/Install/STM-32/gcc-arm-none-eabi-6-2017-q2-update/arm-none-eabi/include/c++/6.3.1/functional ****     { };
 505:/home/vdykyy/Install/STM-32/gcc-arm-none-eabi-6-2017-q2-update/arm-none-eabi/include/c++/6.3.1/functional **** 
 506:/home/vdykyy/Install/STM-32/gcc-arm-none-eabi-6-2017-q2-update/arm-none-eabi/include/c++/6.3.1/functional ****   template<typename _From, typename _To, bool = _From::value == _To::value>
 507:/home/vdykyy/Install/STM-32/gcc-arm-none-eabi-6-2017-q2-update/arm-none-eabi/include/c++/6.3.1/functional ****     struct _AllConvertible : false_type
 508:/home/vdykyy/Install/STM-32/gcc-arm-none-eabi-6-2017-q2-update/arm-none-eabi/include/c++/6.3.1/functional ****     { };
 509:/home/vdykyy/Install/STM-32/gcc-arm-none-eabi-6-2017-q2-update/arm-none-eabi/include/c++/6.3.1/functional **** 
 510:/home/vdykyy/Install/STM-32/gcc-arm-none-eabi-6-2017-q2-update/arm-none-eabi/include/c++/6.3.1/functional ****   template<typename... _From, typename... _To>
 511:/home/vdykyy/Install/STM-32/gcc-arm-none-eabi-6-2017-q2-update/arm-none-eabi/include/c++/6.3.1/functional ****     struct _AllConvertible<_Pack<_From...>, _Pack<_To...>, true>
 512:/home/vdykyy/Install/STM-32/gcc-arm-none-eabi-6-2017-q2-update/arm-none-eabi/include/c++/6.3.1/functional ****     : __and_<is_convertible<_From, _To>...>
 513:/home/vdykyy/Install/STM-32/gcc-arm-none-eabi-6-2017-q2-update/arm-none-eabi/include/c++/6.3.1/functional ****     { };
 514:/home/vdykyy/Install/STM-32/gcc-arm-none-eabi-6-2017-q2-update/arm-none-eabi/include/c++/6.3.1/functional **** 
 515:/home/vdykyy/Install/STM-32/gcc-arm-none-eabi-6-2017-q2-update/arm-none-eabi/include/c++/6.3.1/functional ****   template<typename _Tp1, typename _Tp2>
 516:/home/vdykyy/Install/STM-32/gcc-arm-none-eabi-6-2017-q2-update/arm-none-eabi/include/c++/6.3.1/functional ****     using _NotSame = __not_<is_same<typename std::decay<_Tp1>::type,
 517:/home/vdykyy/Install/STM-32/gcc-arm-none-eabi-6-2017-q2-update/arm-none-eabi/include/c++/6.3.1/functional **** 				    typename std::decay<_Tp2>::type>>;
 518:/home/vdykyy/Install/STM-32/gcc-arm-none-eabi-6-2017-q2-update/arm-none-eabi/include/c++/6.3.1/functional **** 
 519:/home/vdykyy/Install/STM-32/gcc-arm-none-eabi-6-2017-q2-update/arm-none-eabi/include/c++/6.3.1/functional ****   /**
 520:/home/vdykyy/Install/STM-32/gcc-arm-none-eabi-6-2017-q2-update/arm-none-eabi/include/c++/6.3.1/functional ****    * Derives from @c unary_function or @c binary_function, or perhaps
ARM GAS  /tmp/cch7CLaJ.s 			page 11


 521:/home/vdykyy/Install/STM-32/gcc-arm-none-eabi-6-2017-q2-update/arm-none-eabi/include/c++/6.3.1/functional ****    * nothing, depending on the number of arguments provided. The
 522:/home/vdykyy/Install/STM-32/gcc-arm-none-eabi-6-2017-q2-update/arm-none-eabi/include/c++/6.3.1/functional ****    * primary template is the basis case, which derives nothing.
 523:/home/vdykyy/Install/STM-32/gcc-arm-none-eabi-6-2017-q2-update/arm-none-eabi/include/c++/6.3.1/functional ****    */
 524:/home/vdykyy/Install/STM-32/gcc-arm-none-eabi-6-2017-q2-update/arm-none-eabi/include/c++/6.3.1/functional ****   template<typename _Res, typename... _ArgTypes>
 525:/home/vdykyy/Install/STM-32/gcc-arm-none-eabi-6-2017-q2-update/arm-none-eabi/include/c++/6.3.1/functional ****     struct _Maybe_unary_or_binary_function { };
 526:/home/vdykyy/Install/STM-32/gcc-arm-none-eabi-6-2017-q2-update/arm-none-eabi/include/c++/6.3.1/functional **** 
 527:/home/vdykyy/Install/STM-32/gcc-arm-none-eabi-6-2017-q2-update/arm-none-eabi/include/c++/6.3.1/functional ****   /// Derives from @c unary_function, as appropriate.
 528:/home/vdykyy/Install/STM-32/gcc-arm-none-eabi-6-2017-q2-update/arm-none-eabi/include/c++/6.3.1/functional ****   template<typename _Res, typename _T1>
 529:/home/vdykyy/Install/STM-32/gcc-arm-none-eabi-6-2017-q2-update/arm-none-eabi/include/c++/6.3.1/functional ****     struct _Maybe_unary_or_binary_function<_Res, _T1>
 530:/home/vdykyy/Install/STM-32/gcc-arm-none-eabi-6-2017-q2-update/arm-none-eabi/include/c++/6.3.1/functional ****     : std::unary_function<_T1, _Res> { };
 531:/home/vdykyy/Install/STM-32/gcc-arm-none-eabi-6-2017-q2-update/arm-none-eabi/include/c++/6.3.1/functional **** 
 532:/home/vdykyy/Install/STM-32/gcc-arm-none-eabi-6-2017-q2-update/arm-none-eabi/include/c++/6.3.1/functional ****   /// Derives from @c binary_function, as appropriate.
 533:/home/vdykyy/Install/STM-32/gcc-arm-none-eabi-6-2017-q2-update/arm-none-eabi/include/c++/6.3.1/functional ****   template<typename _Res, typename _T1, typename _T2>
 534:/home/vdykyy/Install/STM-32/gcc-arm-none-eabi-6-2017-q2-update/arm-none-eabi/include/c++/6.3.1/functional ****     struct _Maybe_unary_or_binary_function<_Res, _T1, _T2>
 535:/home/vdykyy/Install/STM-32/gcc-arm-none-eabi-6-2017-q2-update/arm-none-eabi/include/c++/6.3.1/functional ****     : std::binary_function<_T1, _T2, _Res> { };
 536:/home/vdykyy/Install/STM-32/gcc-arm-none-eabi-6-2017-q2-update/arm-none-eabi/include/c++/6.3.1/functional **** 
 537:/home/vdykyy/Install/STM-32/gcc-arm-none-eabi-6-2017-q2-update/arm-none-eabi/include/c++/6.3.1/functional ****   template<typename _Signature>
 538:/home/vdykyy/Install/STM-32/gcc-arm-none-eabi-6-2017-q2-update/arm-none-eabi/include/c++/6.3.1/functional ****     struct _Mem_fn_traits;
 539:/home/vdykyy/Install/STM-32/gcc-arm-none-eabi-6-2017-q2-update/arm-none-eabi/include/c++/6.3.1/functional **** 
 540:/home/vdykyy/Install/STM-32/gcc-arm-none-eabi-6-2017-q2-update/arm-none-eabi/include/c++/6.3.1/functional ****   template<typename _Res, typename _Class, typename... _ArgTypes>
 541:/home/vdykyy/Install/STM-32/gcc-arm-none-eabi-6-2017-q2-update/arm-none-eabi/include/c++/6.3.1/functional ****     struct _Mem_fn_traits_base
 542:/home/vdykyy/Install/STM-32/gcc-arm-none-eabi-6-2017-q2-update/arm-none-eabi/include/c++/6.3.1/functional ****     {
 543:/home/vdykyy/Install/STM-32/gcc-arm-none-eabi-6-2017-q2-update/arm-none-eabi/include/c++/6.3.1/functional ****       using __result_type = _Res;
 544:/home/vdykyy/Install/STM-32/gcc-arm-none-eabi-6-2017-q2-update/arm-none-eabi/include/c++/6.3.1/functional ****       using __maybe_type
 545:/home/vdykyy/Install/STM-32/gcc-arm-none-eabi-6-2017-q2-update/arm-none-eabi/include/c++/6.3.1/functional **** 	= _Maybe_unary_or_binary_function<_Res, _Class*, _ArgTypes...>;
 546:/home/vdykyy/Install/STM-32/gcc-arm-none-eabi-6-2017-q2-update/arm-none-eabi/include/c++/6.3.1/functional ****       using __arity = integral_constant<size_t, sizeof...(_ArgTypes)>;
 547:/home/vdykyy/Install/STM-32/gcc-arm-none-eabi-6-2017-q2-update/arm-none-eabi/include/c++/6.3.1/functional ****     };
 548:/home/vdykyy/Install/STM-32/gcc-arm-none-eabi-6-2017-q2-update/arm-none-eabi/include/c++/6.3.1/functional **** 
 549:/home/vdykyy/Install/STM-32/gcc-arm-none-eabi-6-2017-q2-update/arm-none-eabi/include/c++/6.3.1/functional **** #define _GLIBCXX_MEM_FN_TRAITS2(_CV, _REF, _LVAL, _RVAL)		\
 550:/home/vdykyy/Install/STM-32/gcc-arm-none-eabi-6-2017-q2-update/arm-none-eabi/include/c++/6.3.1/functional ****   template<typename _Res, typename _Class, typename... _ArgTypes>	\
 551:/home/vdykyy/Install/STM-32/gcc-arm-none-eabi-6-2017-q2-update/arm-none-eabi/include/c++/6.3.1/functional ****     struct _Mem_fn_traits<_Res (_Class::*)(_ArgTypes...) _CV _REF>	\
 552:/home/vdykyy/Install/STM-32/gcc-arm-none-eabi-6-2017-q2-update/arm-none-eabi/include/c++/6.3.1/functional ****     : _Mem_fn_traits_base<_Res, _CV _Class, _ArgTypes...>		\
 553:/home/vdykyy/Install/STM-32/gcc-arm-none-eabi-6-2017-q2-update/arm-none-eabi/include/c++/6.3.1/functional ****     {									\
 554:/home/vdykyy/Install/STM-32/gcc-arm-none-eabi-6-2017-q2-update/arm-none-eabi/include/c++/6.3.1/functional ****       using __vararg = false_type;					\
 555:/home/vdykyy/Install/STM-32/gcc-arm-none-eabi-6-2017-q2-update/arm-none-eabi/include/c++/6.3.1/functional ****     };									\
 556:/home/vdykyy/Install/STM-32/gcc-arm-none-eabi-6-2017-q2-update/arm-none-eabi/include/c++/6.3.1/functional ****   template<typename _Res, typename _Class, typename... _ArgTypes>	\
 557:/home/vdykyy/Install/STM-32/gcc-arm-none-eabi-6-2017-q2-update/arm-none-eabi/include/c++/6.3.1/functional ****     struct _Mem_fn_traits<_Res (_Class::*)(_ArgTypes... ...) _CV _REF>	\
 558:/home/vdykyy/Install/STM-32/gcc-arm-none-eabi-6-2017-q2-update/arm-none-eabi/include/c++/6.3.1/functional ****     : _Mem_fn_traits_base<_Res, _CV _Class, _ArgTypes...>		\
 559:/home/vdykyy/Install/STM-32/gcc-arm-none-eabi-6-2017-q2-update/arm-none-eabi/include/c++/6.3.1/functional ****     {									\
 560:/home/vdykyy/Install/STM-32/gcc-arm-none-eabi-6-2017-q2-update/arm-none-eabi/include/c++/6.3.1/functional ****       using __vararg = true_type;					\
 561:/home/vdykyy/Install/STM-32/gcc-arm-none-eabi-6-2017-q2-update/arm-none-eabi/include/c++/6.3.1/functional ****     };
 562:/home/vdykyy/Install/STM-32/gcc-arm-none-eabi-6-2017-q2-update/arm-none-eabi/include/c++/6.3.1/functional **** 
 563:/home/vdykyy/Install/STM-32/gcc-arm-none-eabi-6-2017-q2-update/arm-none-eabi/include/c++/6.3.1/functional **** #define _GLIBCXX_MEM_FN_TRAITS(_REF, _LVAL, _RVAL)		\
 564:/home/vdykyy/Install/STM-32/gcc-arm-none-eabi-6-2017-q2-update/arm-none-eabi/include/c++/6.3.1/functional ****   _GLIBCXX_MEM_FN_TRAITS2(		, _REF, _LVAL, _RVAL)	\
 565:/home/vdykyy/Install/STM-32/gcc-arm-none-eabi-6-2017-q2-update/arm-none-eabi/include/c++/6.3.1/functional ****   _GLIBCXX_MEM_FN_TRAITS2(const		, _REF, _LVAL, _RVAL)	\
 566:/home/vdykyy/Install/STM-32/gcc-arm-none-eabi-6-2017-q2-update/arm-none-eabi/include/c++/6.3.1/functional ****   _GLIBCXX_MEM_FN_TRAITS2(volatile	, _REF, _LVAL, _RVAL)	\
 567:/home/vdykyy/Install/STM-32/gcc-arm-none-eabi-6-2017-q2-update/arm-none-eabi/include/c++/6.3.1/functional ****   _GLIBCXX_MEM_FN_TRAITS2(const volatile, _REF, _LVAL, _RVAL)
 568:/home/vdykyy/Install/STM-32/gcc-arm-none-eabi-6-2017-q2-update/arm-none-eabi/include/c++/6.3.1/functional **** 
 569:/home/vdykyy/Install/STM-32/gcc-arm-none-eabi-6-2017-q2-update/arm-none-eabi/include/c++/6.3.1/functional **** _GLIBCXX_MEM_FN_TRAITS( , true_type, true_type)
 570:/home/vdykyy/Install/STM-32/gcc-arm-none-eabi-6-2017-q2-update/arm-none-eabi/include/c++/6.3.1/functional **** _GLIBCXX_MEM_FN_TRAITS(&, true_type, false_type)
 571:/home/vdykyy/Install/STM-32/gcc-arm-none-eabi-6-2017-q2-update/arm-none-eabi/include/c++/6.3.1/functional **** _GLIBCXX_MEM_FN_TRAITS(&&, false_type, true_type)
 572:/home/vdykyy/Install/STM-32/gcc-arm-none-eabi-6-2017-q2-update/arm-none-eabi/include/c++/6.3.1/functional **** 
 573:/home/vdykyy/Install/STM-32/gcc-arm-none-eabi-6-2017-q2-update/arm-none-eabi/include/c++/6.3.1/functional **** #undef _GLIBCXX_MEM_FN_TRAITS
 574:/home/vdykyy/Install/STM-32/gcc-arm-none-eabi-6-2017-q2-update/arm-none-eabi/include/c++/6.3.1/functional **** #undef _GLIBCXX_MEM_FN_TRAITS2
 575:/home/vdykyy/Install/STM-32/gcc-arm-none-eabi-6-2017-q2-update/arm-none-eabi/include/c++/6.3.1/functional **** 
 576:/home/vdykyy/Install/STM-32/gcc-arm-none-eabi-6-2017-q2-update/arm-none-eabi/include/c++/6.3.1/functional ****   template<typename _MemFunPtr,
 577:/home/vdykyy/Install/STM-32/gcc-arm-none-eabi-6-2017-q2-update/arm-none-eabi/include/c++/6.3.1/functional **** 	   bool __is_mem_fn = is_member_function_pointer<_MemFunPtr>::value>
ARM GAS  /tmp/cch7CLaJ.s 			page 12


 578:/home/vdykyy/Install/STM-32/gcc-arm-none-eabi-6-2017-q2-update/arm-none-eabi/include/c++/6.3.1/functional ****     class _Mem_fn_base
 579:/home/vdykyy/Install/STM-32/gcc-arm-none-eabi-6-2017-q2-update/arm-none-eabi/include/c++/6.3.1/functional ****     : public _Mem_fn_traits<_MemFunPtr>::__maybe_type
 580:/home/vdykyy/Install/STM-32/gcc-arm-none-eabi-6-2017-q2-update/arm-none-eabi/include/c++/6.3.1/functional ****     {
 581:/home/vdykyy/Install/STM-32/gcc-arm-none-eabi-6-2017-q2-update/arm-none-eabi/include/c++/6.3.1/functional ****       using _Traits = _Mem_fn_traits<_MemFunPtr>;
 582:/home/vdykyy/Install/STM-32/gcc-arm-none-eabi-6-2017-q2-update/arm-none-eabi/include/c++/6.3.1/functional **** 
 583:/home/vdykyy/Install/STM-32/gcc-arm-none-eabi-6-2017-q2-update/arm-none-eabi/include/c++/6.3.1/functional ****       using _Arity = typename _Traits::__arity;
 584:/home/vdykyy/Install/STM-32/gcc-arm-none-eabi-6-2017-q2-update/arm-none-eabi/include/c++/6.3.1/functional ****       using _Varargs = typename _Traits::__vararg;
 585:/home/vdykyy/Install/STM-32/gcc-arm-none-eabi-6-2017-q2-update/arm-none-eabi/include/c++/6.3.1/functional **** 
 586:/home/vdykyy/Install/STM-32/gcc-arm-none-eabi-6-2017-q2-update/arm-none-eabi/include/c++/6.3.1/functional ****       template<typename _Func, typename... _BoundArgs>
 587:/home/vdykyy/Install/STM-32/gcc-arm-none-eabi-6-2017-q2-update/arm-none-eabi/include/c++/6.3.1/functional **** 	friend struct _Bind_check_arity;
 588:/home/vdykyy/Install/STM-32/gcc-arm-none-eabi-6-2017-q2-update/arm-none-eabi/include/c++/6.3.1/functional **** 
 589:/home/vdykyy/Install/STM-32/gcc-arm-none-eabi-6-2017-q2-update/arm-none-eabi/include/c++/6.3.1/functional ****       _MemFunPtr _M_pmf;
 590:/home/vdykyy/Install/STM-32/gcc-arm-none-eabi-6-2017-q2-update/arm-none-eabi/include/c++/6.3.1/functional **** 
 591:/home/vdykyy/Install/STM-32/gcc-arm-none-eabi-6-2017-q2-update/arm-none-eabi/include/c++/6.3.1/functional ****     public:
 592:/home/vdykyy/Install/STM-32/gcc-arm-none-eabi-6-2017-q2-update/arm-none-eabi/include/c++/6.3.1/functional **** 
 593:/home/vdykyy/Install/STM-32/gcc-arm-none-eabi-6-2017-q2-update/arm-none-eabi/include/c++/6.3.1/functional ****       using result_type = typename _Traits::__result_type;
 594:/home/vdykyy/Install/STM-32/gcc-arm-none-eabi-6-2017-q2-update/arm-none-eabi/include/c++/6.3.1/functional **** 
 595:/home/vdykyy/Install/STM-32/gcc-arm-none-eabi-6-2017-q2-update/arm-none-eabi/include/c++/6.3.1/functional ****       explicit constexpr
 596:/home/vdykyy/Install/STM-32/gcc-arm-none-eabi-6-2017-q2-update/arm-none-eabi/include/c++/6.3.1/functional ****       _Mem_fn_base(_MemFunPtr __pmf) noexcept : _M_pmf(__pmf) { }
 597:/home/vdykyy/Install/STM-32/gcc-arm-none-eabi-6-2017-q2-update/arm-none-eabi/include/c++/6.3.1/functional **** 
 598:/home/vdykyy/Install/STM-32/gcc-arm-none-eabi-6-2017-q2-update/arm-none-eabi/include/c++/6.3.1/functional ****       template<typename... _Args>
 599:/home/vdykyy/Install/STM-32/gcc-arm-none-eabi-6-2017-q2-update/arm-none-eabi/include/c++/6.3.1/functional **** 	auto
 600:/home/vdykyy/Install/STM-32/gcc-arm-none-eabi-6-2017-q2-update/arm-none-eabi/include/c++/6.3.1/functional **** 	operator()(_Args&&... __args) const
 601:/home/vdykyy/Install/STM-32/gcc-arm-none-eabi-6-2017-q2-update/arm-none-eabi/include/c++/6.3.1/functional **** 	noexcept(noexcept(
 602:/home/vdykyy/Install/STM-32/gcc-arm-none-eabi-6-2017-q2-update/arm-none-eabi/include/c++/6.3.1/functional **** 	      std::__invoke(_M_pmf, std::forward<_Args>(__args)...)))
 603:/home/vdykyy/Install/STM-32/gcc-arm-none-eabi-6-2017-q2-update/arm-none-eabi/include/c++/6.3.1/functional **** 	-> decltype(std::__invoke(_M_pmf, std::forward<_Args>(__args)...))
 604:/home/vdykyy/Install/STM-32/gcc-arm-none-eabi-6-2017-q2-update/arm-none-eabi/include/c++/6.3.1/functional **** 	{ return std::__invoke(_M_pmf, std::forward<_Args>(__args)...); }
 605:/home/vdykyy/Install/STM-32/gcc-arm-none-eabi-6-2017-q2-update/arm-none-eabi/include/c++/6.3.1/functional ****     };
 606:/home/vdykyy/Install/STM-32/gcc-arm-none-eabi-6-2017-q2-update/arm-none-eabi/include/c++/6.3.1/functional **** 
 607:/home/vdykyy/Install/STM-32/gcc-arm-none-eabi-6-2017-q2-update/arm-none-eabi/include/c++/6.3.1/functional ****   // Partial specialization for member object pointers.
 608:/home/vdykyy/Install/STM-32/gcc-arm-none-eabi-6-2017-q2-update/arm-none-eabi/include/c++/6.3.1/functional ****   template<typename _MemObjPtr>
 609:/home/vdykyy/Install/STM-32/gcc-arm-none-eabi-6-2017-q2-update/arm-none-eabi/include/c++/6.3.1/functional ****     class _Mem_fn_base<_MemObjPtr, false>
 610:/home/vdykyy/Install/STM-32/gcc-arm-none-eabi-6-2017-q2-update/arm-none-eabi/include/c++/6.3.1/functional ****     {
 611:/home/vdykyy/Install/STM-32/gcc-arm-none-eabi-6-2017-q2-update/arm-none-eabi/include/c++/6.3.1/functional ****       using _Arity = integral_constant<size_t, 0>;
 612:/home/vdykyy/Install/STM-32/gcc-arm-none-eabi-6-2017-q2-update/arm-none-eabi/include/c++/6.3.1/functional ****       using _Varargs = false_type;
 613:/home/vdykyy/Install/STM-32/gcc-arm-none-eabi-6-2017-q2-update/arm-none-eabi/include/c++/6.3.1/functional **** 
 614:/home/vdykyy/Install/STM-32/gcc-arm-none-eabi-6-2017-q2-update/arm-none-eabi/include/c++/6.3.1/functional ****       template<typename _Func, typename... _BoundArgs>
 615:/home/vdykyy/Install/STM-32/gcc-arm-none-eabi-6-2017-q2-update/arm-none-eabi/include/c++/6.3.1/functional **** 	friend struct _Bind_check_arity;
 616:/home/vdykyy/Install/STM-32/gcc-arm-none-eabi-6-2017-q2-update/arm-none-eabi/include/c++/6.3.1/functional **** 
 617:/home/vdykyy/Install/STM-32/gcc-arm-none-eabi-6-2017-q2-update/arm-none-eabi/include/c++/6.3.1/functional ****       _MemObjPtr _M_pm;
 618:/home/vdykyy/Install/STM-32/gcc-arm-none-eabi-6-2017-q2-update/arm-none-eabi/include/c++/6.3.1/functional **** 
 619:/home/vdykyy/Install/STM-32/gcc-arm-none-eabi-6-2017-q2-update/arm-none-eabi/include/c++/6.3.1/functional ****     public:
 620:/home/vdykyy/Install/STM-32/gcc-arm-none-eabi-6-2017-q2-update/arm-none-eabi/include/c++/6.3.1/functional ****       explicit constexpr
 621:/home/vdykyy/Install/STM-32/gcc-arm-none-eabi-6-2017-q2-update/arm-none-eabi/include/c++/6.3.1/functional ****       _Mem_fn_base(_MemObjPtr __pm) noexcept : _M_pm(__pm) { }
 622:/home/vdykyy/Install/STM-32/gcc-arm-none-eabi-6-2017-q2-update/arm-none-eabi/include/c++/6.3.1/functional **** 
 623:/home/vdykyy/Install/STM-32/gcc-arm-none-eabi-6-2017-q2-update/arm-none-eabi/include/c++/6.3.1/functional ****       template<typename _Tp>
 624:/home/vdykyy/Install/STM-32/gcc-arm-none-eabi-6-2017-q2-update/arm-none-eabi/include/c++/6.3.1/functional **** 	auto
 625:/home/vdykyy/Install/STM-32/gcc-arm-none-eabi-6-2017-q2-update/arm-none-eabi/include/c++/6.3.1/functional **** 	operator()(_Tp&& __obj) const
 626:/home/vdykyy/Install/STM-32/gcc-arm-none-eabi-6-2017-q2-update/arm-none-eabi/include/c++/6.3.1/functional **** 	noexcept(noexcept(std::__invoke(_M_pm, std::forward<_Tp>(__obj))))
 627:/home/vdykyy/Install/STM-32/gcc-arm-none-eabi-6-2017-q2-update/arm-none-eabi/include/c++/6.3.1/functional **** 	-> decltype(std::__invoke(_M_pm, std::forward<_Tp>(__obj)))
 628:/home/vdykyy/Install/STM-32/gcc-arm-none-eabi-6-2017-q2-update/arm-none-eabi/include/c++/6.3.1/functional **** 	{ return std::__invoke(_M_pm, std::forward<_Tp>(__obj)); }
 629:/home/vdykyy/Install/STM-32/gcc-arm-none-eabi-6-2017-q2-update/arm-none-eabi/include/c++/6.3.1/functional ****     };
 630:/home/vdykyy/Install/STM-32/gcc-arm-none-eabi-6-2017-q2-update/arm-none-eabi/include/c++/6.3.1/functional **** 
 631:/home/vdykyy/Install/STM-32/gcc-arm-none-eabi-6-2017-q2-update/arm-none-eabi/include/c++/6.3.1/functional ****   template<typename _Res, typename _Class>
 632:/home/vdykyy/Install/STM-32/gcc-arm-none-eabi-6-2017-q2-update/arm-none-eabi/include/c++/6.3.1/functional ****     struct _Mem_fn<_Res _Class::*>
 633:/home/vdykyy/Install/STM-32/gcc-arm-none-eabi-6-2017-q2-update/arm-none-eabi/include/c++/6.3.1/functional ****     : _Mem_fn_base<_Res _Class::*>
 634:/home/vdykyy/Install/STM-32/gcc-arm-none-eabi-6-2017-q2-update/arm-none-eabi/include/c++/6.3.1/functional ****     {
ARM GAS  /tmp/cch7CLaJ.s 			page 13


 635:/home/vdykyy/Install/STM-32/gcc-arm-none-eabi-6-2017-q2-update/arm-none-eabi/include/c++/6.3.1/functional ****       using _Mem_fn_base<_Res _Class::*>::_Mem_fn_base;
 636:/home/vdykyy/Install/STM-32/gcc-arm-none-eabi-6-2017-q2-update/arm-none-eabi/include/c++/6.3.1/functional ****     };
 637:/home/vdykyy/Install/STM-32/gcc-arm-none-eabi-6-2017-q2-update/arm-none-eabi/include/c++/6.3.1/functional **** 
 638:/home/vdykyy/Install/STM-32/gcc-arm-none-eabi-6-2017-q2-update/arm-none-eabi/include/c++/6.3.1/functional ****   // _GLIBCXX_RESOLVE_LIB_DEFECTS
 639:/home/vdykyy/Install/STM-32/gcc-arm-none-eabi-6-2017-q2-update/arm-none-eabi/include/c++/6.3.1/functional ****   // 2048.  Unnecessary mem_fn overloads
 640:/home/vdykyy/Install/STM-32/gcc-arm-none-eabi-6-2017-q2-update/arm-none-eabi/include/c++/6.3.1/functional ****   /**
 641:/home/vdykyy/Install/STM-32/gcc-arm-none-eabi-6-2017-q2-update/arm-none-eabi/include/c++/6.3.1/functional ****    *  @brief Returns a function object that forwards to the member
 642:/home/vdykyy/Install/STM-32/gcc-arm-none-eabi-6-2017-q2-update/arm-none-eabi/include/c++/6.3.1/functional ****    *  pointer @a pm.
 643:/home/vdykyy/Install/STM-32/gcc-arm-none-eabi-6-2017-q2-update/arm-none-eabi/include/c++/6.3.1/functional ****    *  @ingroup functors
 644:/home/vdykyy/Install/STM-32/gcc-arm-none-eabi-6-2017-q2-update/arm-none-eabi/include/c++/6.3.1/functional ****    */
 645:/home/vdykyy/Install/STM-32/gcc-arm-none-eabi-6-2017-q2-update/arm-none-eabi/include/c++/6.3.1/functional ****   template<typename _Tp, typename _Class>
 646:/home/vdykyy/Install/STM-32/gcc-arm-none-eabi-6-2017-q2-update/arm-none-eabi/include/c++/6.3.1/functional ****     inline _Mem_fn<_Tp _Class::*>
 647:/home/vdykyy/Install/STM-32/gcc-arm-none-eabi-6-2017-q2-update/arm-none-eabi/include/c++/6.3.1/functional ****     mem_fn(_Tp _Class::* __pm) noexcept
 648:/home/vdykyy/Install/STM-32/gcc-arm-none-eabi-6-2017-q2-update/arm-none-eabi/include/c++/6.3.1/functional ****     {
 649:/home/vdykyy/Install/STM-32/gcc-arm-none-eabi-6-2017-q2-update/arm-none-eabi/include/c++/6.3.1/functional ****       return _Mem_fn<_Tp _Class::*>(__pm);
 650:/home/vdykyy/Install/STM-32/gcc-arm-none-eabi-6-2017-q2-update/arm-none-eabi/include/c++/6.3.1/functional ****     }
 651:/home/vdykyy/Install/STM-32/gcc-arm-none-eabi-6-2017-q2-update/arm-none-eabi/include/c++/6.3.1/functional **** 
 652:/home/vdykyy/Install/STM-32/gcc-arm-none-eabi-6-2017-q2-update/arm-none-eabi/include/c++/6.3.1/functional ****   /**
 653:/home/vdykyy/Install/STM-32/gcc-arm-none-eabi-6-2017-q2-update/arm-none-eabi/include/c++/6.3.1/functional ****    *  @brief Determines if the given type _Tp is a function object that
 654:/home/vdykyy/Install/STM-32/gcc-arm-none-eabi-6-2017-q2-update/arm-none-eabi/include/c++/6.3.1/functional ****    *  should be treated as a subexpression when evaluating calls to
 655:/home/vdykyy/Install/STM-32/gcc-arm-none-eabi-6-2017-q2-update/arm-none-eabi/include/c++/6.3.1/functional ****    *  function objects returned by bind().
 656:/home/vdykyy/Install/STM-32/gcc-arm-none-eabi-6-2017-q2-update/arm-none-eabi/include/c++/6.3.1/functional ****    *
 657:/home/vdykyy/Install/STM-32/gcc-arm-none-eabi-6-2017-q2-update/arm-none-eabi/include/c++/6.3.1/functional ****    *  C++11 [func.bind.isbind].
 658:/home/vdykyy/Install/STM-32/gcc-arm-none-eabi-6-2017-q2-update/arm-none-eabi/include/c++/6.3.1/functional ****    *  @ingroup binders
 659:/home/vdykyy/Install/STM-32/gcc-arm-none-eabi-6-2017-q2-update/arm-none-eabi/include/c++/6.3.1/functional ****    */
 660:/home/vdykyy/Install/STM-32/gcc-arm-none-eabi-6-2017-q2-update/arm-none-eabi/include/c++/6.3.1/functional ****   template<typename _Tp>
 661:/home/vdykyy/Install/STM-32/gcc-arm-none-eabi-6-2017-q2-update/arm-none-eabi/include/c++/6.3.1/functional ****     struct is_bind_expression
 662:/home/vdykyy/Install/STM-32/gcc-arm-none-eabi-6-2017-q2-update/arm-none-eabi/include/c++/6.3.1/functional ****     : public false_type { };
 663:/home/vdykyy/Install/STM-32/gcc-arm-none-eabi-6-2017-q2-update/arm-none-eabi/include/c++/6.3.1/functional **** 
 664:/home/vdykyy/Install/STM-32/gcc-arm-none-eabi-6-2017-q2-update/arm-none-eabi/include/c++/6.3.1/functional ****   /**
 665:/home/vdykyy/Install/STM-32/gcc-arm-none-eabi-6-2017-q2-update/arm-none-eabi/include/c++/6.3.1/functional ****    *  @brief Determines if the given type _Tp is a placeholder in a
 666:/home/vdykyy/Install/STM-32/gcc-arm-none-eabi-6-2017-q2-update/arm-none-eabi/include/c++/6.3.1/functional ****    *  bind() expression and, if so, which placeholder it is.
 667:/home/vdykyy/Install/STM-32/gcc-arm-none-eabi-6-2017-q2-update/arm-none-eabi/include/c++/6.3.1/functional ****    *
 668:/home/vdykyy/Install/STM-32/gcc-arm-none-eabi-6-2017-q2-update/arm-none-eabi/include/c++/6.3.1/functional ****    *  C++11 [func.bind.isplace].
 669:/home/vdykyy/Install/STM-32/gcc-arm-none-eabi-6-2017-q2-update/arm-none-eabi/include/c++/6.3.1/functional ****    *  @ingroup binders
 670:/home/vdykyy/Install/STM-32/gcc-arm-none-eabi-6-2017-q2-update/arm-none-eabi/include/c++/6.3.1/functional ****    */
 671:/home/vdykyy/Install/STM-32/gcc-arm-none-eabi-6-2017-q2-update/arm-none-eabi/include/c++/6.3.1/functional ****   template<typename _Tp>
 672:/home/vdykyy/Install/STM-32/gcc-arm-none-eabi-6-2017-q2-update/arm-none-eabi/include/c++/6.3.1/functional ****     struct is_placeholder
 673:/home/vdykyy/Install/STM-32/gcc-arm-none-eabi-6-2017-q2-update/arm-none-eabi/include/c++/6.3.1/functional ****     : public integral_constant<int, 0>
 674:/home/vdykyy/Install/STM-32/gcc-arm-none-eabi-6-2017-q2-update/arm-none-eabi/include/c++/6.3.1/functional ****     { };
 675:/home/vdykyy/Install/STM-32/gcc-arm-none-eabi-6-2017-q2-update/arm-none-eabi/include/c++/6.3.1/functional **** 
 676:/home/vdykyy/Install/STM-32/gcc-arm-none-eabi-6-2017-q2-update/arm-none-eabi/include/c++/6.3.1/functional ****   /** @brief The type of placeholder objects defined by libstdc++.
 677:/home/vdykyy/Install/STM-32/gcc-arm-none-eabi-6-2017-q2-update/arm-none-eabi/include/c++/6.3.1/functional ****    *  @ingroup binders
 678:/home/vdykyy/Install/STM-32/gcc-arm-none-eabi-6-2017-q2-update/arm-none-eabi/include/c++/6.3.1/functional ****    */
 679:/home/vdykyy/Install/STM-32/gcc-arm-none-eabi-6-2017-q2-update/arm-none-eabi/include/c++/6.3.1/functional ****   template<int _Num> struct _Placeholder { };
 680:/home/vdykyy/Install/STM-32/gcc-arm-none-eabi-6-2017-q2-update/arm-none-eabi/include/c++/6.3.1/functional **** 
 681:/home/vdykyy/Install/STM-32/gcc-arm-none-eabi-6-2017-q2-update/arm-none-eabi/include/c++/6.3.1/functional ****   _GLIBCXX_END_NAMESPACE_VERSION
 682:/home/vdykyy/Install/STM-32/gcc-arm-none-eabi-6-2017-q2-update/arm-none-eabi/include/c++/6.3.1/functional **** 
 683:/home/vdykyy/Install/STM-32/gcc-arm-none-eabi-6-2017-q2-update/arm-none-eabi/include/c++/6.3.1/functional ****   /** @namespace std::placeholders
 684:/home/vdykyy/Install/STM-32/gcc-arm-none-eabi-6-2017-q2-update/arm-none-eabi/include/c++/6.3.1/functional ****    *  @brief ISO C++11 entities sub-namespace for functional.
 685:/home/vdykyy/Install/STM-32/gcc-arm-none-eabi-6-2017-q2-update/arm-none-eabi/include/c++/6.3.1/functional ****    *  @ingroup binders
 686:/home/vdykyy/Install/STM-32/gcc-arm-none-eabi-6-2017-q2-update/arm-none-eabi/include/c++/6.3.1/functional ****    */
 687:/home/vdykyy/Install/STM-32/gcc-arm-none-eabi-6-2017-q2-update/arm-none-eabi/include/c++/6.3.1/functional ****   namespace placeholders
 688:/home/vdykyy/Install/STM-32/gcc-arm-none-eabi-6-2017-q2-update/arm-none-eabi/include/c++/6.3.1/functional ****   {
 689:/home/vdykyy/Install/STM-32/gcc-arm-none-eabi-6-2017-q2-update/arm-none-eabi/include/c++/6.3.1/functional ****   _GLIBCXX_BEGIN_NAMESPACE_VERSION
 690:/home/vdykyy/Install/STM-32/gcc-arm-none-eabi-6-2017-q2-update/arm-none-eabi/include/c++/6.3.1/functional ****   /* Define a large number of placeholders. There is no way to
 691:/home/vdykyy/Install/STM-32/gcc-arm-none-eabi-6-2017-q2-update/arm-none-eabi/include/c++/6.3.1/functional ****    * simplify this with variadic templates, because we're introducing
ARM GAS  /tmp/cch7CLaJ.s 			page 14


 692:/home/vdykyy/Install/STM-32/gcc-arm-none-eabi-6-2017-q2-update/arm-none-eabi/include/c++/6.3.1/functional ****    * unique names for each.
 693:/home/vdykyy/Install/STM-32/gcc-arm-none-eabi-6-2017-q2-update/arm-none-eabi/include/c++/6.3.1/functional ****    */
 694:/home/vdykyy/Install/STM-32/gcc-arm-none-eabi-6-2017-q2-update/arm-none-eabi/include/c++/6.3.1/functional ****     extern const _Placeholder<1> _1;
 695:/home/vdykyy/Install/STM-32/gcc-arm-none-eabi-6-2017-q2-update/arm-none-eabi/include/c++/6.3.1/functional ****     extern const _Placeholder<2> _2;
 696:/home/vdykyy/Install/STM-32/gcc-arm-none-eabi-6-2017-q2-update/arm-none-eabi/include/c++/6.3.1/functional ****     extern const _Placeholder<3> _3;
 697:/home/vdykyy/Install/STM-32/gcc-arm-none-eabi-6-2017-q2-update/arm-none-eabi/include/c++/6.3.1/functional ****     extern const _Placeholder<4> _4;
 698:/home/vdykyy/Install/STM-32/gcc-arm-none-eabi-6-2017-q2-update/arm-none-eabi/include/c++/6.3.1/functional ****     extern const _Placeholder<5> _5;
 699:/home/vdykyy/Install/STM-32/gcc-arm-none-eabi-6-2017-q2-update/arm-none-eabi/include/c++/6.3.1/functional ****     extern const _Placeholder<6> _6;
 700:/home/vdykyy/Install/STM-32/gcc-arm-none-eabi-6-2017-q2-update/arm-none-eabi/include/c++/6.3.1/functional ****     extern const _Placeholder<7> _7;
 701:/home/vdykyy/Install/STM-32/gcc-arm-none-eabi-6-2017-q2-update/arm-none-eabi/include/c++/6.3.1/functional ****     extern const _Placeholder<8> _8;
 702:/home/vdykyy/Install/STM-32/gcc-arm-none-eabi-6-2017-q2-update/arm-none-eabi/include/c++/6.3.1/functional ****     extern const _Placeholder<9> _9;
 703:/home/vdykyy/Install/STM-32/gcc-arm-none-eabi-6-2017-q2-update/arm-none-eabi/include/c++/6.3.1/functional ****     extern const _Placeholder<10> _10;
 704:/home/vdykyy/Install/STM-32/gcc-arm-none-eabi-6-2017-q2-update/arm-none-eabi/include/c++/6.3.1/functional ****     extern const _Placeholder<11> _11;
 705:/home/vdykyy/Install/STM-32/gcc-arm-none-eabi-6-2017-q2-update/arm-none-eabi/include/c++/6.3.1/functional ****     extern const _Placeholder<12> _12;
 706:/home/vdykyy/Install/STM-32/gcc-arm-none-eabi-6-2017-q2-update/arm-none-eabi/include/c++/6.3.1/functional ****     extern const _Placeholder<13> _13;
 707:/home/vdykyy/Install/STM-32/gcc-arm-none-eabi-6-2017-q2-update/arm-none-eabi/include/c++/6.3.1/functional ****     extern const _Placeholder<14> _14;
 708:/home/vdykyy/Install/STM-32/gcc-arm-none-eabi-6-2017-q2-update/arm-none-eabi/include/c++/6.3.1/functional ****     extern const _Placeholder<15> _15;
 709:/home/vdykyy/Install/STM-32/gcc-arm-none-eabi-6-2017-q2-update/arm-none-eabi/include/c++/6.3.1/functional ****     extern const _Placeholder<16> _16;
 710:/home/vdykyy/Install/STM-32/gcc-arm-none-eabi-6-2017-q2-update/arm-none-eabi/include/c++/6.3.1/functional ****     extern const _Placeholder<17> _17;
 711:/home/vdykyy/Install/STM-32/gcc-arm-none-eabi-6-2017-q2-update/arm-none-eabi/include/c++/6.3.1/functional ****     extern const _Placeholder<18> _18;
 712:/home/vdykyy/Install/STM-32/gcc-arm-none-eabi-6-2017-q2-update/arm-none-eabi/include/c++/6.3.1/functional ****     extern const _Placeholder<19> _19;
 713:/home/vdykyy/Install/STM-32/gcc-arm-none-eabi-6-2017-q2-update/arm-none-eabi/include/c++/6.3.1/functional ****     extern const _Placeholder<20> _20;
 714:/home/vdykyy/Install/STM-32/gcc-arm-none-eabi-6-2017-q2-update/arm-none-eabi/include/c++/6.3.1/functional ****     extern const _Placeholder<21> _21;
 715:/home/vdykyy/Install/STM-32/gcc-arm-none-eabi-6-2017-q2-update/arm-none-eabi/include/c++/6.3.1/functional ****     extern const _Placeholder<22> _22;
 716:/home/vdykyy/Install/STM-32/gcc-arm-none-eabi-6-2017-q2-update/arm-none-eabi/include/c++/6.3.1/functional ****     extern const _Placeholder<23> _23;
 717:/home/vdykyy/Install/STM-32/gcc-arm-none-eabi-6-2017-q2-update/arm-none-eabi/include/c++/6.3.1/functional ****     extern const _Placeholder<24> _24;
 718:/home/vdykyy/Install/STM-32/gcc-arm-none-eabi-6-2017-q2-update/arm-none-eabi/include/c++/6.3.1/functional ****     extern const _Placeholder<25> _25;
 719:/home/vdykyy/Install/STM-32/gcc-arm-none-eabi-6-2017-q2-update/arm-none-eabi/include/c++/6.3.1/functional ****     extern const _Placeholder<26> _26;
 720:/home/vdykyy/Install/STM-32/gcc-arm-none-eabi-6-2017-q2-update/arm-none-eabi/include/c++/6.3.1/functional ****     extern const _Placeholder<27> _27;
 721:/home/vdykyy/Install/STM-32/gcc-arm-none-eabi-6-2017-q2-update/arm-none-eabi/include/c++/6.3.1/functional ****     extern const _Placeholder<28> _28;
 722:/home/vdykyy/Install/STM-32/gcc-arm-none-eabi-6-2017-q2-update/arm-none-eabi/include/c++/6.3.1/functional ****     extern const _Placeholder<29> _29;
 723:/home/vdykyy/Install/STM-32/gcc-arm-none-eabi-6-2017-q2-update/arm-none-eabi/include/c++/6.3.1/functional ****   _GLIBCXX_END_NAMESPACE_VERSION
 724:/home/vdykyy/Install/STM-32/gcc-arm-none-eabi-6-2017-q2-update/arm-none-eabi/include/c++/6.3.1/functional ****   }
 725:/home/vdykyy/Install/STM-32/gcc-arm-none-eabi-6-2017-q2-update/arm-none-eabi/include/c++/6.3.1/functional **** 
 726:/home/vdykyy/Install/STM-32/gcc-arm-none-eabi-6-2017-q2-update/arm-none-eabi/include/c++/6.3.1/functional ****   _GLIBCXX_BEGIN_NAMESPACE_VERSION
 727:/home/vdykyy/Install/STM-32/gcc-arm-none-eabi-6-2017-q2-update/arm-none-eabi/include/c++/6.3.1/functional **** 
 728:/home/vdykyy/Install/STM-32/gcc-arm-none-eabi-6-2017-q2-update/arm-none-eabi/include/c++/6.3.1/functional ****   /**
 729:/home/vdykyy/Install/STM-32/gcc-arm-none-eabi-6-2017-q2-update/arm-none-eabi/include/c++/6.3.1/functional ****    *  Partial specialization of is_placeholder that provides the placeholder
 730:/home/vdykyy/Install/STM-32/gcc-arm-none-eabi-6-2017-q2-update/arm-none-eabi/include/c++/6.3.1/functional ****    *  number for the placeholder objects defined by libstdc++.
 731:/home/vdykyy/Install/STM-32/gcc-arm-none-eabi-6-2017-q2-update/arm-none-eabi/include/c++/6.3.1/functional ****    *  @ingroup binders
 732:/home/vdykyy/Install/STM-32/gcc-arm-none-eabi-6-2017-q2-update/arm-none-eabi/include/c++/6.3.1/functional ****    */
 733:/home/vdykyy/Install/STM-32/gcc-arm-none-eabi-6-2017-q2-update/arm-none-eabi/include/c++/6.3.1/functional ****   template<int _Num>
 734:/home/vdykyy/Install/STM-32/gcc-arm-none-eabi-6-2017-q2-update/arm-none-eabi/include/c++/6.3.1/functional ****     struct is_placeholder<_Placeholder<_Num> >
 735:/home/vdykyy/Install/STM-32/gcc-arm-none-eabi-6-2017-q2-update/arm-none-eabi/include/c++/6.3.1/functional ****     : public integral_constant<int, _Num>
 736:/home/vdykyy/Install/STM-32/gcc-arm-none-eabi-6-2017-q2-update/arm-none-eabi/include/c++/6.3.1/functional ****     { };
 737:/home/vdykyy/Install/STM-32/gcc-arm-none-eabi-6-2017-q2-update/arm-none-eabi/include/c++/6.3.1/functional **** 
 738:/home/vdykyy/Install/STM-32/gcc-arm-none-eabi-6-2017-q2-update/arm-none-eabi/include/c++/6.3.1/functional ****   template<int _Num>
 739:/home/vdykyy/Install/STM-32/gcc-arm-none-eabi-6-2017-q2-update/arm-none-eabi/include/c++/6.3.1/functional ****     struct is_placeholder<const _Placeholder<_Num> >
 740:/home/vdykyy/Install/STM-32/gcc-arm-none-eabi-6-2017-q2-update/arm-none-eabi/include/c++/6.3.1/functional ****     : public integral_constant<int, _Num>
 741:/home/vdykyy/Install/STM-32/gcc-arm-none-eabi-6-2017-q2-update/arm-none-eabi/include/c++/6.3.1/functional ****     { };
 742:/home/vdykyy/Install/STM-32/gcc-arm-none-eabi-6-2017-q2-update/arm-none-eabi/include/c++/6.3.1/functional **** 
 743:/home/vdykyy/Install/STM-32/gcc-arm-none-eabi-6-2017-q2-update/arm-none-eabi/include/c++/6.3.1/functional **** 
 744:/home/vdykyy/Install/STM-32/gcc-arm-none-eabi-6-2017-q2-update/arm-none-eabi/include/c++/6.3.1/functional ****   // Like tuple_element_t but SFINAE-friendly.
 745:/home/vdykyy/Install/STM-32/gcc-arm-none-eabi-6-2017-q2-update/arm-none-eabi/include/c++/6.3.1/functional ****  template<std::size_t __i, typename _Tuple>
 746:/home/vdykyy/Install/STM-32/gcc-arm-none-eabi-6-2017-q2-update/arm-none-eabi/include/c++/6.3.1/functional ****    using _Safe_tuple_element_t
 747:/home/vdykyy/Install/STM-32/gcc-arm-none-eabi-6-2017-q2-update/arm-none-eabi/include/c++/6.3.1/functional ****      = typename enable_if<(__i < tuple_size<_Tuple>::value),
 748:/home/vdykyy/Install/STM-32/gcc-arm-none-eabi-6-2017-q2-update/arm-none-eabi/include/c++/6.3.1/functional **** 			  tuple_element<__i, _Tuple>>::type::type;
ARM GAS  /tmp/cch7CLaJ.s 			page 15


 749:/home/vdykyy/Install/STM-32/gcc-arm-none-eabi-6-2017-q2-update/arm-none-eabi/include/c++/6.3.1/functional **** 
 750:/home/vdykyy/Install/STM-32/gcc-arm-none-eabi-6-2017-q2-update/arm-none-eabi/include/c++/6.3.1/functional ****   /**
 751:/home/vdykyy/Install/STM-32/gcc-arm-none-eabi-6-2017-q2-update/arm-none-eabi/include/c++/6.3.1/functional ****    *  Maps an argument to bind() into an actual argument to the bound
 752:/home/vdykyy/Install/STM-32/gcc-arm-none-eabi-6-2017-q2-update/arm-none-eabi/include/c++/6.3.1/functional ****    *  function object [func.bind.bind]/10. Only the first parameter should
 753:/home/vdykyy/Install/STM-32/gcc-arm-none-eabi-6-2017-q2-update/arm-none-eabi/include/c++/6.3.1/functional ****    *  be specified: the rest are used to determine among the various
 754:/home/vdykyy/Install/STM-32/gcc-arm-none-eabi-6-2017-q2-update/arm-none-eabi/include/c++/6.3.1/functional ****    *  implementations. Note that, although this class is a function
 755:/home/vdykyy/Install/STM-32/gcc-arm-none-eabi-6-2017-q2-update/arm-none-eabi/include/c++/6.3.1/functional ****    *  object, it isn't entirely normal because it takes only two
 756:/home/vdykyy/Install/STM-32/gcc-arm-none-eabi-6-2017-q2-update/arm-none-eabi/include/c++/6.3.1/functional ****    *  parameters regardless of the number of parameters passed to the
 757:/home/vdykyy/Install/STM-32/gcc-arm-none-eabi-6-2017-q2-update/arm-none-eabi/include/c++/6.3.1/functional ****    *  bind expression. The first parameter is the bound argument and
 758:/home/vdykyy/Install/STM-32/gcc-arm-none-eabi-6-2017-q2-update/arm-none-eabi/include/c++/6.3.1/functional ****    *  the second parameter is a tuple containing references to the
 759:/home/vdykyy/Install/STM-32/gcc-arm-none-eabi-6-2017-q2-update/arm-none-eabi/include/c++/6.3.1/functional ****    *  rest of the arguments.
 760:/home/vdykyy/Install/STM-32/gcc-arm-none-eabi-6-2017-q2-update/arm-none-eabi/include/c++/6.3.1/functional ****    */
 761:/home/vdykyy/Install/STM-32/gcc-arm-none-eabi-6-2017-q2-update/arm-none-eabi/include/c++/6.3.1/functional ****   template<typename _Arg,
 762:/home/vdykyy/Install/STM-32/gcc-arm-none-eabi-6-2017-q2-update/arm-none-eabi/include/c++/6.3.1/functional **** 	   bool _IsBindExp = is_bind_expression<_Arg>::value,
 763:/home/vdykyy/Install/STM-32/gcc-arm-none-eabi-6-2017-q2-update/arm-none-eabi/include/c++/6.3.1/functional **** 	   bool _IsPlaceholder = (is_placeholder<_Arg>::value > 0)>
 764:/home/vdykyy/Install/STM-32/gcc-arm-none-eabi-6-2017-q2-update/arm-none-eabi/include/c++/6.3.1/functional ****     class _Mu;
 765:/home/vdykyy/Install/STM-32/gcc-arm-none-eabi-6-2017-q2-update/arm-none-eabi/include/c++/6.3.1/functional **** 
 766:/home/vdykyy/Install/STM-32/gcc-arm-none-eabi-6-2017-q2-update/arm-none-eabi/include/c++/6.3.1/functional ****   /**
 767:/home/vdykyy/Install/STM-32/gcc-arm-none-eabi-6-2017-q2-update/arm-none-eabi/include/c++/6.3.1/functional ****    *  If the argument is reference_wrapper<_Tp>, returns the
 768:/home/vdykyy/Install/STM-32/gcc-arm-none-eabi-6-2017-q2-update/arm-none-eabi/include/c++/6.3.1/functional ****    *  underlying reference.
 769:/home/vdykyy/Install/STM-32/gcc-arm-none-eabi-6-2017-q2-update/arm-none-eabi/include/c++/6.3.1/functional ****    *  C++11 [func.bind.bind] p10 bullet 1.
 770:/home/vdykyy/Install/STM-32/gcc-arm-none-eabi-6-2017-q2-update/arm-none-eabi/include/c++/6.3.1/functional ****    */
 771:/home/vdykyy/Install/STM-32/gcc-arm-none-eabi-6-2017-q2-update/arm-none-eabi/include/c++/6.3.1/functional ****   template<typename _Tp>
 772:/home/vdykyy/Install/STM-32/gcc-arm-none-eabi-6-2017-q2-update/arm-none-eabi/include/c++/6.3.1/functional ****     class _Mu<reference_wrapper<_Tp>, false, false>
 773:/home/vdykyy/Install/STM-32/gcc-arm-none-eabi-6-2017-q2-update/arm-none-eabi/include/c++/6.3.1/functional ****     {
 774:/home/vdykyy/Install/STM-32/gcc-arm-none-eabi-6-2017-q2-update/arm-none-eabi/include/c++/6.3.1/functional ****     public:
 775:/home/vdykyy/Install/STM-32/gcc-arm-none-eabi-6-2017-q2-update/arm-none-eabi/include/c++/6.3.1/functional ****       /* Note: This won't actually work for const volatile
 776:/home/vdykyy/Install/STM-32/gcc-arm-none-eabi-6-2017-q2-update/arm-none-eabi/include/c++/6.3.1/functional ****        * reference_wrappers, because reference_wrapper::get() is const
 777:/home/vdykyy/Install/STM-32/gcc-arm-none-eabi-6-2017-q2-update/arm-none-eabi/include/c++/6.3.1/functional ****        * but not volatile-qualified. This might be a defect in the TR.
 778:/home/vdykyy/Install/STM-32/gcc-arm-none-eabi-6-2017-q2-update/arm-none-eabi/include/c++/6.3.1/functional ****        */
 779:/home/vdykyy/Install/STM-32/gcc-arm-none-eabi-6-2017-q2-update/arm-none-eabi/include/c++/6.3.1/functional ****       template<typename _CVRef, typename _Tuple>
 780:/home/vdykyy/Install/STM-32/gcc-arm-none-eabi-6-2017-q2-update/arm-none-eabi/include/c++/6.3.1/functional **** 	_Tp&
 781:/home/vdykyy/Install/STM-32/gcc-arm-none-eabi-6-2017-q2-update/arm-none-eabi/include/c++/6.3.1/functional **** 	operator()(_CVRef& __arg, _Tuple&) const volatile
 782:/home/vdykyy/Install/STM-32/gcc-arm-none-eabi-6-2017-q2-update/arm-none-eabi/include/c++/6.3.1/functional **** 	{ return __arg.get(); }
 783:/home/vdykyy/Install/STM-32/gcc-arm-none-eabi-6-2017-q2-update/arm-none-eabi/include/c++/6.3.1/functional ****     };
 784:/home/vdykyy/Install/STM-32/gcc-arm-none-eabi-6-2017-q2-update/arm-none-eabi/include/c++/6.3.1/functional **** 
 785:/home/vdykyy/Install/STM-32/gcc-arm-none-eabi-6-2017-q2-update/arm-none-eabi/include/c++/6.3.1/functional ****   /**
 786:/home/vdykyy/Install/STM-32/gcc-arm-none-eabi-6-2017-q2-update/arm-none-eabi/include/c++/6.3.1/functional ****    *  If the argument is a bind expression, we invoke the underlying
 787:/home/vdykyy/Install/STM-32/gcc-arm-none-eabi-6-2017-q2-update/arm-none-eabi/include/c++/6.3.1/functional ****    *  function object with the same cv-qualifiers as we are given and
 788:/home/vdykyy/Install/STM-32/gcc-arm-none-eabi-6-2017-q2-update/arm-none-eabi/include/c++/6.3.1/functional ****    *  pass along all of our arguments (unwrapped).
 789:/home/vdykyy/Install/STM-32/gcc-arm-none-eabi-6-2017-q2-update/arm-none-eabi/include/c++/6.3.1/functional ****    *  C++11 [func.bind.bind] p10 bullet 2.
 790:/home/vdykyy/Install/STM-32/gcc-arm-none-eabi-6-2017-q2-update/arm-none-eabi/include/c++/6.3.1/functional ****    */
 791:/home/vdykyy/Install/STM-32/gcc-arm-none-eabi-6-2017-q2-update/arm-none-eabi/include/c++/6.3.1/functional ****   template<typename _Arg>
 792:/home/vdykyy/Install/STM-32/gcc-arm-none-eabi-6-2017-q2-update/arm-none-eabi/include/c++/6.3.1/functional ****     class _Mu<_Arg, true, false>
 793:/home/vdykyy/Install/STM-32/gcc-arm-none-eabi-6-2017-q2-update/arm-none-eabi/include/c++/6.3.1/functional ****     {
 794:/home/vdykyy/Install/STM-32/gcc-arm-none-eabi-6-2017-q2-update/arm-none-eabi/include/c++/6.3.1/functional ****     public:
 795:/home/vdykyy/Install/STM-32/gcc-arm-none-eabi-6-2017-q2-update/arm-none-eabi/include/c++/6.3.1/functional ****       template<typename _CVArg, typename... _Args>
 796:/home/vdykyy/Install/STM-32/gcc-arm-none-eabi-6-2017-q2-update/arm-none-eabi/include/c++/6.3.1/functional **** 	auto
 797:/home/vdykyy/Install/STM-32/gcc-arm-none-eabi-6-2017-q2-update/arm-none-eabi/include/c++/6.3.1/functional **** 	operator()(_CVArg& __arg,
 798:/home/vdykyy/Install/STM-32/gcc-arm-none-eabi-6-2017-q2-update/arm-none-eabi/include/c++/6.3.1/functional **** 		   tuple<_Args...>& __tuple) const volatile
 799:/home/vdykyy/Install/STM-32/gcc-arm-none-eabi-6-2017-q2-update/arm-none-eabi/include/c++/6.3.1/functional **** 	-> decltype(__arg(declval<_Args>()...))
 800:/home/vdykyy/Install/STM-32/gcc-arm-none-eabi-6-2017-q2-update/arm-none-eabi/include/c++/6.3.1/functional **** 	{
 801:/home/vdykyy/Install/STM-32/gcc-arm-none-eabi-6-2017-q2-update/arm-none-eabi/include/c++/6.3.1/functional **** 	  // Construct an index tuple and forward to __call
 802:/home/vdykyy/Install/STM-32/gcc-arm-none-eabi-6-2017-q2-update/arm-none-eabi/include/c++/6.3.1/functional **** 	  typedef typename _Build_index_tuple<sizeof...(_Args)>::__type
 803:/home/vdykyy/Install/STM-32/gcc-arm-none-eabi-6-2017-q2-update/arm-none-eabi/include/c++/6.3.1/functional **** 	    _Indexes;
 804:/home/vdykyy/Install/STM-32/gcc-arm-none-eabi-6-2017-q2-update/arm-none-eabi/include/c++/6.3.1/functional **** 	  return this->__call(__arg, __tuple, _Indexes());
 805:/home/vdykyy/Install/STM-32/gcc-arm-none-eabi-6-2017-q2-update/arm-none-eabi/include/c++/6.3.1/functional **** 	}
ARM GAS  /tmp/cch7CLaJ.s 			page 16


 806:/home/vdykyy/Install/STM-32/gcc-arm-none-eabi-6-2017-q2-update/arm-none-eabi/include/c++/6.3.1/functional **** 
 807:/home/vdykyy/Install/STM-32/gcc-arm-none-eabi-6-2017-q2-update/arm-none-eabi/include/c++/6.3.1/functional ****     private:
 808:/home/vdykyy/Install/STM-32/gcc-arm-none-eabi-6-2017-q2-update/arm-none-eabi/include/c++/6.3.1/functional ****       // Invokes the underlying function object __arg by unpacking all
 809:/home/vdykyy/Install/STM-32/gcc-arm-none-eabi-6-2017-q2-update/arm-none-eabi/include/c++/6.3.1/functional ****       // of the arguments in the tuple.
 810:/home/vdykyy/Install/STM-32/gcc-arm-none-eabi-6-2017-q2-update/arm-none-eabi/include/c++/6.3.1/functional ****       template<typename _CVArg, typename... _Args, std::size_t... _Indexes>
 811:/home/vdykyy/Install/STM-32/gcc-arm-none-eabi-6-2017-q2-update/arm-none-eabi/include/c++/6.3.1/functional **** 	auto
 812:/home/vdykyy/Install/STM-32/gcc-arm-none-eabi-6-2017-q2-update/arm-none-eabi/include/c++/6.3.1/functional **** 	__call(_CVArg& __arg, tuple<_Args...>& __tuple,
 813:/home/vdykyy/Install/STM-32/gcc-arm-none-eabi-6-2017-q2-update/arm-none-eabi/include/c++/6.3.1/functional **** 	       const _Index_tuple<_Indexes...>&) const volatile
 814:/home/vdykyy/Install/STM-32/gcc-arm-none-eabi-6-2017-q2-update/arm-none-eabi/include/c++/6.3.1/functional **** 	-> decltype(__arg(declval<_Args>()...))
 815:/home/vdykyy/Install/STM-32/gcc-arm-none-eabi-6-2017-q2-update/arm-none-eabi/include/c++/6.3.1/functional **** 	{
 816:/home/vdykyy/Install/STM-32/gcc-arm-none-eabi-6-2017-q2-update/arm-none-eabi/include/c++/6.3.1/functional **** 	  return __arg(std::forward<_Args>(std::get<_Indexes>(__tuple))...);
 817:/home/vdykyy/Install/STM-32/gcc-arm-none-eabi-6-2017-q2-update/arm-none-eabi/include/c++/6.3.1/functional **** 	}
 818:/home/vdykyy/Install/STM-32/gcc-arm-none-eabi-6-2017-q2-update/arm-none-eabi/include/c++/6.3.1/functional ****     };
 819:/home/vdykyy/Install/STM-32/gcc-arm-none-eabi-6-2017-q2-update/arm-none-eabi/include/c++/6.3.1/functional **** 
 820:/home/vdykyy/Install/STM-32/gcc-arm-none-eabi-6-2017-q2-update/arm-none-eabi/include/c++/6.3.1/functional ****   /**
 821:/home/vdykyy/Install/STM-32/gcc-arm-none-eabi-6-2017-q2-update/arm-none-eabi/include/c++/6.3.1/functional ****    *  If the argument is a placeholder for the Nth argument, returns
 822:/home/vdykyy/Install/STM-32/gcc-arm-none-eabi-6-2017-q2-update/arm-none-eabi/include/c++/6.3.1/functional ****    *  a reference to the Nth argument to the bind function object.
 823:/home/vdykyy/Install/STM-32/gcc-arm-none-eabi-6-2017-q2-update/arm-none-eabi/include/c++/6.3.1/functional ****    *  C++11 [func.bind.bind] p10 bullet 3.
 824:/home/vdykyy/Install/STM-32/gcc-arm-none-eabi-6-2017-q2-update/arm-none-eabi/include/c++/6.3.1/functional ****    */
 825:/home/vdykyy/Install/STM-32/gcc-arm-none-eabi-6-2017-q2-update/arm-none-eabi/include/c++/6.3.1/functional ****   template<typename _Arg>
 826:/home/vdykyy/Install/STM-32/gcc-arm-none-eabi-6-2017-q2-update/arm-none-eabi/include/c++/6.3.1/functional ****     class _Mu<_Arg, false, true>
 827:/home/vdykyy/Install/STM-32/gcc-arm-none-eabi-6-2017-q2-update/arm-none-eabi/include/c++/6.3.1/functional ****     {
 828:/home/vdykyy/Install/STM-32/gcc-arm-none-eabi-6-2017-q2-update/arm-none-eabi/include/c++/6.3.1/functional ****     public:
 829:/home/vdykyy/Install/STM-32/gcc-arm-none-eabi-6-2017-q2-update/arm-none-eabi/include/c++/6.3.1/functional ****       template<typename _Tuple>
 830:/home/vdykyy/Install/STM-32/gcc-arm-none-eabi-6-2017-q2-update/arm-none-eabi/include/c++/6.3.1/functional **** 	_Safe_tuple_element_t<(is_placeholder<_Arg>::value - 1), _Tuple>&&
 831:/home/vdykyy/Install/STM-32/gcc-arm-none-eabi-6-2017-q2-update/arm-none-eabi/include/c++/6.3.1/functional **** 	operator()(const volatile _Arg&, _Tuple& __tuple) const volatile
 832:/home/vdykyy/Install/STM-32/gcc-arm-none-eabi-6-2017-q2-update/arm-none-eabi/include/c++/6.3.1/functional **** 	{
 833:/home/vdykyy/Install/STM-32/gcc-arm-none-eabi-6-2017-q2-update/arm-none-eabi/include/c++/6.3.1/functional **** 	  using __type
 834:/home/vdykyy/Install/STM-32/gcc-arm-none-eabi-6-2017-q2-update/arm-none-eabi/include/c++/6.3.1/functional **** 	    = __tuple_element_t<(is_placeholder<_Arg>::value - 1), _Tuple>;
 835:/home/vdykyy/Install/STM-32/gcc-arm-none-eabi-6-2017-q2-update/arm-none-eabi/include/c++/6.3.1/functional **** 	  return std::forward<__type>(
 836:/home/vdykyy/Install/STM-32/gcc-arm-none-eabi-6-2017-q2-update/arm-none-eabi/include/c++/6.3.1/functional **** 	      ::std::get<(is_placeholder<_Arg>::value - 1)>(__tuple));
 837:/home/vdykyy/Install/STM-32/gcc-arm-none-eabi-6-2017-q2-update/arm-none-eabi/include/c++/6.3.1/functional **** 	}
 838:/home/vdykyy/Install/STM-32/gcc-arm-none-eabi-6-2017-q2-update/arm-none-eabi/include/c++/6.3.1/functional ****     };
 839:/home/vdykyy/Install/STM-32/gcc-arm-none-eabi-6-2017-q2-update/arm-none-eabi/include/c++/6.3.1/functional **** 
 840:/home/vdykyy/Install/STM-32/gcc-arm-none-eabi-6-2017-q2-update/arm-none-eabi/include/c++/6.3.1/functional ****   /**
 841:/home/vdykyy/Install/STM-32/gcc-arm-none-eabi-6-2017-q2-update/arm-none-eabi/include/c++/6.3.1/functional ****    *  If the argument is just a value, returns a reference to that
 842:/home/vdykyy/Install/STM-32/gcc-arm-none-eabi-6-2017-q2-update/arm-none-eabi/include/c++/6.3.1/functional ****    *  value. The cv-qualifiers on the reference are determined by the caller.
 843:/home/vdykyy/Install/STM-32/gcc-arm-none-eabi-6-2017-q2-update/arm-none-eabi/include/c++/6.3.1/functional ****    *  C++11 [func.bind.bind] p10 bullet 4.
 844:/home/vdykyy/Install/STM-32/gcc-arm-none-eabi-6-2017-q2-update/arm-none-eabi/include/c++/6.3.1/functional ****    */
 845:/home/vdykyy/Install/STM-32/gcc-arm-none-eabi-6-2017-q2-update/arm-none-eabi/include/c++/6.3.1/functional ****   template<typename _Arg>
 846:/home/vdykyy/Install/STM-32/gcc-arm-none-eabi-6-2017-q2-update/arm-none-eabi/include/c++/6.3.1/functional ****     class _Mu<_Arg, false, false>
 847:/home/vdykyy/Install/STM-32/gcc-arm-none-eabi-6-2017-q2-update/arm-none-eabi/include/c++/6.3.1/functional ****     {
 848:/home/vdykyy/Install/STM-32/gcc-arm-none-eabi-6-2017-q2-update/arm-none-eabi/include/c++/6.3.1/functional ****     public:
 849:/home/vdykyy/Install/STM-32/gcc-arm-none-eabi-6-2017-q2-update/arm-none-eabi/include/c++/6.3.1/functional ****       template<typename _CVArg, typename _Tuple>
 850:/home/vdykyy/Install/STM-32/gcc-arm-none-eabi-6-2017-q2-update/arm-none-eabi/include/c++/6.3.1/functional **** 	_CVArg&&
 851:/home/vdykyy/Install/STM-32/gcc-arm-none-eabi-6-2017-q2-update/arm-none-eabi/include/c++/6.3.1/functional **** 	operator()(_CVArg&& __arg, _Tuple&) const volatile
 852:/home/vdykyy/Install/STM-32/gcc-arm-none-eabi-6-2017-q2-update/arm-none-eabi/include/c++/6.3.1/functional **** 	{ return std::forward<_CVArg>(__arg); }
 853:/home/vdykyy/Install/STM-32/gcc-arm-none-eabi-6-2017-q2-update/arm-none-eabi/include/c++/6.3.1/functional ****     };
 854:/home/vdykyy/Install/STM-32/gcc-arm-none-eabi-6-2017-q2-update/arm-none-eabi/include/c++/6.3.1/functional **** 
 855:/home/vdykyy/Install/STM-32/gcc-arm-none-eabi-6-2017-q2-update/arm-none-eabi/include/c++/6.3.1/functional ****   /**
 856:/home/vdykyy/Install/STM-32/gcc-arm-none-eabi-6-2017-q2-update/arm-none-eabi/include/c++/6.3.1/functional ****    *  Maps member pointers into instances of _Mem_fn but leaves all
 857:/home/vdykyy/Install/STM-32/gcc-arm-none-eabi-6-2017-q2-update/arm-none-eabi/include/c++/6.3.1/functional ****    *  other function objects untouched. Used by std::bind(). The
 858:/home/vdykyy/Install/STM-32/gcc-arm-none-eabi-6-2017-q2-update/arm-none-eabi/include/c++/6.3.1/functional ****    *  primary template handles the non-member-pointer case.
 859:/home/vdykyy/Install/STM-32/gcc-arm-none-eabi-6-2017-q2-update/arm-none-eabi/include/c++/6.3.1/functional ****    */
 860:/home/vdykyy/Install/STM-32/gcc-arm-none-eabi-6-2017-q2-update/arm-none-eabi/include/c++/6.3.1/functional ****   template<typename _Tp>
 861:/home/vdykyy/Install/STM-32/gcc-arm-none-eabi-6-2017-q2-update/arm-none-eabi/include/c++/6.3.1/functional ****     struct _Maybe_wrap_member_pointer
 862:/home/vdykyy/Install/STM-32/gcc-arm-none-eabi-6-2017-q2-update/arm-none-eabi/include/c++/6.3.1/functional ****     {
ARM GAS  /tmp/cch7CLaJ.s 			page 17


 863:/home/vdykyy/Install/STM-32/gcc-arm-none-eabi-6-2017-q2-update/arm-none-eabi/include/c++/6.3.1/functional ****       typedef _Tp type;
 864:/home/vdykyy/Install/STM-32/gcc-arm-none-eabi-6-2017-q2-update/arm-none-eabi/include/c++/6.3.1/functional **** 
 865:/home/vdykyy/Install/STM-32/gcc-arm-none-eabi-6-2017-q2-update/arm-none-eabi/include/c++/6.3.1/functional ****       static constexpr const _Tp&
 866:/home/vdykyy/Install/STM-32/gcc-arm-none-eabi-6-2017-q2-update/arm-none-eabi/include/c++/6.3.1/functional ****       __do_wrap(const _Tp& __x)
 867:/home/vdykyy/Install/STM-32/gcc-arm-none-eabi-6-2017-q2-update/arm-none-eabi/include/c++/6.3.1/functional ****       { return __x; }
 868:/home/vdykyy/Install/STM-32/gcc-arm-none-eabi-6-2017-q2-update/arm-none-eabi/include/c++/6.3.1/functional **** 
 869:/home/vdykyy/Install/STM-32/gcc-arm-none-eabi-6-2017-q2-update/arm-none-eabi/include/c++/6.3.1/functional ****       static constexpr _Tp&&
 870:/home/vdykyy/Install/STM-32/gcc-arm-none-eabi-6-2017-q2-update/arm-none-eabi/include/c++/6.3.1/functional ****       __do_wrap(_Tp&& __x)
 871:/home/vdykyy/Install/STM-32/gcc-arm-none-eabi-6-2017-q2-update/arm-none-eabi/include/c++/6.3.1/functional ****       { return static_cast<_Tp&&>(__x); }
 872:/home/vdykyy/Install/STM-32/gcc-arm-none-eabi-6-2017-q2-update/arm-none-eabi/include/c++/6.3.1/functional ****     };
 873:/home/vdykyy/Install/STM-32/gcc-arm-none-eabi-6-2017-q2-update/arm-none-eabi/include/c++/6.3.1/functional **** 
 874:/home/vdykyy/Install/STM-32/gcc-arm-none-eabi-6-2017-q2-update/arm-none-eabi/include/c++/6.3.1/functional ****   /**
 875:/home/vdykyy/Install/STM-32/gcc-arm-none-eabi-6-2017-q2-update/arm-none-eabi/include/c++/6.3.1/functional ****    *  Maps member pointers into instances of _Mem_fn but leaves all
 876:/home/vdykyy/Install/STM-32/gcc-arm-none-eabi-6-2017-q2-update/arm-none-eabi/include/c++/6.3.1/functional ****    *  other function objects untouched. Used by std::bind(). This
 877:/home/vdykyy/Install/STM-32/gcc-arm-none-eabi-6-2017-q2-update/arm-none-eabi/include/c++/6.3.1/functional ****    *  partial specialization handles the member pointer case.
 878:/home/vdykyy/Install/STM-32/gcc-arm-none-eabi-6-2017-q2-update/arm-none-eabi/include/c++/6.3.1/functional ****    */
 879:/home/vdykyy/Install/STM-32/gcc-arm-none-eabi-6-2017-q2-update/arm-none-eabi/include/c++/6.3.1/functional ****   template<typename _Tp, typename _Class>
 880:/home/vdykyy/Install/STM-32/gcc-arm-none-eabi-6-2017-q2-update/arm-none-eabi/include/c++/6.3.1/functional ****     struct _Maybe_wrap_member_pointer<_Tp _Class::*>
 881:/home/vdykyy/Install/STM-32/gcc-arm-none-eabi-6-2017-q2-update/arm-none-eabi/include/c++/6.3.1/functional ****     {
 882:/home/vdykyy/Install/STM-32/gcc-arm-none-eabi-6-2017-q2-update/arm-none-eabi/include/c++/6.3.1/functional ****       typedef _Mem_fn<_Tp _Class::*> type;
 883:/home/vdykyy/Install/STM-32/gcc-arm-none-eabi-6-2017-q2-update/arm-none-eabi/include/c++/6.3.1/functional **** 
 884:/home/vdykyy/Install/STM-32/gcc-arm-none-eabi-6-2017-q2-update/arm-none-eabi/include/c++/6.3.1/functional ****       static constexpr type
 885:/home/vdykyy/Install/STM-32/gcc-arm-none-eabi-6-2017-q2-update/arm-none-eabi/include/c++/6.3.1/functional ****       __do_wrap(_Tp _Class::* __pm)
 886:/home/vdykyy/Install/STM-32/gcc-arm-none-eabi-6-2017-q2-update/arm-none-eabi/include/c++/6.3.1/functional ****       { return type(__pm); }
 887:/home/vdykyy/Install/STM-32/gcc-arm-none-eabi-6-2017-q2-update/arm-none-eabi/include/c++/6.3.1/functional ****     };
 888:/home/vdykyy/Install/STM-32/gcc-arm-none-eabi-6-2017-q2-update/arm-none-eabi/include/c++/6.3.1/functional **** 
 889:/home/vdykyy/Install/STM-32/gcc-arm-none-eabi-6-2017-q2-update/arm-none-eabi/include/c++/6.3.1/functional ****   // Specialization needed to prevent "forming reference to void" errors when
 890:/home/vdykyy/Install/STM-32/gcc-arm-none-eabi-6-2017-q2-update/arm-none-eabi/include/c++/6.3.1/functional ****   // bind<void>() is called, because argument deduction instantiates
 891:/home/vdykyy/Install/STM-32/gcc-arm-none-eabi-6-2017-q2-update/arm-none-eabi/include/c++/6.3.1/functional ****   // _Maybe_wrap_member_pointer<void> outside the immediate context where
 892:/home/vdykyy/Install/STM-32/gcc-arm-none-eabi-6-2017-q2-update/arm-none-eabi/include/c++/6.3.1/functional ****   // SFINAE applies.
 893:/home/vdykyy/Install/STM-32/gcc-arm-none-eabi-6-2017-q2-update/arm-none-eabi/include/c++/6.3.1/functional ****   template<>
 894:/home/vdykyy/Install/STM-32/gcc-arm-none-eabi-6-2017-q2-update/arm-none-eabi/include/c++/6.3.1/functional ****     struct _Maybe_wrap_member_pointer<void>
 895:/home/vdykyy/Install/STM-32/gcc-arm-none-eabi-6-2017-q2-update/arm-none-eabi/include/c++/6.3.1/functional ****     {
 896:/home/vdykyy/Install/STM-32/gcc-arm-none-eabi-6-2017-q2-update/arm-none-eabi/include/c++/6.3.1/functional ****       typedef void type;
 897:/home/vdykyy/Install/STM-32/gcc-arm-none-eabi-6-2017-q2-update/arm-none-eabi/include/c++/6.3.1/functional ****     };
 898:/home/vdykyy/Install/STM-32/gcc-arm-none-eabi-6-2017-q2-update/arm-none-eabi/include/c++/6.3.1/functional **** 
 899:/home/vdykyy/Install/STM-32/gcc-arm-none-eabi-6-2017-q2-update/arm-none-eabi/include/c++/6.3.1/functional ****   // std::get<I> for volatile-qualified tuples
 900:/home/vdykyy/Install/STM-32/gcc-arm-none-eabi-6-2017-q2-update/arm-none-eabi/include/c++/6.3.1/functional ****   template<std::size_t _Ind, typename... _Tp>
 901:/home/vdykyy/Install/STM-32/gcc-arm-none-eabi-6-2017-q2-update/arm-none-eabi/include/c++/6.3.1/functional ****     inline auto
 902:/home/vdykyy/Install/STM-32/gcc-arm-none-eabi-6-2017-q2-update/arm-none-eabi/include/c++/6.3.1/functional ****     __volget(volatile tuple<_Tp...>& __tuple)
 903:/home/vdykyy/Install/STM-32/gcc-arm-none-eabi-6-2017-q2-update/arm-none-eabi/include/c++/6.3.1/functional ****     -> __tuple_element_t<_Ind, tuple<_Tp...>> volatile&
 904:/home/vdykyy/Install/STM-32/gcc-arm-none-eabi-6-2017-q2-update/arm-none-eabi/include/c++/6.3.1/functional ****     { return std::get<_Ind>(const_cast<tuple<_Tp...>&>(__tuple)); }
 905:/home/vdykyy/Install/STM-32/gcc-arm-none-eabi-6-2017-q2-update/arm-none-eabi/include/c++/6.3.1/functional **** 
 906:/home/vdykyy/Install/STM-32/gcc-arm-none-eabi-6-2017-q2-update/arm-none-eabi/include/c++/6.3.1/functional ****   // std::get<I> for const-volatile-qualified tuples
 907:/home/vdykyy/Install/STM-32/gcc-arm-none-eabi-6-2017-q2-update/arm-none-eabi/include/c++/6.3.1/functional ****   template<std::size_t _Ind, typename... _Tp>
 908:/home/vdykyy/Install/STM-32/gcc-arm-none-eabi-6-2017-q2-update/arm-none-eabi/include/c++/6.3.1/functional ****     inline auto
 909:/home/vdykyy/Install/STM-32/gcc-arm-none-eabi-6-2017-q2-update/arm-none-eabi/include/c++/6.3.1/functional ****     __volget(const volatile tuple<_Tp...>& __tuple)
 910:/home/vdykyy/Install/STM-32/gcc-arm-none-eabi-6-2017-q2-update/arm-none-eabi/include/c++/6.3.1/functional ****     -> __tuple_element_t<_Ind, tuple<_Tp...>> const volatile&
 911:/home/vdykyy/Install/STM-32/gcc-arm-none-eabi-6-2017-q2-update/arm-none-eabi/include/c++/6.3.1/functional ****     { return std::get<_Ind>(const_cast<const tuple<_Tp...>&>(__tuple)); }
 912:/home/vdykyy/Install/STM-32/gcc-arm-none-eabi-6-2017-q2-update/arm-none-eabi/include/c++/6.3.1/functional **** 
 913:/home/vdykyy/Install/STM-32/gcc-arm-none-eabi-6-2017-q2-update/arm-none-eabi/include/c++/6.3.1/functional ****   /// Type of the function object returned from bind().
 914:/home/vdykyy/Install/STM-32/gcc-arm-none-eabi-6-2017-q2-update/arm-none-eabi/include/c++/6.3.1/functional ****   template<typename _Signature>
 915:/home/vdykyy/Install/STM-32/gcc-arm-none-eabi-6-2017-q2-update/arm-none-eabi/include/c++/6.3.1/functional ****     struct _Bind;
 916:/home/vdykyy/Install/STM-32/gcc-arm-none-eabi-6-2017-q2-update/arm-none-eabi/include/c++/6.3.1/functional **** 
 917:/home/vdykyy/Install/STM-32/gcc-arm-none-eabi-6-2017-q2-update/arm-none-eabi/include/c++/6.3.1/functional ****    template<typename _Functor, typename... _Bound_args>
 918:/home/vdykyy/Install/STM-32/gcc-arm-none-eabi-6-2017-q2-update/arm-none-eabi/include/c++/6.3.1/functional ****     class _Bind<_Functor(_Bound_args...)>
 919:/home/vdykyy/Install/STM-32/gcc-arm-none-eabi-6-2017-q2-update/arm-none-eabi/include/c++/6.3.1/functional ****     : public _Weak_result_type<_Functor>
ARM GAS  /tmp/cch7CLaJ.s 			page 18


 920:/home/vdykyy/Install/STM-32/gcc-arm-none-eabi-6-2017-q2-update/arm-none-eabi/include/c++/6.3.1/functional ****     {
 921:/home/vdykyy/Install/STM-32/gcc-arm-none-eabi-6-2017-q2-update/arm-none-eabi/include/c++/6.3.1/functional ****       typedef _Bind __self_type;
 922:/home/vdykyy/Install/STM-32/gcc-arm-none-eabi-6-2017-q2-update/arm-none-eabi/include/c++/6.3.1/functional ****       typedef typename _Build_index_tuple<sizeof...(_Bound_args)>::__type
 923:/home/vdykyy/Install/STM-32/gcc-arm-none-eabi-6-2017-q2-update/arm-none-eabi/include/c++/6.3.1/functional **** 	_Bound_indexes;
 924:/home/vdykyy/Install/STM-32/gcc-arm-none-eabi-6-2017-q2-update/arm-none-eabi/include/c++/6.3.1/functional **** 
 925:/home/vdykyy/Install/STM-32/gcc-arm-none-eabi-6-2017-q2-update/arm-none-eabi/include/c++/6.3.1/functional ****       _Functor _M_f;
 926:/home/vdykyy/Install/STM-32/gcc-arm-none-eabi-6-2017-q2-update/arm-none-eabi/include/c++/6.3.1/functional ****       tuple<_Bound_args...> _M_bound_args;
 927:/home/vdykyy/Install/STM-32/gcc-arm-none-eabi-6-2017-q2-update/arm-none-eabi/include/c++/6.3.1/functional **** 
 928:/home/vdykyy/Install/STM-32/gcc-arm-none-eabi-6-2017-q2-update/arm-none-eabi/include/c++/6.3.1/functional ****       // Call unqualified
 929:/home/vdykyy/Install/STM-32/gcc-arm-none-eabi-6-2017-q2-update/arm-none-eabi/include/c++/6.3.1/functional ****       template<typename _Result, typename... _Args, std::size_t... _Indexes>
 930:/home/vdykyy/Install/STM-32/gcc-arm-none-eabi-6-2017-q2-update/arm-none-eabi/include/c++/6.3.1/functional **** 	_Result
 931:/home/vdykyy/Install/STM-32/gcc-arm-none-eabi-6-2017-q2-update/arm-none-eabi/include/c++/6.3.1/functional **** 	__call(tuple<_Args...>&& __args, _Index_tuple<_Indexes...>)
 932:/home/vdykyy/Install/STM-32/gcc-arm-none-eabi-6-2017-q2-update/arm-none-eabi/include/c++/6.3.1/functional **** 	{
 933:/home/vdykyy/Install/STM-32/gcc-arm-none-eabi-6-2017-q2-update/arm-none-eabi/include/c++/6.3.1/functional **** 	  return _M_f(_Mu<_Bound_args>()
 934:/home/vdykyy/Install/STM-32/gcc-arm-none-eabi-6-2017-q2-update/arm-none-eabi/include/c++/6.3.1/functional **** 		      (std::get<_Indexes>(_M_bound_args), __args)...);
 935:/home/vdykyy/Install/STM-32/gcc-arm-none-eabi-6-2017-q2-update/arm-none-eabi/include/c++/6.3.1/functional **** 	}
 936:/home/vdykyy/Install/STM-32/gcc-arm-none-eabi-6-2017-q2-update/arm-none-eabi/include/c++/6.3.1/functional **** 
 937:/home/vdykyy/Install/STM-32/gcc-arm-none-eabi-6-2017-q2-update/arm-none-eabi/include/c++/6.3.1/functional ****       // Call as const
 938:/home/vdykyy/Install/STM-32/gcc-arm-none-eabi-6-2017-q2-update/arm-none-eabi/include/c++/6.3.1/functional ****       template<typename _Result, typename... _Args, std::size_t... _Indexes>
 939:/home/vdykyy/Install/STM-32/gcc-arm-none-eabi-6-2017-q2-update/arm-none-eabi/include/c++/6.3.1/functional **** 	_Result
 940:/home/vdykyy/Install/STM-32/gcc-arm-none-eabi-6-2017-q2-update/arm-none-eabi/include/c++/6.3.1/functional **** 	__call_c(tuple<_Args...>&& __args, _Index_tuple<_Indexes...>) const
 941:/home/vdykyy/Install/STM-32/gcc-arm-none-eabi-6-2017-q2-update/arm-none-eabi/include/c++/6.3.1/functional **** 	{
 942:/home/vdykyy/Install/STM-32/gcc-arm-none-eabi-6-2017-q2-update/arm-none-eabi/include/c++/6.3.1/functional **** 	  return _M_f(_Mu<_Bound_args>()
 943:/home/vdykyy/Install/STM-32/gcc-arm-none-eabi-6-2017-q2-update/arm-none-eabi/include/c++/6.3.1/functional **** 		      (std::get<_Indexes>(_M_bound_args), __args)...);
 944:/home/vdykyy/Install/STM-32/gcc-arm-none-eabi-6-2017-q2-update/arm-none-eabi/include/c++/6.3.1/functional **** 	}
 945:/home/vdykyy/Install/STM-32/gcc-arm-none-eabi-6-2017-q2-update/arm-none-eabi/include/c++/6.3.1/functional **** 
 946:/home/vdykyy/Install/STM-32/gcc-arm-none-eabi-6-2017-q2-update/arm-none-eabi/include/c++/6.3.1/functional ****       // Call as volatile
 947:/home/vdykyy/Install/STM-32/gcc-arm-none-eabi-6-2017-q2-update/arm-none-eabi/include/c++/6.3.1/functional ****       template<typename _Result, typename... _Args, std::size_t... _Indexes>
 948:/home/vdykyy/Install/STM-32/gcc-arm-none-eabi-6-2017-q2-update/arm-none-eabi/include/c++/6.3.1/functional **** 	_Result
 949:/home/vdykyy/Install/STM-32/gcc-arm-none-eabi-6-2017-q2-update/arm-none-eabi/include/c++/6.3.1/functional **** 	__call_v(tuple<_Args...>&& __args,
 950:/home/vdykyy/Install/STM-32/gcc-arm-none-eabi-6-2017-q2-update/arm-none-eabi/include/c++/6.3.1/functional **** 		 _Index_tuple<_Indexes...>) volatile
 951:/home/vdykyy/Install/STM-32/gcc-arm-none-eabi-6-2017-q2-update/arm-none-eabi/include/c++/6.3.1/functional **** 	{
 952:/home/vdykyy/Install/STM-32/gcc-arm-none-eabi-6-2017-q2-update/arm-none-eabi/include/c++/6.3.1/functional **** 	  return _M_f(_Mu<_Bound_args>()
 953:/home/vdykyy/Install/STM-32/gcc-arm-none-eabi-6-2017-q2-update/arm-none-eabi/include/c++/6.3.1/functional **** 		      (__volget<_Indexes>(_M_bound_args), __args)...);
 954:/home/vdykyy/Install/STM-32/gcc-arm-none-eabi-6-2017-q2-update/arm-none-eabi/include/c++/6.3.1/functional **** 	}
 955:/home/vdykyy/Install/STM-32/gcc-arm-none-eabi-6-2017-q2-update/arm-none-eabi/include/c++/6.3.1/functional **** 
 956:/home/vdykyy/Install/STM-32/gcc-arm-none-eabi-6-2017-q2-update/arm-none-eabi/include/c++/6.3.1/functional ****       // Call as const volatile
 957:/home/vdykyy/Install/STM-32/gcc-arm-none-eabi-6-2017-q2-update/arm-none-eabi/include/c++/6.3.1/functional ****       template<typename _Result, typename... _Args, std::size_t... _Indexes>
 958:/home/vdykyy/Install/STM-32/gcc-arm-none-eabi-6-2017-q2-update/arm-none-eabi/include/c++/6.3.1/functional **** 	_Result
 959:/home/vdykyy/Install/STM-32/gcc-arm-none-eabi-6-2017-q2-update/arm-none-eabi/include/c++/6.3.1/functional **** 	__call_c_v(tuple<_Args...>&& __args,
 960:/home/vdykyy/Install/STM-32/gcc-arm-none-eabi-6-2017-q2-update/arm-none-eabi/include/c++/6.3.1/functional **** 		   _Index_tuple<_Indexes...>) const volatile
 961:/home/vdykyy/Install/STM-32/gcc-arm-none-eabi-6-2017-q2-update/arm-none-eabi/include/c++/6.3.1/functional **** 	{
 962:/home/vdykyy/Install/STM-32/gcc-arm-none-eabi-6-2017-q2-update/arm-none-eabi/include/c++/6.3.1/functional **** 	  return _M_f(_Mu<_Bound_args>()
 963:/home/vdykyy/Install/STM-32/gcc-arm-none-eabi-6-2017-q2-update/arm-none-eabi/include/c++/6.3.1/functional **** 		      (__volget<_Indexes>(_M_bound_args), __args)...);
 964:/home/vdykyy/Install/STM-32/gcc-arm-none-eabi-6-2017-q2-update/arm-none-eabi/include/c++/6.3.1/functional **** 	}
 965:/home/vdykyy/Install/STM-32/gcc-arm-none-eabi-6-2017-q2-update/arm-none-eabi/include/c++/6.3.1/functional **** 
 966:/home/vdykyy/Install/STM-32/gcc-arm-none-eabi-6-2017-q2-update/arm-none-eabi/include/c++/6.3.1/functional ****      public:
 967:/home/vdykyy/Install/STM-32/gcc-arm-none-eabi-6-2017-q2-update/arm-none-eabi/include/c++/6.3.1/functional ****       template<typename... _Args>
 968:/home/vdykyy/Install/STM-32/gcc-arm-none-eabi-6-2017-q2-update/arm-none-eabi/include/c++/6.3.1/functional **** 	explicit _Bind(const _Functor& __f, _Args&&... __args)
 969:/home/vdykyy/Install/STM-32/gcc-arm-none-eabi-6-2017-q2-update/arm-none-eabi/include/c++/6.3.1/functional **** 	: _M_f(__f), _M_bound_args(std::forward<_Args>(__args)...)
 970:/home/vdykyy/Install/STM-32/gcc-arm-none-eabi-6-2017-q2-update/arm-none-eabi/include/c++/6.3.1/functional **** 	{ }
 971:/home/vdykyy/Install/STM-32/gcc-arm-none-eabi-6-2017-q2-update/arm-none-eabi/include/c++/6.3.1/functional **** 
 972:/home/vdykyy/Install/STM-32/gcc-arm-none-eabi-6-2017-q2-update/arm-none-eabi/include/c++/6.3.1/functional ****       template<typename... _Args>
 973:/home/vdykyy/Install/STM-32/gcc-arm-none-eabi-6-2017-q2-update/arm-none-eabi/include/c++/6.3.1/functional **** 	explicit _Bind(_Functor&& __f, _Args&&... __args)
 974:/home/vdykyy/Install/STM-32/gcc-arm-none-eabi-6-2017-q2-update/arm-none-eabi/include/c++/6.3.1/functional **** 	: _M_f(std::move(__f)), _M_bound_args(std::forward<_Args>(__args)...)
 975:/home/vdykyy/Install/STM-32/gcc-arm-none-eabi-6-2017-q2-update/arm-none-eabi/include/c++/6.3.1/functional **** 	{ }
 976:/home/vdykyy/Install/STM-32/gcc-arm-none-eabi-6-2017-q2-update/arm-none-eabi/include/c++/6.3.1/functional **** 
ARM GAS  /tmp/cch7CLaJ.s 			page 19


 977:/home/vdykyy/Install/STM-32/gcc-arm-none-eabi-6-2017-q2-update/arm-none-eabi/include/c++/6.3.1/functional ****       _Bind(const _Bind&) = default;
 978:/home/vdykyy/Install/STM-32/gcc-arm-none-eabi-6-2017-q2-update/arm-none-eabi/include/c++/6.3.1/functional **** 
 979:/home/vdykyy/Install/STM-32/gcc-arm-none-eabi-6-2017-q2-update/arm-none-eabi/include/c++/6.3.1/functional ****       _Bind(_Bind&& __b)
 980:/home/vdykyy/Install/STM-32/gcc-arm-none-eabi-6-2017-q2-update/arm-none-eabi/include/c++/6.3.1/functional ****       : _M_f(std::move(__b._M_f)), _M_bound_args(std::move(__b._M_bound_args))
 981:/home/vdykyy/Install/STM-32/gcc-arm-none-eabi-6-2017-q2-update/arm-none-eabi/include/c++/6.3.1/functional ****       { }
 982:/home/vdykyy/Install/STM-32/gcc-arm-none-eabi-6-2017-q2-update/arm-none-eabi/include/c++/6.3.1/functional **** 
 983:/home/vdykyy/Install/STM-32/gcc-arm-none-eabi-6-2017-q2-update/arm-none-eabi/include/c++/6.3.1/functional ****       // Call unqualified
 984:/home/vdykyy/Install/STM-32/gcc-arm-none-eabi-6-2017-q2-update/arm-none-eabi/include/c++/6.3.1/functional ****       template<typename... _Args, typename _Result
 985:/home/vdykyy/Install/STM-32/gcc-arm-none-eabi-6-2017-q2-update/arm-none-eabi/include/c++/6.3.1/functional **** 	= decltype( std::declval<_Functor&>()(
 986:/home/vdykyy/Install/STM-32/gcc-arm-none-eabi-6-2017-q2-update/arm-none-eabi/include/c++/6.3.1/functional **** 	      _Mu<_Bound_args>()( std::declval<_Bound_args&>(),
 987:/home/vdykyy/Install/STM-32/gcc-arm-none-eabi-6-2017-q2-update/arm-none-eabi/include/c++/6.3.1/functional **** 				  std::declval<tuple<_Args...>&>() )... ) )>
 988:/home/vdykyy/Install/STM-32/gcc-arm-none-eabi-6-2017-q2-update/arm-none-eabi/include/c++/6.3.1/functional **** 	_Result
 989:/home/vdykyy/Install/STM-32/gcc-arm-none-eabi-6-2017-q2-update/arm-none-eabi/include/c++/6.3.1/functional **** 	operator()(_Args&&... __args)
 990:/home/vdykyy/Install/STM-32/gcc-arm-none-eabi-6-2017-q2-update/arm-none-eabi/include/c++/6.3.1/functional **** 	{
 991:/home/vdykyy/Install/STM-32/gcc-arm-none-eabi-6-2017-q2-update/arm-none-eabi/include/c++/6.3.1/functional **** 	  return this->__call<_Result>(
 992:/home/vdykyy/Install/STM-32/gcc-arm-none-eabi-6-2017-q2-update/arm-none-eabi/include/c++/6.3.1/functional **** 	      std::forward_as_tuple(std::forward<_Args>(__args)...),
 993:/home/vdykyy/Install/STM-32/gcc-arm-none-eabi-6-2017-q2-update/arm-none-eabi/include/c++/6.3.1/functional **** 	      _Bound_indexes());
 994:/home/vdykyy/Install/STM-32/gcc-arm-none-eabi-6-2017-q2-update/arm-none-eabi/include/c++/6.3.1/functional **** 	}
 995:/home/vdykyy/Install/STM-32/gcc-arm-none-eabi-6-2017-q2-update/arm-none-eabi/include/c++/6.3.1/functional **** 
 996:/home/vdykyy/Install/STM-32/gcc-arm-none-eabi-6-2017-q2-update/arm-none-eabi/include/c++/6.3.1/functional ****       // Call as const
 997:/home/vdykyy/Install/STM-32/gcc-arm-none-eabi-6-2017-q2-update/arm-none-eabi/include/c++/6.3.1/functional ****       template<typename... _Args, typename _Result
 998:/home/vdykyy/Install/STM-32/gcc-arm-none-eabi-6-2017-q2-update/arm-none-eabi/include/c++/6.3.1/functional **** 	= decltype( std::declval<typename enable_if<(sizeof...(_Args) >= 0),
 999:/home/vdykyy/Install/STM-32/gcc-arm-none-eabi-6-2017-q2-update/arm-none-eabi/include/c++/6.3.1/functional **** 		       typename add_const<_Functor>::type&>::type>()(
1000:/home/vdykyy/Install/STM-32/gcc-arm-none-eabi-6-2017-q2-update/arm-none-eabi/include/c++/6.3.1/functional **** 	      _Mu<_Bound_args>()( std::declval<const _Bound_args&>(),
1001:/home/vdykyy/Install/STM-32/gcc-arm-none-eabi-6-2017-q2-update/arm-none-eabi/include/c++/6.3.1/functional **** 				  std::declval<tuple<_Args...>&>() )... ) )>
1002:/home/vdykyy/Install/STM-32/gcc-arm-none-eabi-6-2017-q2-update/arm-none-eabi/include/c++/6.3.1/functional **** 	_Result
1003:/home/vdykyy/Install/STM-32/gcc-arm-none-eabi-6-2017-q2-update/arm-none-eabi/include/c++/6.3.1/functional **** 	operator()(_Args&&... __args) const
1004:/home/vdykyy/Install/STM-32/gcc-arm-none-eabi-6-2017-q2-update/arm-none-eabi/include/c++/6.3.1/functional **** 	{
1005:/home/vdykyy/Install/STM-32/gcc-arm-none-eabi-6-2017-q2-update/arm-none-eabi/include/c++/6.3.1/functional **** 	  return this->__call_c<_Result>(
1006:/home/vdykyy/Install/STM-32/gcc-arm-none-eabi-6-2017-q2-update/arm-none-eabi/include/c++/6.3.1/functional **** 	      std::forward_as_tuple(std::forward<_Args>(__args)...),
1007:/home/vdykyy/Install/STM-32/gcc-arm-none-eabi-6-2017-q2-update/arm-none-eabi/include/c++/6.3.1/functional **** 	      _Bound_indexes());
1008:/home/vdykyy/Install/STM-32/gcc-arm-none-eabi-6-2017-q2-update/arm-none-eabi/include/c++/6.3.1/functional **** 	}
1009:/home/vdykyy/Install/STM-32/gcc-arm-none-eabi-6-2017-q2-update/arm-none-eabi/include/c++/6.3.1/functional **** 
1010:/home/vdykyy/Install/STM-32/gcc-arm-none-eabi-6-2017-q2-update/arm-none-eabi/include/c++/6.3.1/functional ****       // Call as volatile
1011:/home/vdykyy/Install/STM-32/gcc-arm-none-eabi-6-2017-q2-update/arm-none-eabi/include/c++/6.3.1/functional ****       template<typename... _Args, typename _Result
1012:/home/vdykyy/Install/STM-32/gcc-arm-none-eabi-6-2017-q2-update/arm-none-eabi/include/c++/6.3.1/functional **** 	= decltype( std::declval<typename enable_if<(sizeof...(_Args) >= 0),
1013:/home/vdykyy/Install/STM-32/gcc-arm-none-eabi-6-2017-q2-update/arm-none-eabi/include/c++/6.3.1/functional ****                        typename add_volatile<_Functor>::type&>::type>()(
1014:/home/vdykyy/Install/STM-32/gcc-arm-none-eabi-6-2017-q2-update/arm-none-eabi/include/c++/6.3.1/functional **** 	      _Mu<_Bound_args>()( std::declval<volatile _Bound_args&>(),
1015:/home/vdykyy/Install/STM-32/gcc-arm-none-eabi-6-2017-q2-update/arm-none-eabi/include/c++/6.3.1/functional **** 				  std::declval<tuple<_Args...>&>() )... ) )>
1016:/home/vdykyy/Install/STM-32/gcc-arm-none-eabi-6-2017-q2-update/arm-none-eabi/include/c++/6.3.1/functional **** 	_Result
1017:/home/vdykyy/Install/STM-32/gcc-arm-none-eabi-6-2017-q2-update/arm-none-eabi/include/c++/6.3.1/functional **** 	operator()(_Args&&... __args) volatile
1018:/home/vdykyy/Install/STM-32/gcc-arm-none-eabi-6-2017-q2-update/arm-none-eabi/include/c++/6.3.1/functional **** 	{
1019:/home/vdykyy/Install/STM-32/gcc-arm-none-eabi-6-2017-q2-update/arm-none-eabi/include/c++/6.3.1/functional **** 	  return this->__call_v<_Result>(
1020:/home/vdykyy/Install/STM-32/gcc-arm-none-eabi-6-2017-q2-update/arm-none-eabi/include/c++/6.3.1/functional **** 	      std::forward_as_tuple(std::forward<_Args>(__args)...),
1021:/home/vdykyy/Install/STM-32/gcc-arm-none-eabi-6-2017-q2-update/arm-none-eabi/include/c++/6.3.1/functional **** 	      _Bound_indexes());
1022:/home/vdykyy/Install/STM-32/gcc-arm-none-eabi-6-2017-q2-update/arm-none-eabi/include/c++/6.3.1/functional **** 	}
1023:/home/vdykyy/Install/STM-32/gcc-arm-none-eabi-6-2017-q2-update/arm-none-eabi/include/c++/6.3.1/functional **** 
1024:/home/vdykyy/Install/STM-32/gcc-arm-none-eabi-6-2017-q2-update/arm-none-eabi/include/c++/6.3.1/functional ****       // Call as const volatile
1025:/home/vdykyy/Install/STM-32/gcc-arm-none-eabi-6-2017-q2-update/arm-none-eabi/include/c++/6.3.1/functional ****       template<typename... _Args, typename _Result
1026:/home/vdykyy/Install/STM-32/gcc-arm-none-eabi-6-2017-q2-update/arm-none-eabi/include/c++/6.3.1/functional **** 	= decltype( std::declval<typename enable_if<(sizeof...(_Args) >= 0),
1027:/home/vdykyy/Install/STM-32/gcc-arm-none-eabi-6-2017-q2-update/arm-none-eabi/include/c++/6.3.1/functional ****                        typename add_cv<_Functor>::type&>::type>()(
1028:/home/vdykyy/Install/STM-32/gcc-arm-none-eabi-6-2017-q2-update/arm-none-eabi/include/c++/6.3.1/functional **** 	      _Mu<_Bound_args>()( std::declval<const volatile _Bound_args&>(),
1029:/home/vdykyy/Install/STM-32/gcc-arm-none-eabi-6-2017-q2-update/arm-none-eabi/include/c++/6.3.1/functional **** 				  std::declval<tuple<_Args...>&>() )... ) )>
1030:/home/vdykyy/Install/STM-32/gcc-arm-none-eabi-6-2017-q2-update/arm-none-eabi/include/c++/6.3.1/functional **** 	_Result
1031:/home/vdykyy/Install/STM-32/gcc-arm-none-eabi-6-2017-q2-update/arm-none-eabi/include/c++/6.3.1/functional **** 	operator()(_Args&&... __args) const volatile
1032:/home/vdykyy/Install/STM-32/gcc-arm-none-eabi-6-2017-q2-update/arm-none-eabi/include/c++/6.3.1/functional **** 	{
1033:/home/vdykyy/Install/STM-32/gcc-arm-none-eabi-6-2017-q2-update/arm-none-eabi/include/c++/6.3.1/functional **** 	  return this->__call_c_v<_Result>(
ARM GAS  /tmp/cch7CLaJ.s 			page 20


1034:/home/vdykyy/Install/STM-32/gcc-arm-none-eabi-6-2017-q2-update/arm-none-eabi/include/c++/6.3.1/functional **** 	      std::forward_as_tuple(std::forward<_Args>(__args)...),
1035:/home/vdykyy/Install/STM-32/gcc-arm-none-eabi-6-2017-q2-update/arm-none-eabi/include/c++/6.3.1/functional **** 	      _Bound_indexes());
1036:/home/vdykyy/Install/STM-32/gcc-arm-none-eabi-6-2017-q2-update/arm-none-eabi/include/c++/6.3.1/functional **** 	}
1037:/home/vdykyy/Install/STM-32/gcc-arm-none-eabi-6-2017-q2-update/arm-none-eabi/include/c++/6.3.1/functional ****     };
1038:/home/vdykyy/Install/STM-32/gcc-arm-none-eabi-6-2017-q2-update/arm-none-eabi/include/c++/6.3.1/functional **** 
1039:/home/vdykyy/Install/STM-32/gcc-arm-none-eabi-6-2017-q2-update/arm-none-eabi/include/c++/6.3.1/functional ****   /// Type of the function object returned from bind<R>().
1040:/home/vdykyy/Install/STM-32/gcc-arm-none-eabi-6-2017-q2-update/arm-none-eabi/include/c++/6.3.1/functional ****   template<typename _Result, typename _Signature>
1041:/home/vdykyy/Install/STM-32/gcc-arm-none-eabi-6-2017-q2-update/arm-none-eabi/include/c++/6.3.1/functional ****     struct _Bind_result;
1042:/home/vdykyy/Install/STM-32/gcc-arm-none-eabi-6-2017-q2-update/arm-none-eabi/include/c++/6.3.1/functional **** 
1043:/home/vdykyy/Install/STM-32/gcc-arm-none-eabi-6-2017-q2-update/arm-none-eabi/include/c++/6.3.1/functional ****   template<typename _Result, typename _Functor, typename... _Bound_args>
1044:/home/vdykyy/Install/STM-32/gcc-arm-none-eabi-6-2017-q2-update/arm-none-eabi/include/c++/6.3.1/functional ****     class _Bind_result<_Result, _Functor(_Bound_args...)>
1045:/home/vdykyy/Install/STM-32/gcc-arm-none-eabi-6-2017-q2-update/arm-none-eabi/include/c++/6.3.1/functional ****     {
1046:/home/vdykyy/Install/STM-32/gcc-arm-none-eabi-6-2017-q2-update/arm-none-eabi/include/c++/6.3.1/functional ****       typedef _Bind_result __self_type;
1047:/home/vdykyy/Install/STM-32/gcc-arm-none-eabi-6-2017-q2-update/arm-none-eabi/include/c++/6.3.1/functional ****       typedef typename _Build_index_tuple<sizeof...(_Bound_args)>::__type
1048:/home/vdykyy/Install/STM-32/gcc-arm-none-eabi-6-2017-q2-update/arm-none-eabi/include/c++/6.3.1/functional **** 	_Bound_indexes;
1049:/home/vdykyy/Install/STM-32/gcc-arm-none-eabi-6-2017-q2-update/arm-none-eabi/include/c++/6.3.1/functional **** 
1050:/home/vdykyy/Install/STM-32/gcc-arm-none-eabi-6-2017-q2-update/arm-none-eabi/include/c++/6.3.1/functional ****       _Functor _M_f;
1051:/home/vdykyy/Install/STM-32/gcc-arm-none-eabi-6-2017-q2-update/arm-none-eabi/include/c++/6.3.1/functional ****       tuple<_Bound_args...> _M_bound_args;
1052:/home/vdykyy/Install/STM-32/gcc-arm-none-eabi-6-2017-q2-update/arm-none-eabi/include/c++/6.3.1/functional **** 
1053:/home/vdykyy/Install/STM-32/gcc-arm-none-eabi-6-2017-q2-update/arm-none-eabi/include/c++/6.3.1/functional ****       // sfinae types
1054:/home/vdykyy/Install/STM-32/gcc-arm-none-eabi-6-2017-q2-update/arm-none-eabi/include/c++/6.3.1/functional ****       template<typename _Res>
1055:/home/vdykyy/Install/STM-32/gcc-arm-none-eabi-6-2017-q2-update/arm-none-eabi/include/c++/6.3.1/functional **** 	struct __enable_if_void : enable_if<is_void<_Res>::value, int> { };
1056:/home/vdykyy/Install/STM-32/gcc-arm-none-eabi-6-2017-q2-update/arm-none-eabi/include/c++/6.3.1/functional ****       template<typename _Res>
1057:/home/vdykyy/Install/STM-32/gcc-arm-none-eabi-6-2017-q2-update/arm-none-eabi/include/c++/6.3.1/functional **** 	struct __disable_if_void : enable_if<!is_void<_Res>::value, int> { };
1058:/home/vdykyy/Install/STM-32/gcc-arm-none-eabi-6-2017-q2-update/arm-none-eabi/include/c++/6.3.1/functional **** 
1059:/home/vdykyy/Install/STM-32/gcc-arm-none-eabi-6-2017-q2-update/arm-none-eabi/include/c++/6.3.1/functional ****       // Call unqualified
1060:/home/vdykyy/Install/STM-32/gcc-arm-none-eabi-6-2017-q2-update/arm-none-eabi/include/c++/6.3.1/functional ****       template<typename _Res, typename... _Args, std::size_t... _Indexes>
1061:/home/vdykyy/Install/STM-32/gcc-arm-none-eabi-6-2017-q2-update/arm-none-eabi/include/c++/6.3.1/functional **** 	_Result
1062:/home/vdykyy/Install/STM-32/gcc-arm-none-eabi-6-2017-q2-update/arm-none-eabi/include/c++/6.3.1/functional **** 	__call(tuple<_Args...>&& __args, _Index_tuple<_Indexes...>,
1063:/home/vdykyy/Install/STM-32/gcc-arm-none-eabi-6-2017-q2-update/arm-none-eabi/include/c++/6.3.1/functional **** 	    typename __disable_if_void<_Res>::type = 0)
1064:/home/vdykyy/Install/STM-32/gcc-arm-none-eabi-6-2017-q2-update/arm-none-eabi/include/c++/6.3.1/functional **** 	{
1065:/home/vdykyy/Install/STM-32/gcc-arm-none-eabi-6-2017-q2-update/arm-none-eabi/include/c++/6.3.1/functional **** 	  return _M_f(_Mu<_Bound_args>()
1066:/home/vdykyy/Install/STM-32/gcc-arm-none-eabi-6-2017-q2-update/arm-none-eabi/include/c++/6.3.1/functional **** 		      (std::get<_Indexes>(_M_bound_args), __args)...);
1067:/home/vdykyy/Install/STM-32/gcc-arm-none-eabi-6-2017-q2-update/arm-none-eabi/include/c++/6.3.1/functional **** 	}
1068:/home/vdykyy/Install/STM-32/gcc-arm-none-eabi-6-2017-q2-update/arm-none-eabi/include/c++/6.3.1/functional **** 
1069:/home/vdykyy/Install/STM-32/gcc-arm-none-eabi-6-2017-q2-update/arm-none-eabi/include/c++/6.3.1/functional ****       // Call unqualified, return void
1070:/home/vdykyy/Install/STM-32/gcc-arm-none-eabi-6-2017-q2-update/arm-none-eabi/include/c++/6.3.1/functional ****       template<typename _Res, typename... _Args, std::size_t... _Indexes>
1071:/home/vdykyy/Install/STM-32/gcc-arm-none-eabi-6-2017-q2-update/arm-none-eabi/include/c++/6.3.1/functional **** 	void
1072:/home/vdykyy/Install/STM-32/gcc-arm-none-eabi-6-2017-q2-update/arm-none-eabi/include/c++/6.3.1/functional **** 	__call(tuple<_Args...>&& __args, _Index_tuple<_Indexes...>,
1073:/home/vdykyy/Install/STM-32/gcc-arm-none-eabi-6-2017-q2-update/arm-none-eabi/include/c++/6.3.1/functional **** 	    typename __enable_if_void<_Res>::type = 0)
1074:/home/vdykyy/Install/STM-32/gcc-arm-none-eabi-6-2017-q2-update/arm-none-eabi/include/c++/6.3.1/functional **** 	{
1075:/home/vdykyy/Install/STM-32/gcc-arm-none-eabi-6-2017-q2-update/arm-none-eabi/include/c++/6.3.1/functional **** 	  _M_f(_Mu<_Bound_args>()
1076:/home/vdykyy/Install/STM-32/gcc-arm-none-eabi-6-2017-q2-update/arm-none-eabi/include/c++/6.3.1/functional **** 	       (std::get<_Indexes>(_M_bound_args), __args)...);
1077:/home/vdykyy/Install/STM-32/gcc-arm-none-eabi-6-2017-q2-update/arm-none-eabi/include/c++/6.3.1/functional **** 	}
1078:/home/vdykyy/Install/STM-32/gcc-arm-none-eabi-6-2017-q2-update/arm-none-eabi/include/c++/6.3.1/functional **** 
1079:/home/vdykyy/Install/STM-32/gcc-arm-none-eabi-6-2017-q2-update/arm-none-eabi/include/c++/6.3.1/functional ****       // Call as const
1080:/home/vdykyy/Install/STM-32/gcc-arm-none-eabi-6-2017-q2-update/arm-none-eabi/include/c++/6.3.1/functional ****       template<typename _Res, typename... _Args, std::size_t... _Indexes>
1081:/home/vdykyy/Install/STM-32/gcc-arm-none-eabi-6-2017-q2-update/arm-none-eabi/include/c++/6.3.1/functional **** 	_Result
1082:/home/vdykyy/Install/STM-32/gcc-arm-none-eabi-6-2017-q2-update/arm-none-eabi/include/c++/6.3.1/functional **** 	__call(tuple<_Args...>&& __args, _Index_tuple<_Indexes...>,
1083:/home/vdykyy/Install/STM-32/gcc-arm-none-eabi-6-2017-q2-update/arm-none-eabi/include/c++/6.3.1/functional **** 	    typename __disable_if_void<_Res>::type = 0) const
1084:/home/vdykyy/Install/STM-32/gcc-arm-none-eabi-6-2017-q2-update/arm-none-eabi/include/c++/6.3.1/functional **** 	{
1085:/home/vdykyy/Install/STM-32/gcc-arm-none-eabi-6-2017-q2-update/arm-none-eabi/include/c++/6.3.1/functional **** 	  return _M_f(_Mu<_Bound_args>()
1086:/home/vdykyy/Install/STM-32/gcc-arm-none-eabi-6-2017-q2-update/arm-none-eabi/include/c++/6.3.1/functional **** 		      (std::get<_Indexes>(_M_bound_args), __args)...);
1087:/home/vdykyy/Install/STM-32/gcc-arm-none-eabi-6-2017-q2-update/arm-none-eabi/include/c++/6.3.1/functional **** 	}
1088:/home/vdykyy/Install/STM-32/gcc-arm-none-eabi-6-2017-q2-update/arm-none-eabi/include/c++/6.3.1/functional **** 
1089:/home/vdykyy/Install/STM-32/gcc-arm-none-eabi-6-2017-q2-update/arm-none-eabi/include/c++/6.3.1/functional ****       // Call as const, return void
1090:/home/vdykyy/Install/STM-32/gcc-arm-none-eabi-6-2017-q2-update/arm-none-eabi/include/c++/6.3.1/functional ****       template<typename _Res, typename... _Args, std::size_t... _Indexes>
ARM GAS  /tmp/cch7CLaJ.s 			page 21


1091:/home/vdykyy/Install/STM-32/gcc-arm-none-eabi-6-2017-q2-update/arm-none-eabi/include/c++/6.3.1/functional **** 	void
1092:/home/vdykyy/Install/STM-32/gcc-arm-none-eabi-6-2017-q2-update/arm-none-eabi/include/c++/6.3.1/functional **** 	__call(tuple<_Args...>&& __args, _Index_tuple<_Indexes...>,
1093:/home/vdykyy/Install/STM-32/gcc-arm-none-eabi-6-2017-q2-update/arm-none-eabi/include/c++/6.3.1/functional **** 	    typename __enable_if_void<_Res>::type = 0) const
1094:/home/vdykyy/Install/STM-32/gcc-arm-none-eabi-6-2017-q2-update/arm-none-eabi/include/c++/6.3.1/functional **** 	{
1095:/home/vdykyy/Install/STM-32/gcc-arm-none-eabi-6-2017-q2-update/arm-none-eabi/include/c++/6.3.1/functional **** 	  _M_f(_Mu<_Bound_args>()
1096:/home/vdykyy/Install/STM-32/gcc-arm-none-eabi-6-2017-q2-update/arm-none-eabi/include/c++/6.3.1/functional **** 	       (std::get<_Indexes>(_M_bound_args),  __args)...);
1097:/home/vdykyy/Install/STM-32/gcc-arm-none-eabi-6-2017-q2-update/arm-none-eabi/include/c++/6.3.1/functional **** 	}
1098:/home/vdykyy/Install/STM-32/gcc-arm-none-eabi-6-2017-q2-update/arm-none-eabi/include/c++/6.3.1/functional **** 
1099:/home/vdykyy/Install/STM-32/gcc-arm-none-eabi-6-2017-q2-update/arm-none-eabi/include/c++/6.3.1/functional ****       // Call as volatile
1100:/home/vdykyy/Install/STM-32/gcc-arm-none-eabi-6-2017-q2-update/arm-none-eabi/include/c++/6.3.1/functional ****       template<typename _Res, typename... _Args, std::size_t... _Indexes>
1101:/home/vdykyy/Install/STM-32/gcc-arm-none-eabi-6-2017-q2-update/arm-none-eabi/include/c++/6.3.1/functional **** 	_Result
1102:/home/vdykyy/Install/STM-32/gcc-arm-none-eabi-6-2017-q2-update/arm-none-eabi/include/c++/6.3.1/functional **** 	__call(tuple<_Args...>&& __args, _Index_tuple<_Indexes...>,
1103:/home/vdykyy/Install/STM-32/gcc-arm-none-eabi-6-2017-q2-update/arm-none-eabi/include/c++/6.3.1/functional **** 	    typename __disable_if_void<_Res>::type = 0) volatile
1104:/home/vdykyy/Install/STM-32/gcc-arm-none-eabi-6-2017-q2-update/arm-none-eabi/include/c++/6.3.1/functional **** 	{
1105:/home/vdykyy/Install/STM-32/gcc-arm-none-eabi-6-2017-q2-update/arm-none-eabi/include/c++/6.3.1/functional **** 	  return _M_f(_Mu<_Bound_args>()
1106:/home/vdykyy/Install/STM-32/gcc-arm-none-eabi-6-2017-q2-update/arm-none-eabi/include/c++/6.3.1/functional **** 		      (__volget<_Indexes>(_M_bound_args), __args)...);
1107:/home/vdykyy/Install/STM-32/gcc-arm-none-eabi-6-2017-q2-update/arm-none-eabi/include/c++/6.3.1/functional **** 	}
1108:/home/vdykyy/Install/STM-32/gcc-arm-none-eabi-6-2017-q2-update/arm-none-eabi/include/c++/6.3.1/functional **** 
1109:/home/vdykyy/Install/STM-32/gcc-arm-none-eabi-6-2017-q2-update/arm-none-eabi/include/c++/6.3.1/functional ****       // Call as volatile, return void
1110:/home/vdykyy/Install/STM-32/gcc-arm-none-eabi-6-2017-q2-update/arm-none-eabi/include/c++/6.3.1/functional ****       template<typename _Res, typename... _Args, std::size_t... _Indexes>
1111:/home/vdykyy/Install/STM-32/gcc-arm-none-eabi-6-2017-q2-update/arm-none-eabi/include/c++/6.3.1/functional **** 	void
1112:/home/vdykyy/Install/STM-32/gcc-arm-none-eabi-6-2017-q2-update/arm-none-eabi/include/c++/6.3.1/functional **** 	__call(tuple<_Args...>&& __args, _Index_tuple<_Indexes...>,
1113:/home/vdykyy/Install/STM-32/gcc-arm-none-eabi-6-2017-q2-update/arm-none-eabi/include/c++/6.3.1/functional **** 	    typename __enable_if_void<_Res>::type = 0) volatile
1114:/home/vdykyy/Install/STM-32/gcc-arm-none-eabi-6-2017-q2-update/arm-none-eabi/include/c++/6.3.1/functional **** 	{
1115:/home/vdykyy/Install/STM-32/gcc-arm-none-eabi-6-2017-q2-update/arm-none-eabi/include/c++/6.3.1/functional **** 	  _M_f(_Mu<_Bound_args>()
1116:/home/vdykyy/Install/STM-32/gcc-arm-none-eabi-6-2017-q2-update/arm-none-eabi/include/c++/6.3.1/functional **** 	       (__volget<_Indexes>(_M_bound_args), __args)...);
1117:/home/vdykyy/Install/STM-32/gcc-arm-none-eabi-6-2017-q2-update/arm-none-eabi/include/c++/6.3.1/functional **** 	}
1118:/home/vdykyy/Install/STM-32/gcc-arm-none-eabi-6-2017-q2-update/arm-none-eabi/include/c++/6.3.1/functional **** 
1119:/home/vdykyy/Install/STM-32/gcc-arm-none-eabi-6-2017-q2-update/arm-none-eabi/include/c++/6.3.1/functional ****       // Call as const volatile
1120:/home/vdykyy/Install/STM-32/gcc-arm-none-eabi-6-2017-q2-update/arm-none-eabi/include/c++/6.3.1/functional ****       template<typename _Res, typename... _Args, std::size_t... _Indexes>
1121:/home/vdykyy/Install/STM-32/gcc-arm-none-eabi-6-2017-q2-update/arm-none-eabi/include/c++/6.3.1/functional **** 	_Result
1122:/home/vdykyy/Install/STM-32/gcc-arm-none-eabi-6-2017-q2-update/arm-none-eabi/include/c++/6.3.1/functional **** 	__call(tuple<_Args...>&& __args, _Index_tuple<_Indexes...>,
1123:/home/vdykyy/Install/STM-32/gcc-arm-none-eabi-6-2017-q2-update/arm-none-eabi/include/c++/6.3.1/functional **** 	    typename __disable_if_void<_Res>::type = 0) const volatile
1124:/home/vdykyy/Install/STM-32/gcc-arm-none-eabi-6-2017-q2-update/arm-none-eabi/include/c++/6.3.1/functional **** 	{
1125:/home/vdykyy/Install/STM-32/gcc-arm-none-eabi-6-2017-q2-update/arm-none-eabi/include/c++/6.3.1/functional **** 	  return _M_f(_Mu<_Bound_args>()
1126:/home/vdykyy/Install/STM-32/gcc-arm-none-eabi-6-2017-q2-update/arm-none-eabi/include/c++/6.3.1/functional **** 		      (__volget<_Indexes>(_M_bound_args), __args)...);
1127:/home/vdykyy/Install/STM-32/gcc-arm-none-eabi-6-2017-q2-update/arm-none-eabi/include/c++/6.3.1/functional **** 	}
1128:/home/vdykyy/Install/STM-32/gcc-arm-none-eabi-6-2017-q2-update/arm-none-eabi/include/c++/6.3.1/functional **** 
1129:/home/vdykyy/Install/STM-32/gcc-arm-none-eabi-6-2017-q2-update/arm-none-eabi/include/c++/6.3.1/functional ****       // Call as const volatile, return void
1130:/home/vdykyy/Install/STM-32/gcc-arm-none-eabi-6-2017-q2-update/arm-none-eabi/include/c++/6.3.1/functional ****       template<typename _Res, typename... _Args, std::size_t... _Indexes>
1131:/home/vdykyy/Install/STM-32/gcc-arm-none-eabi-6-2017-q2-update/arm-none-eabi/include/c++/6.3.1/functional **** 	void
1132:/home/vdykyy/Install/STM-32/gcc-arm-none-eabi-6-2017-q2-update/arm-none-eabi/include/c++/6.3.1/functional **** 	__call(tuple<_Args...>&& __args,
1133:/home/vdykyy/Install/STM-32/gcc-arm-none-eabi-6-2017-q2-update/arm-none-eabi/include/c++/6.3.1/functional **** 	       _Index_tuple<_Indexes...>,
1134:/home/vdykyy/Install/STM-32/gcc-arm-none-eabi-6-2017-q2-update/arm-none-eabi/include/c++/6.3.1/functional **** 	    typename __enable_if_void<_Res>::type = 0) const volatile
1135:/home/vdykyy/Install/STM-32/gcc-arm-none-eabi-6-2017-q2-update/arm-none-eabi/include/c++/6.3.1/functional **** 	{
1136:/home/vdykyy/Install/STM-32/gcc-arm-none-eabi-6-2017-q2-update/arm-none-eabi/include/c++/6.3.1/functional **** 	  _M_f(_Mu<_Bound_args>()
1137:/home/vdykyy/Install/STM-32/gcc-arm-none-eabi-6-2017-q2-update/arm-none-eabi/include/c++/6.3.1/functional **** 	       (__volget<_Indexes>(_M_bound_args), __args)...);
1138:/home/vdykyy/Install/STM-32/gcc-arm-none-eabi-6-2017-q2-update/arm-none-eabi/include/c++/6.3.1/functional **** 	}
1139:/home/vdykyy/Install/STM-32/gcc-arm-none-eabi-6-2017-q2-update/arm-none-eabi/include/c++/6.3.1/functional **** 
1140:/home/vdykyy/Install/STM-32/gcc-arm-none-eabi-6-2017-q2-update/arm-none-eabi/include/c++/6.3.1/functional ****     public:
1141:/home/vdykyy/Install/STM-32/gcc-arm-none-eabi-6-2017-q2-update/arm-none-eabi/include/c++/6.3.1/functional ****       typedef _Result result_type;
1142:/home/vdykyy/Install/STM-32/gcc-arm-none-eabi-6-2017-q2-update/arm-none-eabi/include/c++/6.3.1/functional **** 
1143:/home/vdykyy/Install/STM-32/gcc-arm-none-eabi-6-2017-q2-update/arm-none-eabi/include/c++/6.3.1/functional ****       template<typename... _Args>
1144:/home/vdykyy/Install/STM-32/gcc-arm-none-eabi-6-2017-q2-update/arm-none-eabi/include/c++/6.3.1/functional **** 	explicit _Bind_result(const _Functor& __f, _Args&&... __args)
1145:/home/vdykyy/Install/STM-32/gcc-arm-none-eabi-6-2017-q2-update/arm-none-eabi/include/c++/6.3.1/functional **** 	: _M_f(__f), _M_bound_args(std::forward<_Args>(__args)...)
1146:/home/vdykyy/Install/STM-32/gcc-arm-none-eabi-6-2017-q2-update/arm-none-eabi/include/c++/6.3.1/functional **** 	{ }
1147:/home/vdykyy/Install/STM-32/gcc-arm-none-eabi-6-2017-q2-update/arm-none-eabi/include/c++/6.3.1/functional **** 
ARM GAS  /tmp/cch7CLaJ.s 			page 22


1148:/home/vdykyy/Install/STM-32/gcc-arm-none-eabi-6-2017-q2-update/arm-none-eabi/include/c++/6.3.1/functional ****       template<typename... _Args>
1149:/home/vdykyy/Install/STM-32/gcc-arm-none-eabi-6-2017-q2-update/arm-none-eabi/include/c++/6.3.1/functional **** 	explicit _Bind_result(_Functor&& __f, _Args&&... __args)
1150:/home/vdykyy/Install/STM-32/gcc-arm-none-eabi-6-2017-q2-update/arm-none-eabi/include/c++/6.3.1/functional **** 	: _M_f(std::move(__f)), _M_bound_args(std::forward<_Args>(__args)...)
1151:/home/vdykyy/Install/STM-32/gcc-arm-none-eabi-6-2017-q2-update/arm-none-eabi/include/c++/6.3.1/functional **** 	{ }
1152:/home/vdykyy/Install/STM-32/gcc-arm-none-eabi-6-2017-q2-update/arm-none-eabi/include/c++/6.3.1/functional **** 
1153:/home/vdykyy/Install/STM-32/gcc-arm-none-eabi-6-2017-q2-update/arm-none-eabi/include/c++/6.3.1/functional ****       _Bind_result(const _Bind_result&) = default;
1154:/home/vdykyy/Install/STM-32/gcc-arm-none-eabi-6-2017-q2-update/arm-none-eabi/include/c++/6.3.1/functional **** 
1155:/home/vdykyy/Install/STM-32/gcc-arm-none-eabi-6-2017-q2-update/arm-none-eabi/include/c++/6.3.1/functional ****       _Bind_result(_Bind_result&& __b)
1156:/home/vdykyy/Install/STM-32/gcc-arm-none-eabi-6-2017-q2-update/arm-none-eabi/include/c++/6.3.1/functional ****       : _M_f(std::move(__b._M_f)), _M_bound_args(std::move(__b._M_bound_args))
1157:/home/vdykyy/Install/STM-32/gcc-arm-none-eabi-6-2017-q2-update/arm-none-eabi/include/c++/6.3.1/functional ****       { }
1158:/home/vdykyy/Install/STM-32/gcc-arm-none-eabi-6-2017-q2-update/arm-none-eabi/include/c++/6.3.1/functional **** 
1159:/home/vdykyy/Install/STM-32/gcc-arm-none-eabi-6-2017-q2-update/arm-none-eabi/include/c++/6.3.1/functional ****       // Call unqualified
1160:/home/vdykyy/Install/STM-32/gcc-arm-none-eabi-6-2017-q2-update/arm-none-eabi/include/c++/6.3.1/functional ****       template<typename... _Args>
1161:/home/vdykyy/Install/STM-32/gcc-arm-none-eabi-6-2017-q2-update/arm-none-eabi/include/c++/6.3.1/functional **** 	result_type
1162:/home/vdykyy/Install/STM-32/gcc-arm-none-eabi-6-2017-q2-update/arm-none-eabi/include/c++/6.3.1/functional **** 	operator()(_Args&&... __args)
1163:/home/vdykyy/Install/STM-32/gcc-arm-none-eabi-6-2017-q2-update/arm-none-eabi/include/c++/6.3.1/functional **** 	{
1164:/home/vdykyy/Install/STM-32/gcc-arm-none-eabi-6-2017-q2-update/arm-none-eabi/include/c++/6.3.1/functional **** 	  return this->__call<_Result>(
1165:/home/vdykyy/Install/STM-32/gcc-arm-none-eabi-6-2017-q2-update/arm-none-eabi/include/c++/6.3.1/functional **** 	      std::forward_as_tuple(std::forward<_Args>(__args)...),
1166:/home/vdykyy/Install/STM-32/gcc-arm-none-eabi-6-2017-q2-update/arm-none-eabi/include/c++/6.3.1/functional **** 	      _Bound_indexes());
1167:/home/vdykyy/Install/STM-32/gcc-arm-none-eabi-6-2017-q2-update/arm-none-eabi/include/c++/6.3.1/functional **** 	}
1168:/home/vdykyy/Install/STM-32/gcc-arm-none-eabi-6-2017-q2-update/arm-none-eabi/include/c++/6.3.1/functional **** 
1169:/home/vdykyy/Install/STM-32/gcc-arm-none-eabi-6-2017-q2-update/arm-none-eabi/include/c++/6.3.1/functional ****       // Call as const
1170:/home/vdykyy/Install/STM-32/gcc-arm-none-eabi-6-2017-q2-update/arm-none-eabi/include/c++/6.3.1/functional ****       template<typename... _Args>
1171:/home/vdykyy/Install/STM-32/gcc-arm-none-eabi-6-2017-q2-update/arm-none-eabi/include/c++/6.3.1/functional **** 	result_type
1172:/home/vdykyy/Install/STM-32/gcc-arm-none-eabi-6-2017-q2-update/arm-none-eabi/include/c++/6.3.1/functional **** 	operator()(_Args&&... __args) const
1173:/home/vdykyy/Install/STM-32/gcc-arm-none-eabi-6-2017-q2-update/arm-none-eabi/include/c++/6.3.1/functional **** 	{
1174:/home/vdykyy/Install/STM-32/gcc-arm-none-eabi-6-2017-q2-update/arm-none-eabi/include/c++/6.3.1/functional **** 	  return this->__call<_Result>(
1175:/home/vdykyy/Install/STM-32/gcc-arm-none-eabi-6-2017-q2-update/arm-none-eabi/include/c++/6.3.1/functional **** 	      std::forward_as_tuple(std::forward<_Args>(__args)...),
1176:/home/vdykyy/Install/STM-32/gcc-arm-none-eabi-6-2017-q2-update/arm-none-eabi/include/c++/6.3.1/functional **** 	      _Bound_indexes());
1177:/home/vdykyy/Install/STM-32/gcc-arm-none-eabi-6-2017-q2-update/arm-none-eabi/include/c++/6.3.1/functional **** 	}
1178:/home/vdykyy/Install/STM-32/gcc-arm-none-eabi-6-2017-q2-update/arm-none-eabi/include/c++/6.3.1/functional **** 
1179:/home/vdykyy/Install/STM-32/gcc-arm-none-eabi-6-2017-q2-update/arm-none-eabi/include/c++/6.3.1/functional ****       // Call as volatile
1180:/home/vdykyy/Install/STM-32/gcc-arm-none-eabi-6-2017-q2-update/arm-none-eabi/include/c++/6.3.1/functional ****       template<typename... _Args>
1181:/home/vdykyy/Install/STM-32/gcc-arm-none-eabi-6-2017-q2-update/arm-none-eabi/include/c++/6.3.1/functional **** 	result_type
1182:/home/vdykyy/Install/STM-32/gcc-arm-none-eabi-6-2017-q2-update/arm-none-eabi/include/c++/6.3.1/functional **** 	operator()(_Args&&... __args) volatile
1183:/home/vdykyy/Install/STM-32/gcc-arm-none-eabi-6-2017-q2-update/arm-none-eabi/include/c++/6.3.1/functional **** 	{
1184:/home/vdykyy/Install/STM-32/gcc-arm-none-eabi-6-2017-q2-update/arm-none-eabi/include/c++/6.3.1/functional **** 	  return this->__call<_Result>(
1185:/home/vdykyy/Install/STM-32/gcc-arm-none-eabi-6-2017-q2-update/arm-none-eabi/include/c++/6.3.1/functional **** 	      std::forward_as_tuple(std::forward<_Args>(__args)...),
1186:/home/vdykyy/Install/STM-32/gcc-arm-none-eabi-6-2017-q2-update/arm-none-eabi/include/c++/6.3.1/functional **** 	      _Bound_indexes());
1187:/home/vdykyy/Install/STM-32/gcc-arm-none-eabi-6-2017-q2-update/arm-none-eabi/include/c++/6.3.1/functional **** 	}
1188:/home/vdykyy/Install/STM-32/gcc-arm-none-eabi-6-2017-q2-update/arm-none-eabi/include/c++/6.3.1/functional **** 
1189:/home/vdykyy/Install/STM-32/gcc-arm-none-eabi-6-2017-q2-update/arm-none-eabi/include/c++/6.3.1/functional ****       // Call as const volatile
1190:/home/vdykyy/Install/STM-32/gcc-arm-none-eabi-6-2017-q2-update/arm-none-eabi/include/c++/6.3.1/functional ****       template<typename... _Args>
1191:/home/vdykyy/Install/STM-32/gcc-arm-none-eabi-6-2017-q2-update/arm-none-eabi/include/c++/6.3.1/functional **** 	result_type
1192:/home/vdykyy/Install/STM-32/gcc-arm-none-eabi-6-2017-q2-update/arm-none-eabi/include/c++/6.3.1/functional **** 	operator()(_Args&&... __args) const volatile
1193:/home/vdykyy/Install/STM-32/gcc-arm-none-eabi-6-2017-q2-update/arm-none-eabi/include/c++/6.3.1/functional **** 	{
1194:/home/vdykyy/Install/STM-32/gcc-arm-none-eabi-6-2017-q2-update/arm-none-eabi/include/c++/6.3.1/functional **** 	  return this->__call<_Result>(
1195:/home/vdykyy/Install/STM-32/gcc-arm-none-eabi-6-2017-q2-update/arm-none-eabi/include/c++/6.3.1/functional **** 	      std::forward_as_tuple(std::forward<_Args>(__args)...),
1196:/home/vdykyy/Install/STM-32/gcc-arm-none-eabi-6-2017-q2-update/arm-none-eabi/include/c++/6.3.1/functional **** 	      _Bound_indexes());
1197:/home/vdykyy/Install/STM-32/gcc-arm-none-eabi-6-2017-q2-update/arm-none-eabi/include/c++/6.3.1/functional **** 	}
1198:/home/vdykyy/Install/STM-32/gcc-arm-none-eabi-6-2017-q2-update/arm-none-eabi/include/c++/6.3.1/functional ****     };
1199:/home/vdykyy/Install/STM-32/gcc-arm-none-eabi-6-2017-q2-update/arm-none-eabi/include/c++/6.3.1/functional **** 
1200:/home/vdykyy/Install/STM-32/gcc-arm-none-eabi-6-2017-q2-update/arm-none-eabi/include/c++/6.3.1/functional ****   /**
1201:/home/vdykyy/Install/STM-32/gcc-arm-none-eabi-6-2017-q2-update/arm-none-eabi/include/c++/6.3.1/functional ****    *  @brief Class template _Bind is always a bind expression.
1202:/home/vdykyy/Install/STM-32/gcc-arm-none-eabi-6-2017-q2-update/arm-none-eabi/include/c++/6.3.1/functional ****    *  @ingroup binders
1203:/home/vdykyy/Install/STM-32/gcc-arm-none-eabi-6-2017-q2-update/arm-none-eabi/include/c++/6.3.1/functional ****    */
1204:/home/vdykyy/Install/STM-32/gcc-arm-none-eabi-6-2017-q2-update/arm-none-eabi/include/c++/6.3.1/functional ****   template<typename _Signature>
ARM GAS  /tmp/cch7CLaJ.s 			page 23


1205:/home/vdykyy/Install/STM-32/gcc-arm-none-eabi-6-2017-q2-update/arm-none-eabi/include/c++/6.3.1/functional ****     struct is_bind_expression<_Bind<_Signature> >
1206:/home/vdykyy/Install/STM-32/gcc-arm-none-eabi-6-2017-q2-update/arm-none-eabi/include/c++/6.3.1/functional ****     : public true_type { };
1207:/home/vdykyy/Install/STM-32/gcc-arm-none-eabi-6-2017-q2-update/arm-none-eabi/include/c++/6.3.1/functional **** 
1208:/home/vdykyy/Install/STM-32/gcc-arm-none-eabi-6-2017-q2-update/arm-none-eabi/include/c++/6.3.1/functional ****   /**
1209:/home/vdykyy/Install/STM-32/gcc-arm-none-eabi-6-2017-q2-update/arm-none-eabi/include/c++/6.3.1/functional ****    *  @brief Class template _Bind is always a bind expression.
1210:/home/vdykyy/Install/STM-32/gcc-arm-none-eabi-6-2017-q2-update/arm-none-eabi/include/c++/6.3.1/functional ****    *  @ingroup binders
1211:/home/vdykyy/Install/STM-32/gcc-arm-none-eabi-6-2017-q2-update/arm-none-eabi/include/c++/6.3.1/functional ****    */
1212:/home/vdykyy/Install/STM-32/gcc-arm-none-eabi-6-2017-q2-update/arm-none-eabi/include/c++/6.3.1/functional ****   template<typename _Signature>
1213:/home/vdykyy/Install/STM-32/gcc-arm-none-eabi-6-2017-q2-update/arm-none-eabi/include/c++/6.3.1/functional ****     struct is_bind_expression<const _Bind<_Signature> >
1214:/home/vdykyy/Install/STM-32/gcc-arm-none-eabi-6-2017-q2-update/arm-none-eabi/include/c++/6.3.1/functional ****     : public true_type { };
1215:/home/vdykyy/Install/STM-32/gcc-arm-none-eabi-6-2017-q2-update/arm-none-eabi/include/c++/6.3.1/functional **** 
1216:/home/vdykyy/Install/STM-32/gcc-arm-none-eabi-6-2017-q2-update/arm-none-eabi/include/c++/6.3.1/functional ****   /**
1217:/home/vdykyy/Install/STM-32/gcc-arm-none-eabi-6-2017-q2-update/arm-none-eabi/include/c++/6.3.1/functional ****    *  @brief Class template _Bind is always a bind expression.
1218:/home/vdykyy/Install/STM-32/gcc-arm-none-eabi-6-2017-q2-update/arm-none-eabi/include/c++/6.3.1/functional ****    *  @ingroup binders
1219:/home/vdykyy/Install/STM-32/gcc-arm-none-eabi-6-2017-q2-update/arm-none-eabi/include/c++/6.3.1/functional ****    */
1220:/home/vdykyy/Install/STM-32/gcc-arm-none-eabi-6-2017-q2-update/arm-none-eabi/include/c++/6.3.1/functional ****   template<typename _Signature>
1221:/home/vdykyy/Install/STM-32/gcc-arm-none-eabi-6-2017-q2-update/arm-none-eabi/include/c++/6.3.1/functional ****     struct is_bind_expression<volatile _Bind<_Signature> >
1222:/home/vdykyy/Install/STM-32/gcc-arm-none-eabi-6-2017-q2-update/arm-none-eabi/include/c++/6.3.1/functional ****     : public true_type { };
1223:/home/vdykyy/Install/STM-32/gcc-arm-none-eabi-6-2017-q2-update/arm-none-eabi/include/c++/6.3.1/functional **** 
1224:/home/vdykyy/Install/STM-32/gcc-arm-none-eabi-6-2017-q2-update/arm-none-eabi/include/c++/6.3.1/functional ****   /**
1225:/home/vdykyy/Install/STM-32/gcc-arm-none-eabi-6-2017-q2-update/arm-none-eabi/include/c++/6.3.1/functional ****    *  @brief Class template _Bind is always a bind expression.
1226:/home/vdykyy/Install/STM-32/gcc-arm-none-eabi-6-2017-q2-update/arm-none-eabi/include/c++/6.3.1/functional ****    *  @ingroup binders
1227:/home/vdykyy/Install/STM-32/gcc-arm-none-eabi-6-2017-q2-update/arm-none-eabi/include/c++/6.3.1/functional ****    */
1228:/home/vdykyy/Install/STM-32/gcc-arm-none-eabi-6-2017-q2-update/arm-none-eabi/include/c++/6.3.1/functional ****   template<typename _Signature>
1229:/home/vdykyy/Install/STM-32/gcc-arm-none-eabi-6-2017-q2-update/arm-none-eabi/include/c++/6.3.1/functional ****     struct is_bind_expression<const volatile _Bind<_Signature>>
1230:/home/vdykyy/Install/STM-32/gcc-arm-none-eabi-6-2017-q2-update/arm-none-eabi/include/c++/6.3.1/functional ****     : public true_type { };
1231:/home/vdykyy/Install/STM-32/gcc-arm-none-eabi-6-2017-q2-update/arm-none-eabi/include/c++/6.3.1/functional **** 
1232:/home/vdykyy/Install/STM-32/gcc-arm-none-eabi-6-2017-q2-update/arm-none-eabi/include/c++/6.3.1/functional ****   /**
1233:/home/vdykyy/Install/STM-32/gcc-arm-none-eabi-6-2017-q2-update/arm-none-eabi/include/c++/6.3.1/functional ****    *  @brief Class template _Bind_result is always a bind expression.
1234:/home/vdykyy/Install/STM-32/gcc-arm-none-eabi-6-2017-q2-update/arm-none-eabi/include/c++/6.3.1/functional ****    *  @ingroup binders
1235:/home/vdykyy/Install/STM-32/gcc-arm-none-eabi-6-2017-q2-update/arm-none-eabi/include/c++/6.3.1/functional ****    */
1236:/home/vdykyy/Install/STM-32/gcc-arm-none-eabi-6-2017-q2-update/arm-none-eabi/include/c++/6.3.1/functional ****   template<typename _Result, typename _Signature>
1237:/home/vdykyy/Install/STM-32/gcc-arm-none-eabi-6-2017-q2-update/arm-none-eabi/include/c++/6.3.1/functional ****     struct is_bind_expression<_Bind_result<_Result, _Signature>>
1238:/home/vdykyy/Install/STM-32/gcc-arm-none-eabi-6-2017-q2-update/arm-none-eabi/include/c++/6.3.1/functional ****     : public true_type { };
1239:/home/vdykyy/Install/STM-32/gcc-arm-none-eabi-6-2017-q2-update/arm-none-eabi/include/c++/6.3.1/functional **** 
1240:/home/vdykyy/Install/STM-32/gcc-arm-none-eabi-6-2017-q2-update/arm-none-eabi/include/c++/6.3.1/functional ****   /**
1241:/home/vdykyy/Install/STM-32/gcc-arm-none-eabi-6-2017-q2-update/arm-none-eabi/include/c++/6.3.1/functional ****    *  @brief Class template _Bind_result is always a bind expression.
1242:/home/vdykyy/Install/STM-32/gcc-arm-none-eabi-6-2017-q2-update/arm-none-eabi/include/c++/6.3.1/functional ****    *  @ingroup binders
1243:/home/vdykyy/Install/STM-32/gcc-arm-none-eabi-6-2017-q2-update/arm-none-eabi/include/c++/6.3.1/functional ****    */
1244:/home/vdykyy/Install/STM-32/gcc-arm-none-eabi-6-2017-q2-update/arm-none-eabi/include/c++/6.3.1/functional ****   template<typename _Result, typename _Signature>
1245:/home/vdykyy/Install/STM-32/gcc-arm-none-eabi-6-2017-q2-update/arm-none-eabi/include/c++/6.3.1/functional ****     struct is_bind_expression<const _Bind_result<_Result, _Signature>>
1246:/home/vdykyy/Install/STM-32/gcc-arm-none-eabi-6-2017-q2-update/arm-none-eabi/include/c++/6.3.1/functional ****     : public true_type { };
1247:/home/vdykyy/Install/STM-32/gcc-arm-none-eabi-6-2017-q2-update/arm-none-eabi/include/c++/6.3.1/functional **** 
1248:/home/vdykyy/Install/STM-32/gcc-arm-none-eabi-6-2017-q2-update/arm-none-eabi/include/c++/6.3.1/functional ****   /**
1249:/home/vdykyy/Install/STM-32/gcc-arm-none-eabi-6-2017-q2-update/arm-none-eabi/include/c++/6.3.1/functional ****    *  @brief Class template _Bind_result is always a bind expression.
1250:/home/vdykyy/Install/STM-32/gcc-arm-none-eabi-6-2017-q2-update/arm-none-eabi/include/c++/6.3.1/functional ****    *  @ingroup binders
1251:/home/vdykyy/Install/STM-32/gcc-arm-none-eabi-6-2017-q2-update/arm-none-eabi/include/c++/6.3.1/functional ****    */
1252:/home/vdykyy/Install/STM-32/gcc-arm-none-eabi-6-2017-q2-update/arm-none-eabi/include/c++/6.3.1/functional ****   template<typename _Result, typename _Signature>
1253:/home/vdykyy/Install/STM-32/gcc-arm-none-eabi-6-2017-q2-update/arm-none-eabi/include/c++/6.3.1/functional ****     struct is_bind_expression<volatile _Bind_result<_Result, _Signature>>
1254:/home/vdykyy/Install/STM-32/gcc-arm-none-eabi-6-2017-q2-update/arm-none-eabi/include/c++/6.3.1/functional ****     : public true_type { };
1255:/home/vdykyy/Install/STM-32/gcc-arm-none-eabi-6-2017-q2-update/arm-none-eabi/include/c++/6.3.1/functional **** 
1256:/home/vdykyy/Install/STM-32/gcc-arm-none-eabi-6-2017-q2-update/arm-none-eabi/include/c++/6.3.1/functional ****   /**
1257:/home/vdykyy/Install/STM-32/gcc-arm-none-eabi-6-2017-q2-update/arm-none-eabi/include/c++/6.3.1/functional ****    *  @brief Class template _Bind_result is always a bind expression.
1258:/home/vdykyy/Install/STM-32/gcc-arm-none-eabi-6-2017-q2-update/arm-none-eabi/include/c++/6.3.1/functional ****    *  @ingroup binders
1259:/home/vdykyy/Install/STM-32/gcc-arm-none-eabi-6-2017-q2-update/arm-none-eabi/include/c++/6.3.1/functional ****    */
1260:/home/vdykyy/Install/STM-32/gcc-arm-none-eabi-6-2017-q2-update/arm-none-eabi/include/c++/6.3.1/functional ****   template<typename _Result, typename _Signature>
1261:/home/vdykyy/Install/STM-32/gcc-arm-none-eabi-6-2017-q2-update/arm-none-eabi/include/c++/6.3.1/functional ****     struct is_bind_expression<const volatile _Bind_result<_Result, _Signature>>
ARM GAS  /tmp/cch7CLaJ.s 			page 24


1262:/home/vdykyy/Install/STM-32/gcc-arm-none-eabi-6-2017-q2-update/arm-none-eabi/include/c++/6.3.1/functional ****     : public true_type { };
1263:/home/vdykyy/Install/STM-32/gcc-arm-none-eabi-6-2017-q2-update/arm-none-eabi/include/c++/6.3.1/functional **** 
1264:/home/vdykyy/Install/STM-32/gcc-arm-none-eabi-6-2017-q2-update/arm-none-eabi/include/c++/6.3.1/functional ****   template<typename _Func, typename... _BoundArgs>
1265:/home/vdykyy/Install/STM-32/gcc-arm-none-eabi-6-2017-q2-update/arm-none-eabi/include/c++/6.3.1/functional ****     struct _Bind_check_arity { };
1266:/home/vdykyy/Install/STM-32/gcc-arm-none-eabi-6-2017-q2-update/arm-none-eabi/include/c++/6.3.1/functional **** 
1267:/home/vdykyy/Install/STM-32/gcc-arm-none-eabi-6-2017-q2-update/arm-none-eabi/include/c++/6.3.1/functional ****   template<typename _Ret, typename... _Args, typename... _BoundArgs>
1268:/home/vdykyy/Install/STM-32/gcc-arm-none-eabi-6-2017-q2-update/arm-none-eabi/include/c++/6.3.1/functional ****     struct _Bind_check_arity<_Ret (*)(_Args...), _BoundArgs...>
1269:/home/vdykyy/Install/STM-32/gcc-arm-none-eabi-6-2017-q2-update/arm-none-eabi/include/c++/6.3.1/functional ****     {
1270:/home/vdykyy/Install/STM-32/gcc-arm-none-eabi-6-2017-q2-update/arm-none-eabi/include/c++/6.3.1/functional ****       static_assert(sizeof...(_BoundArgs) == sizeof...(_Args),
1271:/home/vdykyy/Install/STM-32/gcc-arm-none-eabi-6-2017-q2-update/arm-none-eabi/include/c++/6.3.1/functional ****                    "Wrong number of arguments for function");
1272:/home/vdykyy/Install/STM-32/gcc-arm-none-eabi-6-2017-q2-update/arm-none-eabi/include/c++/6.3.1/functional ****     };
1273:/home/vdykyy/Install/STM-32/gcc-arm-none-eabi-6-2017-q2-update/arm-none-eabi/include/c++/6.3.1/functional **** 
1274:/home/vdykyy/Install/STM-32/gcc-arm-none-eabi-6-2017-q2-update/arm-none-eabi/include/c++/6.3.1/functional ****   template<typename _Ret, typename... _Args, typename... _BoundArgs>
1275:/home/vdykyy/Install/STM-32/gcc-arm-none-eabi-6-2017-q2-update/arm-none-eabi/include/c++/6.3.1/functional ****     struct _Bind_check_arity<_Ret (*)(_Args......), _BoundArgs...>
1276:/home/vdykyy/Install/STM-32/gcc-arm-none-eabi-6-2017-q2-update/arm-none-eabi/include/c++/6.3.1/functional ****     {
1277:/home/vdykyy/Install/STM-32/gcc-arm-none-eabi-6-2017-q2-update/arm-none-eabi/include/c++/6.3.1/functional ****       static_assert(sizeof...(_BoundArgs) >= sizeof...(_Args),
1278:/home/vdykyy/Install/STM-32/gcc-arm-none-eabi-6-2017-q2-update/arm-none-eabi/include/c++/6.3.1/functional ****                    "Wrong number of arguments for function");
1279:/home/vdykyy/Install/STM-32/gcc-arm-none-eabi-6-2017-q2-update/arm-none-eabi/include/c++/6.3.1/functional ****     };
1280:/home/vdykyy/Install/STM-32/gcc-arm-none-eabi-6-2017-q2-update/arm-none-eabi/include/c++/6.3.1/functional **** 
1281:/home/vdykyy/Install/STM-32/gcc-arm-none-eabi-6-2017-q2-update/arm-none-eabi/include/c++/6.3.1/functional ****   template<typename _Tp, typename _Class, typename... _BoundArgs>
1282:/home/vdykyy/Install/STM-32/gcc-arm-none-eabi-6-2017-q2-update/arm-none-eabi/include/c++/6.3.1/functional ****     struct _Bind_check_arity<_Tp _Class::*, _BoundArgs...>
1283:/home/vdykyy/Install/STM-32/gcc-arm-none-eabi-6-2017-q2-update/arm-none-eabi/include/c++/6.3.1/functional ****     {
1284:/home/vdykyy/Install/STM-32/gcc-arm-none-eabi-6-2017-q2-update/arm-none-eabi/include/c++/6.3.1/functional ****       using _Arity = typename _Mem_fn<_Tp _Class::*>::_Arity;
1285:/home/vdykyy/Install/STM-32/gcc-arm-none-eabi-6-2017-q2-update/arm-none-eabi/include/c++/6.3.1/functional ****       using _Varargs = typename _Mem_fn<_Tp _Class::*>::_Varargs;
1286:/home/vdykyy/Install/STM-32/gcc-arm-none-eabi-6-2017-q2-update/arm-none-eabi/include/c++/6.3.1/functional ****       static_assert(_Varargs::value
1287:/home/vdykyy/Install/STM-32/gcc-arm-none-eabi-6-2017-q2-update/arm-none-eabi/include/c++/6.3.1/functional **** 		    ? sizeof...(_BoundArgs) >= _Arity::value + 1
1288:/home/vdykyy/Install/STM-32/gcc-arm-none-eabi-6-2017-q2-update/arm-none-eabi/include/c++/6.3.1/functional **** 		    : sizeof...(_BoundArgs) == _Arity::value + 1,
1289:/home/vdykyy/Install/STM-32/gcc-arm-none-eabi-6-2017-q2-update/arm-none-eabi/include/c++/6.3.1/functional **** 		    "Wrong number of arguments for pointer-to-member");
1290:/home/vdykyy/Install/STM-32/gcc-arm-none-eabi-6-2017-q2-update/arm-none-eabi/include/c++/6.3.1/functional ****     };
1291:/home/vdykyy/Install/STM-32/gcc-arm-none-eabi-6-2017-q2-update/arm-none-eabi/include/c++/6.3.1/functional **** 
1292:/home/vdykyy/Install/STM-32/gcc-arm-none-eabi-6-2017-q2-update/arm-none-eabi/include/c++/6.3.1/functional ****   // Trait type used to remove std::bind() from overload set via SFINAE
1293:/home/vdykyy/Install/STM-32/gcc-arm-none-eabi-6-2017-q2-update/arm-none-eabi/include/c++/6.3.1/functional ****   // when first argument has integer type, so that std::bind() will
1294:/home/vdykyy/Install/STM-32/gcc-arm-none-eabi-6-2017-q2-update/arm-none-eabi/include/c++/6.3.1/functional ****   // not be a better match than ::bind() from the BSD Sockets API.
1295:/home/vdykyy/Install/STM-32/gcc-arm-none-eabi-6-2017-q2-update/arm-none-eabi/include/c++/6.3.1/functional ****   template<typename _Tp, typename _Tp2 = typename decay<_Tp>::type>
1296:/home/vdykyy/Install/STM-32/gcc-arm-none-eabi-6-2017-q2-update/arm-none-eabi/include/c++/6.3.1/functional ****     using __is_socketlike = __or_<is_integral<_Tp2>, is_enum<_Tp2>>;
1297:/home/vdykyy/Install/STM-32/gcc-arm-none-eabi-6-2017-q2-update/arm-none-eabi/include/c++/6.3.1/functional **** 
1298:/home/vdykyy/Install/STM-32/gcc-arm-none-eabi-6-2017-q2-update/arm-none-eabi/include/c++/6.3.1/functional ****   template<bool _SocketLike, typename _Func, typename... _BoundArgs>
1299:/home/vdykyy/Install/STM-32/gcc-arm-none-eabi-6-2017-q2-update/arm-none-eabi/include/c++/6.3.1/functional ****     struct _Bind_helper
1300:/home/vdykyy/Install/STM-32/gcc-arm-none-eabi-6-2017-q2-update/arm-none-eabi/include/c++/6.3.1/functional ****     : _Bind_check_arity<typename decay<_Func>::type, _BoundArgs...>
1301:/home/vdykyy/Install/STM-32/gcc-arm-none-eabi-6-2017-q2-update/arm-none-eabi/include/c++/6.3.1/functional ****     {
1302:/home/vdykyy/Install/STM-32/gcc-arm-none-eabi-6-2017-q2-update/arm-none-eabi/include/c++/6.3.1/functional ****       typedef _Maybe_wrap_member_pointer<typename decay<_Func>::type>
1303:/home/vdykyy/Install/STM-32/gcc-arm-none-eabi-6-2017-q2-update/arm-none-eabi/include/c++/6.3.1/functional **** 	__maybe_type;
1304:/home/vdykyy/Install/STM-32/gcc-arm-none-eabi-6-2017-q2-update/arm-none-eabi/include/c++/6.3.1/functional ****       typedef typename __maybe_type::type __func_type;
1305:/home/vdykyy/Install/STM-32/gcc-arm-none-eabi-6-2017-q2-update/arm-none-eabi/include/c++/6.3.1/functional ****       typedef _Bind<__func_type(typename decay<_BoundArgs>::type...)> type;
1306:/home/vdykyy/Install/STM-32/gcc-arm-none-eabi-6-2017-q2-update/arm-none-eabi/include/c++/6.3.1/functional ****     };
1307:/home/vdykyy/Install/STM-32/gcc-arm-none-eabi-6-2017-q2-update/arm-none-eabi/include/c++/6.3.1/functional **** 
1308:/home/vdykyy/Install/STM-32/gcc-arm-none-eabi-6-2017-q2-update/arm-none-eabi/include/c++/6.3.1/functional ****   // Partial specialization for is_socketlike == true, does not define
1309:/home/vdykyy/Install/STM-32/gcc-arm-none-eabi-6-2017-q2-update/arm-none-eabi/include/c++/6.3.1/functional ****   // nested type so std::bind() will not participate in overload resolution
1310:/home/vdykyy/Install/STM-32/gcc-arm-none-eabi-6-2017-q2-update/arm-none-eabi/include/c++/6.3.1/functional ****   // when the first argument might be a socket file descriptor.
1311:/home/vdykyy/Install/STM-32/gcc-arm-none-eabi-6-2017-q2-update/arm-none-eabi/include/c++/6.3.1/functional ****   template<typename _Func, typename... _BoundArgs>
1312:/home/vdykyy/Install/STM-32/gcc-arm-none-eabi-6-2017-q2-update/arm-none-eabi/include/c++/6.3.1/functional ****     struct _Bind_helper<true, _Func, _BoundArgs...>
1313:/home/vdykyy/Install/STM-32/gcc-arm-none-eabi-6-2017-q2-update/arm-none-eabi/include/c++/6.3.1/functional ****     { };
1314:/home/vdykyy/Install/STM-32/gcc-arm-none-eabi-6-2017-q2-update/arm-none-eabi/include/c++/6.3.1/functional **** 
1315:/home/vdykyy/Install/STM-32/gcc-arm-none-eabi-6-2017-q2-update/arm-none-eabi/include/c++/6.3.1/functional ****   /**
1316:/home/vdykyy/Install/STM-32/gcc-arm-none-eabi-6-2017-q2-update/arm-none-eabi/include/c++/6.3.1/functional ****    *  @brief Function template for std::bind.
1317:/home/vdykyy/Install/STM-32/gcc-arm-none-eabi-6-2017-q2-update/arm-none-eabi/include/c++/6.3.1/functional ****    *  @ingroup binders
1318:/home/vdykyy/Install/STM-32/gcc-arm-none-eabi-6-2017-q2-update/arm-none-eabi/include/c++/6.3.1/functional ****    */
ARM GAS  /tmp/cch7CLaJ.s 			page 25


1319:/home/vdykyy/Install/STM-32/gcc-arm-none-eabi-6-2017-q2-update/arm-none-eabi/include/c++/6.3.1/functional ****   template<typename _Func, typename... _BoundArgs>
1320:/home/vdykyy/Install/STM-32/gcc-arm-none-eabi-6-2017-q2-update/arm-none-eabi/include/c++/6.3.1/functional ****     inline typename
1321:/home/vdykyy/Install/STM-32/gcc-arm-none-eabi-6-2017-q2-update/arm-none-eabi/include/c++/6.3.1/functional ****     _Bind_helper<__is_socketlike<_Func>::value, _Func, _BoundArgs...>::type
1322:/home/vdykyy/Install/STM-32/gcc-arm-none-eabi-6-2017-q2-update/arm-none-eabi/include/c++/6.3.1/functional ****     bind(_Func&& __f, _BoundArgs&&... __args)
1323:/home/vdykyy/Install/STM-32/gcc-arm-none-eabi-6-2017-q2-update/arm-none-eabi/include/c++/6.3.1/functional ****     {
1324:/home/vdykyy/Install/STM-32/gcc-arm-none-eabi-6-2017-q2-update/arm-none-eabi/include/c++/6.3.1/functional ****       typedef _Bind_helper<false, _Func, _BoundArgs...> __helper_type;
1325:/home/vdykyy/Install/STM-32/gcc-arm-none-eabi-6-2017-q2-update/arm-none-eabi/include/c++/6.3.1/functional ****       typedef typename __helper_type::__maybe_type __maybe_type;
1326:/home/vdykyy/Install/STM-32/gcc-arm-none-eabi-6-2017-q2-update/arm-none-eabi/include/c++/6.3.1/functional ****       typedef typename __helper_type::type __result_type;
1327:/home/vdykyy/Install/STM-32/gcc-arm-none-eabi-6-2017-q2-update/arm-none-eabi/include/c++/6.3.1/functional ****       return __result_type(__maybe_type::__do_wrap(std::forward<_Func>(__f)),
1328:/home/vdykyy/Install/STM-32/gcc-arm-none-eabi-6-2017-q2-update/arm-none-eabi/include/c++/6.3.1/functional **** 			   std::forward<_BoundArgs>(__args)...);
1329:/home/vdykyy/Install/STM-32/gcc-arm-none-eabi-6-2017-q2-update/arm-none-eabi/include/c++/6.3.1/functional ****     }
1330:/home/vdykyy/Install/STM-32/gcc-arm-none-eabi-6-2017-q2-update/arm-none-eabi/include/c++/6.3.1/functional **** 
1331:/home/vdykyy/Install/STM-32/gcc-arm-none-eabi-6-2017-q2-update/arm-none-eabi/include/c++/6.3.1/functional ****   template<typename _Result, typename _Func, typename... _BoundArgs>
1332:/home/vdykyy/Install/STM-32/gcc-arm-none-eabi-6-2017-q2-update/arm-none-eabi/include/c++/6.3.1/functional ****     struct _Bindres_helper
1333:/home/vdykyy/Install/STM-32/gcc-arm-none-eabi-6-2017-q2-update/arm-none-eabi/include/c++/6.3.1/functional ****     : _Bind_check_arity<typename decay<_Func>::type, _BoundArgs...>
1334:/home/vdykyy/Install/STM-32/gcc-arm-none-eabi-6-2017-q2-update/arm-none-eabi/include/c++/6.3.1/functional ****     {
1335:/home/vdykyy/Install/STM-32/gcc-arm-none-eabi-6-2017-q2-update/arm-none-eabi/include/c++/6.3.1/functional ****       typedef _Maybe_wrap_member_pointer<typename decay<_Func>::type>
1336:/home/vdykyy/Install/STM-32/gcc-arm-none-eabi-6-2017-q2-update/arm-none-eabi/include/c++/6.3.1/functional **** 	__maybe_type;
1337:/home/vdykyy/Install/STM-32/gcc-arm-none-eabi-6-2017-q2-update/arm-none-eabi/include/c++/6.3.1/functional ****       typedef typename __maybe_type::type __functor_type;
1338:/home/vdykyy/Install/STM-32/gcc-arm-none-eabi-6-2017-q2-update/arm-none-eabi/include/c++/6.3.1/functional ****       typedef _Bind_result<_Result,
1339:/home/vdykyy/Install/STM-32/gcc-arm-none-eabi-6-2017-q2-update/arm-none-eabi/include/c++/6.3.1/functional **** 			   __functor_type(typename decay<_BoundArgs>::type...)>
1340:/home/vdykyy/Install/STM-32/gcc-arm-none-eabi-6-2017-q2-update/arm-none-eabi/include/c++/6.3.1/functional **** 	type;
1341:/home/vdykyy/Install/STM-32/gcc-arm-none-eabi-6-2017-q2-update/arm-none-eabi/include/c++/6.3.1/functional ****     };
1342:/home/vdykyy/Install/STM-32/gcc-arm-none-eabi-6-2017-q2-update/arm-none-eabi/include/c++/6.3.1/functional **** 
1343:/home/vdykyy/Install/STM-32/gcc-arm-none-eabi-6-2017-q2-update/arm-none-eabi/include/c++/6.3.1/functional ****   /**
1344:/home/vdykyy/Install/STM-32/gcc-arm-none-eabi-6-2017-q2-update/arm-none-eabi/include/c++/6.3.1/functional ****    *  @brief Function template for std::bind<R>.
1345:/home/vdykyy/Install/STM-32/gcc-arm-none-eabi-6-2017-q2-update/arm-none-eabi/include/c++/6.3.1/functional ****    *  @ingroup binders
1346:/home/vdykyy/Install/STM-32/gcc-arm-none-eabi-6-2017-q2-update/arm-none-eabi/include/c++/6.3.1/functional ****    */
1347:/home/vdykyy/Install/STM-32/gcc-arm-none-eabi-6-2017-q2-update/arm-none-eabi/include/c++/6.3.1/functional ****   template<typename _Result, typename _Func, typename... _BoundArgs>
1348:/home/vdykyy/Install/STM-32/gcc-arm-none-eabi-6-2017-q2-update/arm-none-eabi/include/c++/6.3.1/functional ****     inline
1349:/home/vdykyy/Install/STM-32/gcc-arm-none-eabi-6-2017-q2-update/arm-none-eabi/include/c++/6.3.1/functional ****     typename _Bindres_helper<_Result, _Func, _BoundArgs...>::type
1350:/home/vdykyy/Install/STM-32/gcc-arm-none-eabi-6-2017-q2-update/arm-none-eabi/include/c++/6.3.1/functional ****     bind(_Func&& __f, _BoundArgs&&... __args)
1351:/home/vdykyy/Install/STM-32/gcc-arm-none-eabi-6-2017-q2-update/arm-none-eabi/include/c++/6.3.1/functional ****     {
1352:/home/vdykyy/Install/STM-32/gcc-arm-none-eabi-6-2017-q2-update/arm-none-eabi/include/c++/6.3.1/functional ****       typedef _Bindres_helper<_Result, _Func, _BoundArgs...> __helper_type;
1353:/home/vdykyy/Install/STM-32/gcc-arm-none-eabi-6-2017-q2-update/arm-none-eabi/include/c++/6.3.1/functional ****       typedef typename __helper_type::__maybe_type __maybe_type;
1354:/home/vdykyy/Install/STM-32/gcc-arm-none-eabi-6-2017-q2-update/arm-none-eabi/include/c++/6.3.1/functional ****       typedef typename __helper_type::type __result_type;
1355:/home/vdykyy/Install/STM-32/gcc-arm-none-eabi-6-2017-q2-update/arm-none-eabi/include/c++/6.3.1/functional ****       return __result_type(__maybe_type::__do_wrap(std::forward<_Func>(__f)),
1356:/home/vdykyy/Install/STM-32/gcc-arm-none-eabi-6-2017-q2-update/arm-none-eabi/include/c++/6.3.1/functional **** 			   std::forward<_BoundArgs>(__args)...);
1357:/home/vdykyy/Install/STM-32/gcc-arm-none-eabi-6-2017-q2-update/arm-none-eabi/include/c++/6.3.1/functional ****     }
1358:/home/vdykyy/Install/STM-32/gcc-arm-none-eabi-6-2017-q2-update/arm-none-eabi/include/c++/6.3.1/functional **** 
1359:/home/vdykyy/Install/STM-32/gcc-arm-none-eabi-6-2017-q2-update/arm-none-eabi/include/c++/6.3.1/functional ****   template<typename _Signature>
1360:/home/vdykyy/Install/STM-32/gcc-arm-none-eabi-6-2017-q2-update/arm-none-eabi/include/c++/6.3.1/functional ****     struct _Bind_simple;
1361:/home/vdykyy/Install/STM-32/gcc-arm-none-eabi-6-2017-q2-update/arm-none-eabi/include/c++/6.3.1/functional **** 
1362:/home/vdykyy/Install/STM-32/gcc-arm-none-eabi-6-2017-q2-update/arm-none-eabi/include/c++/6.3.1/functional ****   template<typename _Callable, typename... _Args>
1363:/home/vdykyy/Install/STM-32/gcc-arm-none-eabi-6-2017-q2-update/arm-none-eabi/include/c++/6.3.1/functional ****     struct _Bind_simple<_Callable(_Args...)>
1364:/home/vdykyy/Install/STM-32/gcc-arm-none-eabi-6-2017-q2-update/arm-none-eabi/include/c++/6.3.1/functional ****     {
1365:/home/vdykyy/Install/STM-32/gcc-arm-none-eabi-6-2017-q2-update/arm-none-eabi/include/c++/6.3.1/functional ****       typedef typename result_of<_Callable(_Args...)>::type result_type;
1366:/home/vdykyy/Install/STM-32/gcc-arm-none-eabi-6-2017-q2-update/arm-none-eabi/include/c++/6.3.1/functional **** 
1367:/home/vdykyy/Install/STM-32/gcc-arm-none-eabi-6-2017-q2-update/arm-none-eabi/include/c++/6.3.1/functional ****       template<typename _Tp, typename... _Up>
1368:/home/vdykyy/Install/STM-32/gcc-arm-none-eabi-6-2017-q2-update/arm-none-eabi/include/c++/6.3.1/functional ****         explicit
1369:/home/vdykyy/Install/STM-32/gcc-arm-none-eabi-6-2017-q2-update/arm-none-eabi/include/c++/6.3.1/functional ****         _Bind_simple(_Tp&& __f, _Up&&... __args)
1370:/home/vdykyy/Install/STM-32/gcc-arm-none-eabi-6-2017-q2-update/arm-none-eabi/include/c++/6.3.1/functional ****         : _M_bound(std::forward<_Tp>(__f), std::forward<_Up>(__args)...)
1371:/home/vdykyy/Install/STM-32/gcc-arm-none-eabi-6-2017-q2-update/arm-none-eabi/include/c++/6.3.1/functional ****         { }
1372:/home/vdykyy/Install/STM-32/gcc-arm-none-eabi-6-2017-q2-update/arm-none-eabi/include/c++/6.3.1/functional **** 
1373:/home/vdykyy/Install/STM-32/gcc-arm-none-eabi-6-2017-q2-update/arm-none-eabi/include/c++/6.3.1/functional ****       _Bind_simple(const _Bind_simple&) = default;
1374:/home/vdykyy/Install/STM-32/gcc-arm-none-eabi-6-2017-q2-update/arm-none-eabi/include/c++/6.3.1/functional ****       _Bind_simple(_Bind_simple&&) = default;
1375:/home/vdykyy/Install/STM-32/gcc-arm-none-eabi-6-2017-q2-update/arm-none-eabi/include/c++/6.3.1/functional **** 
ARM GAS  /tmp/cch7CLaJ.s 			page 26


1376:/home/vdykyy/Install/STM-32/gcc-arm-none-eabi-6-2017-q2-update/arm-none-eabi/include/c++/6.3.1/functional ****       result_type
1377:/home/vdykyy/Install/STM-32/gcc-arm-none-eabi-6-2017-q2-update/arm-none-eabi/include/c++/6.3.1/functional ****       operator()()
1378:/home/vdykyy/Install/STM-32/gcc-arm-none-eabi-6-2017-q2-update/arm-none-eabi/include/c++/6.3.1/functional ****       {
1379:/home/vdykyy/Install/STM-32/gcc-arm-none-eabi-6-2017-q2-update/arm-none-eabi/include/c++/6.3.1/functional ****         typedef typename _Build_index_tuple<sizeof...(_Args)>::__type _Indices;
1380:/home/vdykyy/Install/STM-32/gcc-arm-none-eabi-6-2017-q2-update/arm-none-eabi/include/c++/6.3.1/functional ****         return _M_invoke(_Indices());
1381:/home/vdykyy/Install/STM-32/gcc-arm-none-eabi-6-2017-q2-update/arm-none-eabi/include/c++/6.3.1/functional ****       }
1382:/home/vdykyy/Install/STM-32/gcc-arm-none-eabi-6-2017-q2-update/arm-none-eabi/include/c++/6.3.1/functional **** 
1383:/home/vdykyy/Install/STM-32/gcc-arm-none-eabi-6-2017-q2-update/arm-none-eabi/include/c++/6.3.1/functional ****     private:
1384:/home/vdykyy/Install/STM-32/gcc-arm-none-eabi-6-2017-q2-update/arm-none-eabi/include/c++/6.3.1/functional ****       template<std::size_t... _Indices>
1385:/home/vdykyy/Install/STM-32/gcc-arm-none-eabi-6-2017-q2-update/arm-none-eabi/include/c++/6.3.1/functional ****         typename result_of<_Callable(_Args...)>::type
1386:/home/vdykyy/Install/STM-32/gcc-arm-none-eabi-6-2017-q2-update/arm-none-eabi/include/c++/6.3.1/functional ****         _M_invoke(_Index_tuple<_Indices...>)
1387:/home/vdykyy/Install/STM-32/gcc-arm-none-eabi-6-2017-q2-update/arm-none-eabi/include/c++/6.3.1/functional ****         {
1388:/home/vdykyy/Install/STM-32/gcc-arm-none-eabi-6-2017-q2-update/arm-none-eabi/include/c++/6.3.1/functional **** 	  // std::bind always forwards bound arguments as lvalues,
1389:/home/vdykyy/Install/STM-32/gcc-arm-none-eabi-6-2017-q2-update/arm-none-eabi/include/c++/6.3.1/functional **** 	  // but this type can call functions which only accept rvalues.
1390:/home/vdykyy/Install/STM-32/gcc-arm-none-eabi-6-2017-q2-update/arm-none-eabi/include/c++/6.3.1/functional ****           return std::forward<_Callable>(std::get<0>(_M_bound))(
1391:/home/vdykyy/Install/STM-32/gcc-arm-none-eabi-6-2017-q2-update/arm-none-eabi/include/c++/6.3.1/functional ****               std::forward<_Args>(std::get<_Indices+1>(_M_bound))...);
1392:/home/vdykyy/Install/STM-32/gcc-arm-none-eabi-6-2017-q2-update/arm-none-eabi/include/c++/6.3.1/functional ****         }
1393:/home/vdykyy/Install/STM-32/gcc-arm-none-eabi-6-2017-q2-update/arm-none-eabi/include/c++/6.3.1/functional **** 
1394:/home/vdykyy/Install/STM-32/gcc-arm-none-eabi-6-2017-q2-update/arm-none-eabi/include/c++/6.3.1/functional ****       std::tuple<_Callable, _Args...> _M_bound;
1395:/home/vdykyy/Install/STM-32/gcc-arm-none-eabi-6-2017-q2-update/arm-none-eabi/include/c++/6.3.1/functional ****     };
1396:/home/vdykyy/Install/STM-32/gcc-arm-none-eabi-6-2017-q2-update/arm-none-eabi/include/c++/6.3.1/functional **** 
1397:/home/vdykyy/Install/STM-32/gcc-arm-none-eabi-6-2017-q2-update/arm-none-eabi/include/c++/6.3.1/functional ****   template<typename _Func, typename... _BoundArgs>
1398:/home/vdykyy/Install/STM-32/gcc-arm-none-eabi-6-2017-q2-update/arm-none-eabi/include/c++/6.3.1/functional ****     struct _Bind_simple_helper
1399:/home/vdykyy/Install/STM-32/gcc-arm-none-eabi-6-2017-q2-update/arm-none-eabi/include/c++/6.3.1/functional ****     : _Bind_check_arity<typename decay<_Func>::type, _BoundArgs...>
1400:/home/vdykyy/Install/STM-32/gcc-arm-none-eabi-6-2017-q2-update/arm-none-eabi/include/c++/6.3.1/functional ****     {
1401:/home/vdykyy/Install/STM-32/gcc-arm-none-eabi-6-2017-q2-update/arm-none-eabi/include/c++/6.3.1/functional ****       typedef _Maybe_wrap_member_pointer<typename decay<_Func>::type>
1402:/home/vdykyy/Install/STM-32/gcc-arm-none-eabi-6-2017-q2-update/arm-none-eabi/include/c++/6.3.1/functional ****         __maybe_type;
1403:/home/vdykyy/Install/STM-32/gcc-arm-none-eabi-6-2017-q2-update/arm-none-eabi/include/c++/6.3.1/functional ****       typedef typename __maybe_type::type __func_type;
1404:/home/vdykyy/Install/STM-32/gcc-arm-none-eabi-6-2017-q2-update/arm-none-eabi/include/c++/6.3.1/functional ****       typedef _Bind_simple<__func_type(typename decay<_BoundArgs>::type...)>
1405:/home/vdykyy/Install/STM-32/gcc-arm-none-eabi-6-2017-q2-update/arm-none-eabi/include/c++/6.3.1/functional ****        	__type;
1406:/home/vdykyy/Install/STM-32/gcc-arm-none-eabi-6-2017-q2-update/arm-none-eabi/include/c++/6.3.1/functional ****     };
1407:/home/vdykyy/Install/STM-32/gcc-arm-none-eabi-6-2017-q2-update/arm-none-eabi/include/c++/6.3.1/functional **** 
1408:/home/vdykyy/Install/STM-32/gcc-arm-none-eabi-6-2017-q2-update/arm-none-eabi/include/c++/6.3.1/functional ****   // Simplified version of std::bind for internal use, without support for
1409:/home/vdykyy/Install/STM-32/gcc-arm-none-eabi-6-2017-q2-update/arm-none-eabi/include/c++/6.3.1/functional ****   // unbound arguments, placeholders or nested bind expressions.
1410:/home/vdykyy/Install/STM-32/gcc-arm-none-eabi-6-2017-q2-update/arm-none-eabi/include/c++/6.3.1/functional ****   template<typename _Callable, typename... _Args>
1411:/home/vdykyy/Install/STM-32/gcc-arm-none-eabi-6-2017-q2-update/arm-none-eabi/include/c++/6.3.1/functional ****     typename _Bind_simple_helper<_Callable, _Args...>::__type
1412:/home/vdykyy/Install/STM-32/gcc-arm-none-eabi-6-2017-q2-update/arm-none-eabi/include/c++/6.3.1/functional ****     __bind_simple(_Callable&& __callable, _Args&&... __args)
1413:/home/vdykyy/Install/STM-32/gcc-arm-none-eabi-6-2017-q2-update/arm-none-eabi/include/c++/6.3.1/functional ****     {
1414:/home/vdykyy/Install/STM-32/gcc-arm-none-eabi-6-2017-q2-update/arm-none-eabi/include/c++/6.3.1/functional ****       typedef _Bind_simple_helper<_Callable, _Args...> __helper_type;
1415:/home/vdykyy/Install/STM-32/gcc-arm-none-eabi-6-2017-q2-update/arm-none-eabi/include/c++/6.3.1/functional ****       typedef typename __helper_type::__maybe_type __maybe_type;
1416:/home/vdykyy/Install/STM-32/gcc-arm-none-eabi-6-2017-q2-update/arm-none-eabi/include/c++/6.3.1/functional ****       typedef typename __helper_type::__type __result_type;
1417:/home/vdykyy/Install/STM-32/gcc-arm-none-eabi-6-2017-q2-update/arm-none-eabi/include/c++/6.3.1/functional ****       return __result_type(
1418:/home/vdykyy/Install/STM-32/gcc-arm-none-eabi-6-2017-q2-update/arm-none-eabi/include/c++/6.3.1/functional ****           __maybe_type::__do_wrap( std::forward<_Callable>(__callable)),
1419:/home/vdykyy/Install/STM-32/gcc-arm-none-eabi-6-2017-q2-update/arm-none-eabi/include/c++/6.3.1/functional ****           std::forward<_Args>(__args)...);
1420:/home/vdykyy/Install/STM-32/gcc-arm-none-eabi-6-2017-q2-update/arm-none-eabi/include/c++/6.3.1/functional ****     }
1421:/home/vdykyy/Install/STM-32/gcc-arm-none-eabi-6-2017-q2-update/arm-none-eabi/include/c++/6.3.1/functional **** 
1422:/home/vdykyy/Install/STM-32/gcc-arm-none-eabi-6-2017-q2-update/arm-none-eabi/include/c++/6.3.1/functional ****   /**
1423:/home/vdykyy/Install/STM-32/gcc-arm-none-eabi-6-2017-q2-update/arm-none-eabi/include/c++/6.3.1/functional ****    *  @brief Exception class thrown when class template function's
1424:/home/vdykyy/Install/STM-32/gcc-arm-none-eabi-6-2017-q2-update/arm-none-eabi/include/c++/6.3.1/functional ****    *  operator() is called with an empty target.
1425:/home/vdykyy/Install/STM-32/gcc-arm-none-eabi-6-2017-q2-update/arm-none-eabi/include/c++/6.3.1/functional ****    *  @ingroup exceptions
1426:/home/vdykyy/Install/STM-32/gcc-arm-none-eabi-6-2017-q2-update/arm-none-eabi/include/c++/6.3.1/functional ****    */
1427:/home/vdykyy/Install/STM-32/gcc-arm-none-eabi-6-2017-q2-update/arm-none-eabi/include/c++/6.3.1/functional ****   class bad_function_call : public std::exception
1428:/home/vdykyy/Install/STM-32/gcc-arm-none-eabi-6-2017-q2-update/arm-none-eabi/include/c++/6.3.1/functional ****   {
1429:/home/vdykyy/Install/STM-32/gcc-arm-none-eabi-6-2017-q2-update/arm-none-eabi/include/c++/6.3.1/functional ****   public:
1430:/home/vdykyy/Install/STM-32/gcc-arm-none-eabi-6-2017-q2-update/arm-none-eabi/include/c++/6.3.1/functional ****     virtual ~bad_function_call() noexcept;
1431:/home/vdykyy/Install/STM-32/gcc-arm-none-eabi-6-2017-q2-update/arm-none-eabi/include/c++/6.3.1/functional **** 
1432:/home/vdykyy/Install/STM-32/gcc-arm-none-eabi-6-2017-q2-update/arm-none-eabi/include/c++/6.3.1/functional ****     const char* what() const noexcept;
ARM GAS  /tmp/cch7CLaJ.s 			page 27


1433:/home/vdykyy/Install/STM-32/gcc-arm-none-eabi-6-2017-q2-update/arm-none-eabi/include/c++/6.3.1/functional ****   };
1434:/home/vdykyy/Install/STM-32/gcc-arm-none-eabi-6-2017-q2-update/arm-none-eabi/include/c++/6.3.1/functional **** 
1435:/home/vdykyy/Install/STM-32/gcc-arm-none-eabi-6-2017-q2-update/arm-none-eabi/include/c++/6.3.1/functional ****   /**
1436:/home/vdykyy/Install/STM-32/gcc-arm-none-eabi-6-2017-q2-update/arm-none-eabi/include/c++/6.3.1/functional ****    *  Trait identifying "location-invariant" types, meaning that the
1437:/home/vdykyy/Install/STM-32/gcc-arm-none-eabi-6-2017-q2-update/arm-none-eabi/include/c++/6.3.1/functional ****    *  address of the object (or any of its members) will not escape.
1438:/home/vdykyy/Install/STM-32/gcc-arm-none-eabi-6-2017-q2-update/arm-none-eabi/include/c++/6.3.1/functional ****    *  Trivially copyable types are location-invariant and users can
1439:/home/vdykyy/Install/STM-32/gcc-arm-none-eabi-6-2017-q2-update/arm-none-eabi/include/c++/6.3.1/functional ****    *  specialize this trait for other types.
1440:/home/vdykyy/Install/STM-32/gcc-arm-none-eabi-6-2017-q2-update/arm-none-eabi/include/c++/6.3.1/functional ****    */
1441:/home/vdykyy/Install/STM-32/gcc-arm-none-eabi-6-2017-q2-update/arm-none-eabi/include/c++/6.3.1/functional ****   template<typename _Tp>
1442:/home/vdykyy/Install/STM-32/gcc-arm-none-eabi-6-2017-q2-update/arm-none-eabi/include/c++/6.3.1/functional ****     struct __is_location_invariant
1443:/home/vdykyy/Install/STM-32/gcc-arm-none-eabi-6-2017-q2-update/arm-none-eabi/include/c++/6.3.1/functional ****     : is_trivially_copyable<_Tp>::type
1444:/home/vdykyy/Install/STM-32/gcc-arm-none-eabi-6-2017-q2-update/arm-none-eabi/include/c++/6.3.1/functional ****     { };
1445:/home/vdykyy/Install/STM-32/gcc-arm-none-eabi-6-2017-q2-update/arm-none-eabi/include/c++/6.3.1/functional **** 
1446:/home/vdykyy/Install/STM-32/gcc-arm-none-eabi-6-2017-q2-update/arm-none-eabi/include/c++/6.3.1/functional ****   class _Undefined_class;
1447:/home/vdykyy/Install/STM-32/gcc-arm-none-eabi-6-2017-q2-update/arm-none-eabi/include/c++/6.3.1/functional **** 
1448:/home/vdykyy/Install/STM-32/gcc-arm-none-eabi-6-2017-q2-update/arm-none-eabi/include/c++/6.3.1/functional ****   union _Nocopy_types
1449:/home/vdykyy/Install/STM-32/gcc-arm-none-eabi-6-2017-q2-update/arm-none-eabi/include/c++/6.3.1/functional ****   {
1450:/home/vdykyy/Install/STM-32/gcc-arm-none-eabi-6-2017-q2-update/arm-none-eabi/include/c++/6.3.1/functional ****     void*       _M_object;
1451:/home/vdykyy/Install/STM-32/gcc-arm-none-eabi-6-2017-q2-update/arm-none-eabi/include/c++/6.3.1/functional ****     const void* _M_const_object;
1452:/home/vdykyy/Install/STM-32/gcc-arm-none-eabi-6-2017-q2-update/arm-none-eabi/include/c++/6.3.1/functional ****     void (*_M_function_pointer)();
1453:/home/vdykyy/Install/STM-32/gcc-arm-none-eabi-6-2017-q2-update/arm-none-eabi/include/c++/6.3.1/functional ****     void (_Undefined_class::*_M_member_pointer)();
1454:/home/vdykyy/Install/STM-32/gcc-arm-none-eabi-6-2017-q2-update/arm-none-eabi/include/c++/6.3.1/functional ****   };
1455:/home/vdykyy/Install/STM-32/gcc-arm-none-eabi-6-2017-q2-update/arm-none-eabi/include/c++/6.3.1/functional **** 
1456:/home/vdykyy/Install/STM-32/gcc-arm-none-eabi-6-2017-q2-update/arm-none-eabi/include/c++/6.3.1/functional ****   union [[gnu::may_alias]] _Any_data
1457:/home/vdykyy/Install/STM-32/gcc-arm-none-eabi-6-2017-q2-update/arm-none-eabi/include/c++/6.3.1/functional ****   {
1458:/home/vdykyy/Install/STM-32/gcc-arm-none-eabi-6-2017-q2-update/arm-none-eabi/include/c++/6.3.1/functional ****     void*       _M_access()       { return &_M_pod_data[0]; }
1459:/home/vdykyy/Install/STM-32/gcc-arm-none-eabi-6-2017-q2-update/arm-none-eabi/include/c++/6.3.1/functional ****     const void* _M_access() const { return &_M_pod_data[0]; }
1460:/home/vdykyy/Install/STM-32/gcc-arm-none-eabi-6-2017-q2-update/arm-none-eabi/include/c++/6.3.1/functional **** 
1461:/home/vdykyy/Install/STM-32/gcc-arm-none-eabi-6-2017-q2-update/arm-none-eabi/include/c++/6.3.1/functional ****     template<typename _Tp>
1462:/home/vdykyy/Install/STM-32/gcc-arm-none-eabi-6-2017-q2-update/arm-none-eabi/include/c++/6.3.1/functional ****       _Tp&
1463:/home/vdykyy/Install/STM-32/gcc-arm-none-eabi-6-2017-q2-update/arm-none-eabi/include/c++/6.3.1/functional ****       _M_access()
1464:/home/vdykyy/Install/STM-32/gcc-arm-none-eabi-6-2017-q2-update/arm-none-eabi/include/c++/6.3.1/functional ****       { return *static_cast<_Tp*>(_M_access()); }
1465:/home/vdykyy/Install/STM-32/gcc-arm-none-eabi-6-2017-q2-update/arm-none-eabi/include/c++/6.3.1/functional **** 
1466:/home/vdykyy/Install/STM-32/gcc-arm-none-eabi-6-2017-q2-update/arm-none-eabi/include/c++/6.3.1/functional ****     template<typename _Tp>
1467:/home/vdykyy/Install/STM-32/gcc-arm-none-eabi-6-2017-q2-update/arm-none-eabi/include/c++/6.3.1/functional ****       const _Tp&
1468:/home/vdykyy/Install/STM-32/gcc-arm-none-eabi-6-2017-q2-update/arm-none-eabi/include/c++/6.3.1/functional ****       _M_access() const
1469:/home/vdykyy/Install/STM-32/gcc-arm-none-eabi-6-2017-q2-update/arm-none-eabi/include/c++/6.3.1/functional ****       { return *static_cast<const _Tp*>(_M_access()); }
1470:/home/vdykyy/Install/STM-32/gcc-arm-none-eabi-6-2017-q2-update/arm-none-eabi/include/c++/6.3.1/functional **** 
1471:/home/vdykyy/Install/STM-32/gcc-arm-none-eabi-6-2017-q2-update/arm-none-eabi/include/c++/6.3.1/functional ****     _Nocopy_types _M_unused;
1472:/home/vdykyy/Install/STM-32/gcc-arm-none-eabi-6-2017-q2-update/arm-none-eabi/include/c++/6.3.1/functional ****     char _M_pod_data[sizeof(_Nocopy_types)];
1473:/home/vdykyy/Install/STM-32/gcc-arm-none-eabi-6-2017-q2-update/arm-none-eabi/include/c++/6.3.1/functional ****   };
1474:/home/vdykyy/Install/STM-32/gcc-arm-none-eabi-6-2017-q2-update/arm-none-eabi/include/c++/6.3.1/functional **** 
1475:/home/vdykyy/Install/STM-32/gcc-arm-none-eabi-6-2017-q2-update/arm-none-eabi/include/c++/6.3.1/functional ****   enum _Manager_operation
1476:/home/vdykyy/Install/STM-32/gcc-arm-none-eabi-6-2017-q2-update/arm-none-eabi/include/c++/6.3.1/functional ****   {
1477:/home/vdykyy/Install/STM-32/gcc-arm-none-eabi-6-2017-q2-update/arm-none-eabi/include/c++/6.3.1/functional ****     __get_type_info,
1478:/home/vdykyy/Install/STM-32/gcc-arm-none-eabi-6-2017-q2-update/arm-none-eabi/include/c++/6.3.1/functional ****     __get_functor_ptr,
1479:/home/vdykyy/Install/STM-32/gcc-arm-none-eabi-6-2017-q2-update/arm-none-eabi/include/c++/6.3.1/functional ****     __clone_functor,
1480:/home/vdykyy/Install/STM-32/gcc-arm-none-eabi-6-2017-q2-update/arm-none-eabi/include/c++/6.3.1/functional ****     __destroy_functor
1481:/home/vdykyy/Install/STM-32/gcc-arm-none-eabi-6-2017-q2-update/arm-none-eabi/include/c++/6.3.1/functional ****   };
1482:/home/vdykyy/Install/STM-32/gcc-arm-none-eabi-6-2017-q2-update/arm-none-eabi/include/c++/6.3.1/functional **** 
1483:/home/vdykyy/Install/STM-32/gcc-arm-none-eabi-6-2017-q2-update/arm-none-eabi/include/c++/6.3.1/functional ****   // Simple type wrapper that helps avoid annoying const problems
1484:/home/vdykyy/Install/STM-32/gcc-arm-none-eabi-6-2017-q2-update/arm-none-eabi/include/c++/6.3.1/functional ****   // when casting between void pointers and pointers-to-pointers.
1485:/home/vdykyy/Install/STM-32/gcc-arm-none-eabi-6-2017-q2-update/arm-none-eabi/include/c++/6.3.1/functional ****   template<typename _Tp>
1486:/home/vdykyy/Install/STM-32/gcc-arm-none-eabi-6-2017-q2-update/arm-none-eabi/include/c++/6.3.1/functional ****     struct _Simple_type_wrapper
1487:/home/vdykyy/Install/STM-32/gcc-arm-none-eabi-6-2017-q2-update/arm-none-eabi/include/c++/6.3.1/functional ****     {
1488:/home/vdykyy/Install/STM-32/gcc-arm-none-eabi-6-2017-q2-update/arm-none-eabi/include/c++/6.3.1/functional ****       _Simple_type_wrapper(_Tp __value) : __value(__value) { }
1489:/home/vdykyy/Install/STM-32/gcc-arm-none-eabi-6-2017-q2-update/arm-none-eabi/include/c++/6.3.1/functional **** 
ARM GAS  /tmp/cch7CLaJ.s 			page 28


1490:/home/vdykyy/Install/STM-32/gcc-arm-none-eabi-6-2017-q2-update/arm-none-eabi/include/c++/6.3.1/functional ****       _Tp __value;
1491:/home/vdykyy/Install/STM-32/gcc-arm-none-eabi-6-2017-q2-update/arm-none-eabi/include/c++/6.3.1/functional ****     };
1492:/home/vdykyy/Install/STM-32/gcc-arm-none-eabi-6-2017-q2-update/arm-none-eabi/include/c++/6.3.1/functional **** 
1493:/home/vdykyy/Install/STM-32/gcc-arm-none-eabi-6-2017-q2-update/arm-none-eabi/include/c++/6.3.1/functional ****   template<typename _Tp>
1494:/home/vdykyy/Install/STM-32/gcc-arm-none-eabi-6-2017-q2-update/arm-none-eabi/include/c++/6.3.1/functional ****     struct __is_location_invariant<_Simple_type_wrapper<_Tp> >
1495:/home/vdykyy/Install/STM-32/gcc-arm-none-eabi-6-2017-q2-update/arm-none-eabi/include/c++/6.3.1/functional ****     : __is_location_invariant<_Tp>
1496:/home/vdykyy/Install/STM-32/gcc-arm-none-eabi-6-2017-q2-update/arm-none-eabi/include/c++/6.3.1/functional ****     { };
1497:/home/vdykyy/Install/STM-32/gcc-arm-none-eabi-6-2017-q2-update/arm-none-eabi/include/c++/6.3.1/functional **** 
1498:/home/vdykyy/Install/STM-32/gcc-arm-none-eabi-6-2017-q2-update/arm-none-eabi/include/c++/6.3.1/functional ****   // Converts a reference to a function object into a callable
1499:/home/vdykyy/Install/STM-32/gcc-arm-none-eabi-6-2017-q2-update/arm-none-eabi/include/c++/6.3.1/functional ****   // function object.
1500:/home/vdykyy/Install/STM-32/gcc-arm-none-eabi-6-2017-q2-update/arm-none-eabi/include/c++/6.3.1/functional ****   template<typename _Functor>
1501:/home/vdykyy/Install/STM-32/gcc-arm-none-eabi-6-2017-q2-update/arm-none-eabi/include/c++/6.3.1/functional ****     inline _Functor&
1502:/home/vdykyy/Install/STM-32/gcc-arm-none-eabi-6-2017-q2-update/arm-none-eabi/include/c++/6.3.1/functional ****     __callable_functor(_Functor& __f)
1503:/home/vdykyy/Install/STM-32/gcc-arm-none-eabi-6-2017-q2-update/arm-none-eabi/include/c++/6.3.1/functional ****     { return __f; }
1504:/home/vdykyy/Install/STM-32/gcc-arm-none-eabi-6-2017-q2-update/arm-none-eabi/include/c++/6.3.1/functional **** 
1505:/home/vdykyy/Install/STM-32/gcc-arm-none-eabi-6-2017-q2-update/arm-none-eabi/include/c++/6.3.1/functional ****   template<typename _Member, typename _Class>
1506:/home/vdykyy/Install/STM-32/gcc-arm-none-eabi-6-2017-q2-update/arm-none-eabi/include/c++/6.3.1/functional ****     inline _Mem_fn<_Member _Class::*>
1507:/home/vdykyy/Install/STM-32/gcc-arm-none-eabi-6-2017-q2-update/arm-none-eabi/include/c++/6.3.1/functional ****     __callable_functor(_Member _Class::* &__p)
1508:/home/vdykyy/Install/STM-32/gcc-arm-none-eabi-6-2017-q2-update/arm-none-eabi/include/c++/6.3.1/functional ****     { return std::mem_fn(__p); }
1509:/home/vdykyy/Install/STM-32/gcc-arm-none-eabi-6-2017-q2-update/arm-none-eabi/include/c++/6.3.1/functional **** 
1510:/home/vdykyy/Install/STM-32/gcc-arm-none-eabi-6-2017-q2-update/arm-none-eabi/include/c++/6.3.1/functional ****   template<typename _Member, typename _Class>
1511:/home/vdykyy/Install/STM-32/gcc-arm-none-eabi-6-2017-q2-update/arm-none-eabi/include/c++/6.3.1/functional ****     inline _Mem_fn<_Member _Class::*>
1512:/home/vdykyy/Install/STM-32/gcc-arm-none-eabi-6-2017-q2-update/arm-none-eabi/include/c++/6.3.1/functional ****     __callable_functor(_Member _Class::* const &__p)
1513:/home/vdykyy/Install/STM-32/gcc-arm-none-eabi-6-2017-q2-update/arm-none-eabi/include/c++/6.3.1/functional ****     { return std::mem_fn(__p); }
1514:/home/vdykyy/Install/STM-32/gcc-arm-none-eabi-6-2017-q2-update/arm-none-eabi/include/c++/6.3.1/functional **** 
1515:/home/vdykyy/Install/STM-32/gcc-arm-none-eabi-6-2017-q2-update/arm-none-eabi/include/c++/6.3.1/functional ****   template<typename _Member, typename _Class>
1516:/home/vdykyy/Install/STM-32/gcc-arm-none-eabi-6-2017-q2-update/arm-none-eabi/include/c++/6.3.1/functional ****     inline _Mem_fn<_Member _Class::*>
1517:/home/vdykyy/Install/STM-32/gcc-arm-none-eabi-6-2017-q2-update/arm-none-eabi/include/c++/6.3.1/functional ****     __callable_functor(_Member _Class::* volatile &__p)
1518:/home/vdykyy/Install/STM-32/gcc-arm-none-eabi-6-2017-q2-update/arm-none-eabi/include/c++/6.3.1/functional ****     { return std::mem_fn(__p); }
1519:/home/vdykyy/Install/STM-32/gcc-arm-none-eabi-6-2017-q2-update/arm-none-eabi/include/c++/6.3.1/functional **** 
1520:/home/vdykyy/Install/STM-32/gcc-arm-none-eabi-6-2017-q2-update/arm-none-eabi/include/c++/6.3.1/functional ****   template<typename _Member, typename _Class>
1521:/home/vdykyy/Install/STM-32/gcc-arm-none-eabi-6-2017-q2-update/arm-none-eabi/include/c++/6.3.1/functional ****     inline _Mem_fn<_Member _Class::*>
1522:/home/vdykyy/Install/STM-32/gcc-arm-none-eabi-6-2017-q2-update/arm-none-eabi/include/c++/6.3.1/functional ****     __callable_functor(_Member _Class::* const volatile &__p)
1523:/home/vdykyy/Install/STM-32/gcc-arm-none-eabi-6-2017-q2-update/arm-none-eabi/include/c++/6.3.1/functional ****     { return std::mem_fn(__p); }
1524:/home/vdykyy/Install/STM-32/gcc-arm-none-eabi-6-2017-q2-update/arm-none-eabi/include/c++/6.3.1/functional **** 
1525:/home/vdykyy/Install/STM-32/gcc-arm-none-eabi-6-2017-q2-update/arm-none-eabi/include/c++/6.3.1/functional ****   template<typename _Signature>
1526:/home/vdykyy/Install/STM-32/gcc-arm-none-eabi-6-2017-q2-update/arm-none-eabi/include/c++/6.3.1/functional ****     class function;
1527:/home/vdykyy/Install/STM-32/gcc-arm-none-eabi-6-2017-q2-update/arm-none-eabi/include/c++/6.3.1/functional **** 
1528:/home/vdykyy/Install/STM-32/gcc-arm-none-eabi-6-2017-q2-update/arm-none-eabi/include/c++/6.3.1/functional ****   /// Base class of all polymorphic function object wrappers.
1529:/home/vdykyy/Install/STM-32/gcc-arm-none-eabi-6-2017-q2-update/arm-none-eabi/include/c++/6.3.1/functional ****   class _Function_base
1530:/home/vdykyy/Install/STM-32/gcc-arm-none-eabi-6-2017-q2-update/arm-none-eabi/include/c++/6.3.1/functional ****   {
1531:/home/vdykyy/Install/STM-32/gcc-arm-none-eabi-6-2017-q2-update/arm-none-eabi/include/c++/6.3.1/functional ****   public:
1532:/home/vdykyy/Install/STM-32/gcc-arm-none-eabi-6-2017-q2-update/arm-none-eabi/include/c++/6.3.1/functional ****     static const std::size_t _M_max_size = sizeof(_Nocopy_types);
1533:/home/vdykyy/Install/STM-32/gcc-arm-none-eabi-6-2017-q2-update/arm-none-eabi/include/c++/6.3.1/functional ****     static const std::size_t _M_max_align = __alignof__(_Nocopy_types);
1534:/home/vdykyy/Install/STM-32/gcc-arm-none-eabi-6-2017-q2-update/arm-none-eabi/include/c++/6.3.1/functional **** 
1535:/home/vdykyy/Install/STM-32/gcc-arm-none-eabi-6-2017-q2-update/arm-none-eabi/include/c++/6.3.1/functional ****     template<typename _Functor>
1536:/home/vdykyy/Install/STM-32/gcc-arm-none-eabi-6-2017-q2-update/arm-none-eabi/include/c++/6.3.1/functional ****       class _Base_manager
1537:/home/vdykyy/Install/STM-32/gcc-arm-none-eabi-6-2017-q2-update/arm-none-eabi/include/c++/6.3.1/functional ****       {
1538:/home/vdykyy/Install/STM-32/gcc-arm-none-eabi-6-2017-q2-update/arm-none-eabi/include/c++/6.3.1/functional ****       protected:
1539:/home/vdykyy/Install/STM-32/gcc-arm-none-eabi-6-2017-q2-update/arm-none-eabi/include/c++/6.3.1/functional **** 	static const bool __stored_locally =
1540:/home/vdykyy/Install/STM-32/gcc-arm-none-eabi-6-2017-q2-update/arm-none-eabi/include/c++/6.3.1/functional **** 	(__is_location_invariant<_Functor>::value
1541:/home/vdykyy/Install/STM-32/gcc-arm-none-eabi-6-2017-q2-update/arm-none-eabi/include/c++/6.3.1/functional **** 	 && sizeof(_Functor) <= _M_max_size
1542:/home/vdykyy/Install/STM-32/gcc-arm-none-eabi-6-2017-q2-update/arm-none-eabi/include/c++/6.3.1/functional **** 	 && __alignof__(_Functor) <= _M_max_align
1543:/home/vdykyy/Install/STM-32/gcc-arm-none-eabi-6-2017-q2-update/arm-none-eabi/include/c++/6.3.1/functional **** 	 && (_M_max_align % __alignof__(_Functor) == 0));
1544:/home/vdykyy/Install/STM-32/gcc-arm-none-eabi-6-2017-q2-update/arm-none-eabi/include/c++/6.3.1/functional **** 
1545:/home/vdykyy/Install/STM-32/gcc-arm-none-eabi-6-2017-q2-update/arm-none-eabi/include/c++/6.3.1/functional **** 	typedef integral_constant<bool, __stored_locally> _Local_storage;
1546:/home/vdykyy/Install/STM-32/gcc-arm-none-eabi-6-2017-q2-update/arm-none-eabi/include/c++/6.3.1/functional **** 
ARM GAS  /tmp/cch7CLaJ.s 			page 29


1547:/home/vdykyy/Install/STM-32/gcc-arm-none-eabi-6-2017-q2-update/arm-none-eabi/include/c++/6.3.1/functional **** 	// Retrieve a pointer to the function object
1548:/home/vdykyy/Install/STM-32/gcc-arm-none-eabi-6-2017-q2-update/arm-none-eabi/include/c++/6.3.1/functional **** 	static _Functor*
1549:/home/vdykyy/Install/STM-32/gcc-arm-none-eabi-6-2017-q2-update/arm-none-eabi/include/c++/6.3.1/functional **** 	_M_get_pointer(const _Any_data& __source)
1550:/home/vdykyy/Install/STM-32/gcc-arm-none-eabi-6-2017-q2-update/arm-none-eabi/include/c++/6.3.1/functional **** 	{
1551:/home/vdykyy/Install/STM-32/gcc-arm-none-eabi-6-2017-q2-update/arm-none-eabi/include/c++/6.3.1/functional **** 	  const _Functor* __ptr =
1552:/home/vdykyy/Install/STM-32/gcc-arm-none-eabi-6-2017-q2-update/arm-none-eabi/include/c++/6.3.1/functional **** 	    __stored_locally? std::__addressof(__source._M_access<_Functor>())
1553:/home/vdykyy/Install/STM-32/gcc-arm-none-eabi-6-2017-q2-update/arm-none-eabi/include/c++/6.3.1/functional **** 	    /* have stored a pointer */ : __source._M_access<_Functor*>();
1554:/home/vdykyy/Install/STM-32/gcc-arm-none-eabi-6-2017-q2-update/arm-none-eabi/include/c++/6.3.1/functional **** 	  return const_cast<_Functor*>(__ptr);
1555:/home/vdykyy/Install/STM-32/gcc-arm-none-eabi-6-2017-q2-update/arm-none-eabi/include/c++/6.3.1/functional **** 	}
1556:/home/vdykyy/Install/STM-32/gcc-arm-none-eabi-6-2017-q2-update/arm-none-eabi/include/c++/6.3.1/functional **** 
1557:/home/vdykyy/Install/STM-32/gcc-arm-none-eabi-6-2017-q2-update/arm-none-eabi/include/c++/6.3.1/functional **** 	// Clone a location-invariant function object that fits within
1558:/home/vdykyy/Install/STM-32/gcc-arm-none-eabi-6-2017-q2-update/arm-none-eabi/include/c++/6.3.1/functional **** 	// an _Any_data structure.
1559:/home/vdykyy/Install/STM-32/gcc-arm-none-eabi-6-2017-q2-update/arm-none-eabi/include/c++/6.3.1/functional **** 	static void
1560:/home/vdykyy/Install/STM-32/gcc-arm-none-eabi-6-2017-q2-update/arm-none-eabi/include/c++/6.3.1/functional **** 	_M_clone(_Any_data& __dest, const _Any_data& __source, true_type)
1561:/home/vdykyy/Install/STM-32/gcc-arm-none-eabi-6-2017-q2-update/arm-none-eabi/include/c++/6.3.1/functional **** 	{
1562:/home/vdykyy/Install/STM-32/gcc-arm-none-eabi-6-2017-q2-update/arm-none-eabi/include/c++/6.3.1/functional **** 	  ::new (__dest._M_access()) _Functor(__source._M_access<_Functor>());
1563:/home/vdykyy/Install/STM-32/gcc-arm-none-eabi-6-2017-q2-update/arm-none-eabi/include/c++/6.3.1/functional **** 	}
1564:/home/vdykyy/Install/STM-32/gcc-arm-none-eabi-6-2017-q2-update/arm-none-eabi/include/c++/6.3.1/functional **** 
1565:/home/vdykyy/Install/STM-32/gcc-arm-none-eabi-6-2017-q2-update/arm-none-eabi/include/c++/6.3.1/functional **** 	// Clone a function object that is not location-invariant or
1566:/home/vdykyy/Install/STM-32/gcc-arm-none-eabi-6-2017-q2-update/arm-none-eabi/include/c++/6.3.1/functional **** 	// that cannot fit into an _Any_data structure.
1567:/home/vdykyy/Install/STM-32/gcc-arm-none-eabi-6-2017-q2-update/arm-none-eabi/include/c++/6.3.1/functional **** 	static void
1568:/home/vdykyy/Install/STM-32/gcc-arm-none-eabi-6-2017-q2-update/arm-none-eabi/include/c++/6.3.1/functional **** 	_M_clone(_Any_data& __dest, const _Any_data& __source, false_type)
1569:/home/vdykyy/Install/STM-32/gcc-arm-none-eabi-6-2017-q2-update/arm-none-eabi/include/c++/6.3.1/functional **** 	{
1570:/home/vdykyy/Install/STM-32/gcc-arm-none-eabi-6-2017-q2-update/arm-none-eabi/include/c++/6.3.1/functional **** 	  __dest._M_access<_Functor*>() =
1571:/home/vdykyy/Install/STM-32/gcc-arm-none-eabi-6-2017-q2-update/arm-none-eabi/include/c++/6.3.1/functional **** 	    new _Functor(*__source._M_access<_Functor*>());
1572:/home/vdykyy/Install/STM-32/gcc-arm-none-eabi-6-2017-q2-update/arm-none-eabi/include/c++/6.3.1/functional **** 	}
1573:/home/vdykyy/Install/STM-32/gcc-arm-none-eabi-6-2017-q2-update/arm-none-eabi/include/c++/6.3.1/functional **** 
1574:/home/vdykyy/Install/STM-32/gcc-arm-none-eabi-6-2017-q2-update/arm-none-eabi/include/c++/6.3.1/functional **** 	// Destroying a location-invariant object may still require
1575:/home/vdykyy/Install/STM-32/gcc-arm-none-eabi-6-2017-q2-update/arm-none-eabi/include/c++/6.3.1/functional **** 	// destruction.
1576:/home/vdykyy/Install/STM-32/gcc-arm-none-eabi-6-2017-q2-update/arm-none-eabi/include/c++/6.3.1/functional **** 	static void
1577:/home/vdykyy/Install/STM-32/gcc-arm-none-eabi-6-2017-q2-update/arm-none-eabi/include/c++/6.3.1/functional **** 	_M_destroy(_Any_data& __victim, true_type)
1578:/home/vdykyy/Install/STM-32/gcc-arm-none-eabi-6-2017-q2-update/arm-none-eabi/include/c++/6.3.1/functional **** 	{
1579:/home/vdykyy/Install/STM-32/gcc-arm-none-eabi-6-2017-q2-update/arm-none-eabi/include/c++/6.3.1/functional **** 	  __victim._M_access<_Functor>().~_Functor();
1580:/home/vdykyy/Install/STM-32/gcc-arm-none-eabi-6-2017-q2-update/arm-none-eabi/include/c++/6.3.1/functional **** 	}
1581:/home/vdykyy/Install/STM-32/gcc-arm-none-eabi-6-2017-q2-update/arm-none-eabi/include/c++/6.3.1/functional **** 
1582:/home/vdykyy/Install/STM-32/gcc-arm-none-eabi-6-2017-q2-update/arm-none-eabi/include/c++/6.3.1/functional **** 	// Destroying an object located on the heap.
1583:/home/vdykyy/Install/STM-32/gcc-arm-none-eabi-6-2017-q2-update/arm-none-eabi/include/c++/6.3.1/functional **** 	static void
1584:/home/vdykyy/Install/STM-32/gcc-arm-none-eabi-6-2017-q2-update/arm-none-eabi/include/c++/6.3.1/functional **** 	_M_destroy(_Any_data& __victim, false_type)
1585:/home/vdykyy/Install/STM-32/gcc-arm-none-eabi-6-2017-q2-update/arm-none-eabi/include/c++/6.3.1/functional **** 	{
1586:/home/vdykyy/Install/STM-32/gcc-arm-none-eabi-6-2017-q2-update/arm-none-eabi/include/c++/6.3.1/functional **** 	  delete __victim._M_access<_Functor*>();
1587:/home/vdykyy/Install/STM-32/gcc-arm-none-eabi-6-2017-q2-update/arm-none-eabi/include/c++/6.3.1/functional **** 	}
1588:/home/vdykyy/Install/STM-32/gcc-arm-none-eabi-6-2017-q2-update/arm-none-eabi/include/c++/6.3.1/functional **** 
1589:/home/vdykyy/Install/STM-32/gcc-arm-none-eabi-6-2017-q2-update/arm-none-eabi/include/c++/6.3.1/functional ****       public:
1590:/home/vdykyy/Install/STM-32/gcc-arm-none-eabi-6-2017-q2-update/arm-none-eabi/include/c++/6.3.1/functional **** 	static bool
1591:/home/vdykyy/Install/STM-32/gcc-arm-none-eabi-6-2017-q2-update/arm-none-eabi/include/c++/6.3.1/functional **** 	_M_manager(_Any_data& __dest, const _Any_data& __source,
1592:/home/vdykyy/Install/STM-32/gcc-arm-none-eabi-6-2017-q2-update/arm-none-eabi/include/c++/6.3.1/functional **** 		   _Manager_operation __op)
1593:/home/vdykyy/Install/STM-32/gcc-arm-none-eabi-6-2017-q2-update/arm-none-eabi/include/c++/6.3.1/functional **** 	{
1594:/home/vdykyy/Install/STM-32/gcc-arm-none-eabi-6-2017-q2-update/arm-none-eabi/include/c++/6.3.1/functional **** 	  switch (__op)
1595:/home/vdykyy/Install/STM-32/gcc-arm-none-eabi-6-2017-q2-update/arm-none-eabi/include/c++/6.3.1/functional **** 	    {
1596:/home/vdykyy/Install/STM-32/gcc-arm-none-eabi-6-2017-q2-update/arm-none-eabi/include/c++/6.3.1/functional **** #if __cpp_rtti
1597:/home/vdykyy/Install/STM-32/gcc-arm-none-eabi-6-2017-q2-update/arm-none-eabi/include/c++/6.3.1/functional **** 	    case __get_type_info:
1598:/home/vdykyy/Install/STM-32/gcc-arm-none-eabi-6-2017-q2-update/arm-none-eabi/include/c++/6.3.1/functional **** 	      __dest._M_access<const type_info*>() = &typeid(_Functor);
1599:/home/vdykyy/Install/STM-32/gcc-arm-none-eabi-6-2017-q2-update/arm-none-eabi/include/c++/6.3.1/functional **** 	      break;
1600:/home/vdykyy/Install/STM-32/gcc-arm-none-eabi-6-2017-q2-update/arm-none-eabi/include/c++/6.3.1/functional **** #endif
1601:/home/vdykyy/Install/STM-32/gcc-arm-none-eabi-6-2017-q2-update/arm-none-eabi/include/c++/6.3.1/functional **** 	    case __get_functor_ptr:
1602:/home/vdykyy/Install/STM-32/gcc-arm-none-eabi-6-2017-q2-update/arm-none-eabi/include/c++/6.3.1/functional **** 	      __dest._M_access<_Functor*>() = _M_get_pointer(__source);
1603:/home/vdykyy/Install/STM-32/gcc-arm-none-eabi-6-2017-q2-update/arm-none-eabi/include/c++/6.3.1/functional **** 	      break;
ARM GAS  /tmp/cch7CLaJ.s 			page 30


1604:/home/vdykyy/Install/STM-32/gcc-arm-none-eabi-6-2017-q2-update/arm-none-eabi/include/c++/6.3.1/functional **** 
1605:/home/vdykyy/Install/STM-32/gcc-arm-none-eabi-6-2017-q2-update/arm-none-eabi/include/c++/6.3.1/functional **** 	    case __clone_functor:
1606:/home/vdykyy/Install/STM-32/gcc-arm-none-eabi-6-2017-q2-update/arm-none-eabi/include/c++/6.3.1/functional **** 	      _M_clone(__dest, __source, _Local_storage());
1607:/home/vdykyy/Install/STM-32/gcc-arm-none-eabi-6-2017-q2-update/arm-none-eabi/include/c++/6.3.1/functional **** 	      break;
1608:/home/vdykyy/Install/STM-32/gcc-arm-none-eabi-6-2017-q2-update/arm-none-eabi/include/c++/6.3.1/functional **** 
1609:/home/vdykyy/Install/STM-32/gcc-arm-none-eabi-6-2017-q2-update/arm-none-eabi/include/c++/6.3.1/functional **** 	    case __destroy_functor:
1610:/home/vdykyy/Install/STM-32/gcc-arm-none-eabi-6-2017-q2-update/arm-none-eabi/include/c++/6.3.1/functional **** 	      _M_destroy(__dest, _Local_storage());
1611:/home/vdykyy/Install/STM-32/gcc-arm-none-eabi-6-2017-q2-update/arm-none-eabi/include/c++/6.3.1/functional **** 	      break;
1612:/home/vdykyy/Install/STM-32/gcc-arm-none-eabi-6-2017-q2-update/arm-none-eabi/include/c++/6.3.1/functional **** 	    }
1613:/home/vdykyy/Install/STM-32/gcc-arm-none-eabi-6-2017-q2-update/arm-none-eabi/include/c++/6.3.1/functional **** 	  return false;
1614:/home/vdykyy/Install/STM-32/gcc-arm-none-eabi-6-2017-q2-update/arm-none-eabi/include/c++/6.3.1/functional **** 	}
1615:/home/vdykyy/Install/STM-32/gcc-arm-none-eabi-6-2017-q2-update/arm-none-eabi/include/c++/6.3.1/functional **** 
1616:/home/vdykyy/Install/STM-32/gcc-arm-none-eabi-6-2017-q2-update/arm-none-eabi/include/c++/6.3.1/functional **** 	static void
1617:/home/vdykyy/Install/STM-32/gcc-arm-none-eabi-6-2017-q2-update/arm-none-eabi/include/c++/6.3.1/functional **** 	_M_init_functor(_Any_data& __functor, _Functor&& __f)
1618:/home/vdykyy/Install/STM-32/gcc-arm-none-eabi-6-2017-q2-update/arm-none-eabi/include/c++/6.3.1/functional **** 	{ _M_init_functor(__functor, std::move(__f), _Local_storage()); }
1619:/home/vdykyy/Install/STM-32/gcc-arm-none-eabi-6-2017-q2-update/arm-none-eabi/include/c++/6.3.1/functional **** 
1620:/home/vdykyy/Install/STM-32/gcc-arm-none-eabi-6-2017-q2-update/arm-none-eabi/include/c++/6.3.1/functional **** 	template<typename _Signature>
1621:/home/vdykyy/Install/STM-32/gcc-arm-none-eabi-6-2017-q2-update/arm-none-eabi/include/c++/6.3.1/functional **** 	  static bool
1622:/home/vdykyy/Install/STM-32/gcc-arm-none-eabi-6-2017-q2-update/arm-none-eabi/include/c++/6.3.1/functional **** 	  _M_not_empty_function(const function<_Signature>& __f)
1623:/home/vdykyy/Install/STM-32/gcc-arm-none-eabi-6-2017-q2-update/arm-none-eabi/include/c++/6.3.1/functional **** 	  { return static_cast<bool>(__f); }
1624:/home/vdykyy/Install/STM-32/gcc-arm-none-eabi-6-2017-q2-update/arm-none-eabi/include/c++/6.3.1/functional **** 
1625:/home/vdykyy/Install/STM-32/gcc-arm-none-eabi-6-2017-q2-update/arm-none-eabi/include/c++/6.3.1/functional **** 	template<typename _Tp>
1626:/home/vdykyy/Install/STM-32/gcc-arm-none-eabi-6-2017-q2-update/arm-none-eabi/include/c++/6.3.1/functional **** 	  static bool
1627:/home/vdykyy/Install/STM-32/gcc-arm-none-eabi-6-2017-q2-update/arm-none-eabi/include/c++/6.3.1/functional **** 	  _M_not_empty_function(_Tp* __fp)
1628:/home/vdykyy/Install/STM-32/gcc-arm-none-eabi-6-2017-q2-update/arm-none-eabi/include/c++/6.3.1/functional **** 	  { return __fp != nullptr; }
1629:/home/vdykyy/Install/STM-32/gcc-arm-none-eabi-6-2017-q2-update/arm-none-eabi/include/c++/6.3.1/functional **** 
1630:/home/vdykyy/Install/STM-32/gcc-arm-none-eabi-6-2017-q2-update/arm-none-eabi/include/c++/6.3.1/functional **** 	template<typename _Class, typename _Tp>
1631:/home/vdykyy/Install/STM-32/gcc-arm-none-eabi-6-2017-q2-update/arm-none-eabi/include/c++/6.3.1/functional **** 	  static bool
1632:/home/vdykyy/Install/STM-32/gcc-arm-none-eabi-6-2017-q2-update/arm-none-eabi/include/c++/6.3.1/functional **** 	  _M_not_empty_function(_Tp _Class::* __mp)
1633:/home/vdykyy/Install/STM-32/gcc-arm-none-eabi-6-2017-q2-update/arm-none-eabi/include/c++/6.3.1/functional **** 	  { return __mp != nullptr; }
1634:/home/vdykyy/Install/STM-32/gcc-arm-none-eabi-6-2017-q2-update/arm-none-eabi/include/c++/6.3.1/functional **** 
1635:/home/vdykyy/Install/STM-32/gcc-arm-none-eabi-6-2017-q2-update/arm-none-eabi/include/c++/6.3.1/functional **** 	template<typename _Tp>
1636:/home/vdykyy/Install/STM-32/gcc-arm-none-eabi-6-2017-q2-update/arm-none-eabi/include/c++/6.3.1/functional **** 	  static bool
1637:/home/vdykyy/Install/STM-32/gcc-arm-none-eabi-6-2017-q2-update/arm-none-eabi/include/c++/6.3.1/functional **** 	  _M_not_empty_function(const _Tp&)
1638:/home/vdykyy/Install/STM-32/gcc-arm-none-eabi-6-2017-q2-update/arm-none-eabi/include/c++/6.3.1/functional **** 	  { return true; }
1639:/home/vdykyy/Install/STM-32/gcc-arm-none-eabi-6-2017-q2-update/arm-none-eabi/include/c++/6.3.1/functional **** 
1640:/home/vdykyy/Install/STM-32/gcc-arm-none-eabi-6-2017-q2-update/arm-none-eabi/include/c++/6.3.1/functional ****       private:
1641:/home/vdykyy/Install/STM-32/gcc-arm-none-eabi-6-2017-q2-update/arm-none-eabi/include/c++/6.3.1/functional **** 	static void
1642:/home/vdykyy/Install/STM-32/gcc-arm-none-eabi-6-2017-q2-update/arm-none-eabi/include/c++/6.3.1/functional **** 	_M_init_functor(_Any_data& __functor, _Functor&& __f, true_type)
1643:/home/vdykyy/Install/STM-32/gcc-arm-none-eabi-6-2017-q2-update/arm-none-eabi/include/c++/6.3.1/functional **** 	{ ::new (__functor._M_access()) _Functor(std::move(__f)); }
1644:/home/vdykyy/Install/STM-32/gcc-arm-none-eabi-6-2017-q2-update/arm-none-eabi/include/c++/6.3.1/functional **** 
1645:/home/vdykyy/Install/STM-32/gcc-arm-none-eabi-6-2017-q2-update/arm-none-eabi/include/c++/6.3.1/functional **** 	static void
1646:/home/vdykyy/Install/STM-32/gcc-arm-none-eabi-6-2017-q2-update/arm-none-eabi/include/c++/6.3.1/functional **** 	_M_init_functor(_Any_data& __functor, _Functor&& __f, false_type)
1647:/home/vdykyy/Install/STM-32/gcc-arm-none-eabi-6-2017-q2-update/arm-none-eabi/include/c++/6.3.1/functional **** 	{ __functor._M_access<_Functor*>() = new _Functor(std::move(__f)); }
1648:/home/vdykyy/Install/STM-32/gcc-arm-none-eabi-6-2017-q2-update/arm-none-eabi/include/c++/6.3.1/functional ****       };
1649:/home/vdykyy/Install/STM-32/gcc-arm-none-eabi-6-2017-q2-update/arm-none-eabi/include/c++/6.3.1/functional **** 
1650:/home/vdykyy/Install/STM-32/gcc-arm-none-eabi-6-2017-q2-update/arm-none-eabi/include/c++/6.3.1/functional ****     template<typename _Functor>
1651:/home/vdykyy/Install/STM-32/gcc-arm-none-eabi-6-2017-q2-update/arm-none-eabi/include/c++/6.3.1/functional ****       class _Ref_manager : public _Base_manager<_Functor*>
1652:/home/vdykyy/Install/STM-32/gcc-arm-none-eabi-6-2017-q2-update/arm-none-eabi/include/c++/6.3.1/functional ****       {
1653:/home/vdykyy/Install/STM-32/gcc-arm-none-eabi-6-2017-q2-update/arm-none-eabi/include/c++/6.3.1/functional **** 	typedef _Function_base::_Base_manager<_Functor*> _Base;
1654:/home/vdykyy/Install/STM-32/gcc-arm-none-eabi-6-2017-q2-update/arm-none-eabi/include/c++/6.3.1/functional **** 
1655:/home/vdykyy/Install/STM-32/gcc-arm-none-eabi-6-2017-q2-update/arm-none-eabi/include/c++/6.3.1/functional ****       public:
1656:/home/vdykyy/Install/STM-32/gcc-arm-none-eabi-6-2017-q2-update/arm-none-eabi/include/c++/6.3.1/functional **** 	static bool
1657:/home/vdykyy/Install/STM-32/gcc-arm-none-eabi-6-2017-q2-update/arm-none-eabi/include/c++/6.3.1/functional **** 	_M_manager(_Any_data& __dest, const _Any_data& __source,
1658:/home/vdykyy/Install/STM-32/gcc-arm-none-eabi-6-2017-q2-update/arm-none-eabi/include/c++/6.3.1/functional **** 		   _Manager_operation __op)
1659:/home/vdykyy/Install/STM-32/gcc-arm-none-eabi-6-2017-q2-update/arm-none-eabi/include/c++/6.3.1/functional **** 	{
1660:/home/vdykyy/Install/STM-32/gcc-arm-none-eabi-6-2017-q2-update/arm-none-eabi/include/c++/6.3.1/functional **** 	  switch (__op)
ARM GAS  /tmp/cch7CLaJ.s 			page 31


1661:/home/vdykyy/Install/STM-32/gcc-arm-none-eabi-6-2017-q2-update/arm-none-eabi/include/c++/6.3.1/functional **** 	    {
1662:/home/vdykyy/Install/STM-32/gcc-arm-none-eabi-6-2017-q2-update/arm-none-eabi/include/c++/6.3.1/functional **** #if __cpp_rtti
1663:/home/vdykyy/Install/STM-32/gcc-arm-none-eabi-6-2017-q2-update/arm-none-eabi/include/c++/6.3.1/functional **** 	    case __get_type_info:
1664:/home/vdykyy/Install/STM-32/gcc-arm-none-eabi-6-2017-q2-update/arm-none-eabi/include/c++/6.3.1/functional **** 	      __dest._M_access<const type_info*>() = &typeid(_Functor);
